
UCCBEmbedded.elf:     file format elf32-littlearm

Sections:
Idx Name          Size      VMA       LMA       File off  Algn
  0 .isr_vector   000000c0  08000000  08000000  00010000  2**0
                  CONTENTS, ALLOC, LOAD, READONLY, DATA
  1 .text         00004c30  080000c0  080000c0  000100c0  2**2
                  CONTENTS, ALLOC, LOAD, READONLY, CODE
  2 .rodata       00000280  08004cf0  08004cf0  00014cf0  2**2
                  CONTENTS, ALLOC, LOAD, READONLY, DATA
  3 .init_array   00000004  08004f70  08004f70  00014f70  2**2
                  CONTENTS, ALLOC, LOAD, DATA
  4 .fini_array   00000004  08004f74  08004f74  00014f74  2**2
                  CONTENTS, ALLOC, LOAD, DATA
  5 .data         00000160  20000000  08004f78  00020000  2**2
                  CONTENTS, ALLOC, LOAD, DATA
  6 .bss          00000be8  20000160  080050d8  00020160  2**3
                  ALLOC
  7 ._user_heap_stack 00000600  20000d48  080050d8  00020d48  2**0
                  ALLOC
  8 .ARM.attributes 00000028  00000000  00000000  00020160  2**0
                  CONTENTS, READONLY
  9 .debug_info   00023c1e  00000000  00000000  00020188  2**0
                  CONTENTS, READONLY, DEBUGGING
 10 .debug_abbrev 00004c9a  00000000  00000000  00043da6  2**0
                  CONTENTS, READONLY, DEBUGGING
 11 .debug_loc    00008882  00000000  00000000  00048a40  2**0
                  CONTENTS, READONLY, DEBUGGING
 12 .debug_aranges 00000dc0  00000000  00000000  000512c8  2**3
                  CONTENTS, READONLY, DEBUGGING
 13 .debug_ranges 00001000  00000000  00000000  00052088  2**3
                  CONTENTS, READONLY, DEBUGGING
 14 .debug_line   00008d07  00000000  00000000  00053088  2**0
                  CONTENTS, READONLY, DEBUGGING
 15 .debug_str    0000476b  00000000  00000000  0005bd8f  2**0
                  CONTENTS, READONLY, DEBUGGING
 16 .comment      0000007c  00000000  00000000  000604fa  2**0
                  CONTENTS, READONLY
 17 .debug_frame  00002228  00000000  00000000  00060578  2**2
                  CONTENTS, READONLY, DEBUGGING

Disassembly of section .text:

080000c0 <__do_global_dtors_aux>:
 80000c0:	b510      	push	{r4, lr}
 80000c2:	4c06      	ldr	r4, [pc, #24]	; (80000dc <__do_global_dtors_aux+0x1c>)
 80000c4:	7823      	ldrb	r3, [r4, #0]
 80000c6:	2b00      	cmp	r3, #0
 80000c8:	d107      	bne.n	80000da <__do_global_dtors_aux+0x1a>
 80000ca:	4b05      	ldr	r3, [pc, #20]	; (80000e0 <__do_global_dtors_aux+0x20>)
 80000cc:	2b00      	cmp	r3, #0
 80000ce:	d002      	beq.n	80000d6 <__do_global_dtors_aux+0x16>
 80000d0:	4804      	ldr	r0, [pc, #16]	; (80000e4 <__do_global_dtors_aux+0x24>)
 80000d2:	e000      	b.n	80000d6 <__do_global_dtors_aux+0x16>
 80000d4:	bf00      	nop
 80000d6:	2301      	movs	r3, #1
 80000d8:	7023      	strb	r3, [r4, #0]
 80000da:	bd10      	pop	{r4, pc}
 80000dc:	20000160 	.word	0x20000160
 80000e0:	00000000 	.word	0x00000000
 80000e4:	08004cd8 	.word	0x08004cd8

080000e8 <frame_dummy>:
 80000e8:	4b04      	ldr	r3, [pc, #16]	; (80000fc <frame_dummy+0x14>)
 80000ea:	b510      	push	{r4, lr}
 80000ec:	2b00      	cmp	r3, #0
 80000ee:	d003      	beq.n	80000f8 <frame_dummy+0x10>
 80000f0:	4903      	ldr	r1, [pc, #12]	; (8000100 <frame_dummy+0x18>)
 80000f2:	4804      	ldr	r0, [pc, #16]	; (8000104 <frame_dummy+0x1c>)
 80000f4:	e000      	b.n	80000f8 <frame_dummy+0x10>
 80000f6:	bf00      	nop
 80000f8:	bd10      	pop	{r4, pc}
 80000fa:	46c0      	nop			; (mov r8, r8)
 80000fc:	00000000 	.word	0x00000000
 8000100:	20000164 	.word	0x20000164
 8000104:	08004cd8 	.word	0x08004cd8

08000108 <__udivsi3>:
 8000108:	2200      	movs	r2, #0
 800010a:	0843      	lsrs	r3, r0, #1
 800010c:	428b      	cmp	r3, r1
 800010e:	d374      	bcc.n	80001fa <__udivsi3+0xf2>
 8000110:	0903      	lsrs	r3, r0, #4
 8000112:	428b      	cmp	r3, r1
 8000114:	d35f      	bcc.n	80001d6 <__udivsi3+0xce>
 8000116:	0a03      	lsrs	r3, r0, #8
 8000118:	428b      	cmp	r3, r1
 800011a:	d344      	bcc.n	80001a6 <__udivsi3+0x9e>
 800011c:	0b03      	lsrs	r3, r0, #12
 800011e:	428b      	cmp	r3, r1
 8000120:	d328      	bcc.n	8000174 <__udivsi3+0x6c>
 8000122:	0c03      	lsrs	r3, r0, #16
 8000124:	428b      	cmp	r3, r1
 8000126:	d30d      	bcc.n	8000144 <__udivsi3+0x3c>
 8000128:	22ff      	movs	r2, #255	; 0xff
 800012a:	0209      	lsls	r1, r1, #8
 800012c:	ba12      	rev	r2, r2
 800012e:	0c03      	lsrs	r3, r0, #16
 8000130:	428b      	cmp	r3, r1
 8000132:	d302      	bcc.n	800013a <__udivsi3+0x32>
 8000134:	1212      	asrs	r2, r2, #8
 8000136:	0209      	lsls	r1, r1, #8
 8000138:	d065      	beq.n	8000206 <__udivsi3+0xfe>
 800013a:	0b03      	lsrs	r3, r0, #12
 800013c:	428b      	cmp	r3, r1
 800013e:	d319      	bcc.n	8000174 <__udivsi3+0x6c>
 8000140:	e000      	b.n	8000144 <__udivsi3+0x3c>
 8000142:	0a09      	lsrs	r1, r1, #8
 8000144:	0bc3      	lsrs	r3, r0, #15
 8000146:	428b      	cmp	r3, r1
 8000148:	d301      	bcc.n	800014e <__udivsi3+0x46>
 800014a:	03cb      	lsls	r3, r1, #15
 800014c:	1ac0      	subs	r0, r0, r3
 800014e:	4152      	adcs	r2, r2
 8000150:	0b83      	lsrs	r3, r0, #14
 8000152:	428b      	cmp	r3, r1
 8000154:	d301      	bcc.n	800015a <__udivsi3+0x52>
 8000156:	038b      	lsls	r3, r1, #14
 8000158:	1ac0      	subs	r0, r0, r3
 800015a:	4152      	adcs	r2, r2
 800015c:	0b43      	lsrs	r3, r0, #13
 800015e:	428b      	cmp	r3, r1
 8000160:	d301      	bcc.n	8000166 <__udivsi3+0x5e>
 8000162:	034b      	lsls	r3, r1, #13
 8000164:	1ac0      	subs	r0, r0, r3
 8000166:	4152      	adcs	r2, r2
 8000168:	0b03      	lsrs	r3, r0, #12
 800016a:	428b      	cmp	r3, r1
 800016c:	d301      	bcc.n	8000172 <__udivsi3+0x6a>
 800016e:	030b      	lsls	r3, r1, #12
 8000170:	1ac0      	subs	r0, r0, r3
 8000172:	4152      	adcs	r2, r2
 8000174:	0ac3      	lsrs	r3, r0, #11
 8000176:	428b      	cmp	r3, r1
 8000178:	d301      	bcc.n	800017e <__udivsi3+0x76>
 800017a:	02cb      	lsls	r3, r1, #11
 800017c:	1ac0      	subs	r0, r0, r3
 800017e:	4152      	adcs	r2, r2
 8000180:	0a83      	lsrs	r3, r0, #10
 8000182:	428b      	cmp	r3, r1
 8000184:	d301      	bcc.n	800018a <__udivsi3+0x82>
 8000186:	028b      	lsls	r3, r1, #10
 8000188:	1ac0      	subs	r0, r0, r3
 800018a:	4152      	adcs	r2, r2
 800018c:	0a43      	lsrs	r3, r0, #9
 800018e:	428b      	cmp	r3, r1
 8000190:	d301      	bcc.n	8000196 <__udivsi3+0x8e>
 8000192:	024b      	lsls	r3, r1, #9
 8000194:	1ac0      	subs	r0, r0, r3
 8000196:	4152      	adcs	r2, r2
 8000198:	0a03      	lsrs	r3, r0, #8
 800019a:	428b      	cmp	r3, r1
 800019c:	d301      	bcc.n	80001a2 <__udivsi3+0x9a>
 800019e:	020b      	lsls	r3, r1, #8
 80001a0:	1ac0      	subs	r0, r0, r3
 80001a2:	4152      	adcs	r2, r2
 80001a4:	d2cd      	bcs.n	8000142 <__udivsi3+0x3a>
 80001a6:	09c3      	lsrs	r3, r0, #7
 80001a8:	428b      	cmp	r3, r1
 80001aa:	d301      	bcc.n	80001b0 <__udivsi3+0xa8>
 80001ac:	01cb      	lsls	r3, r1, #7
 80001ae:	1ac0      	subs	r0, r0, r3
 80001b0:	4152      	adcs	r2, r2
 80001b2:	0983      	lsrs	r3, r0, #6
 80001b4:	428b      	cmp	r3, r1
 80001b6:	d301      	bcc.n	80001bc <__udivsi3+0xb4>
 80001b8:	018b      	lsls	r3, r1, #6
 80001ba:	1ac0      	subs	r0, r0, r3
 80001bc:	4152      	adcs	r2, r2
 80001be:	0943      	lsrs	r3, r0, #5
 80001c0:	428b      	cmp	r3, r1
 80001c2:	d301      	bcc.n	80001c8 <__udivsi3+0xc0>
 80001c4:	014b      	lsls	r3, r1, #5
 80001c6:	1ac0      	subs	r0, r0, r3
 80001c8:	4152      	adcs	r2, r2
 80001ca:	0903      	lsrs	r3, r0, #4
 80001cc:	428b      	cmp	r3, r1
 80001ce:	d301      	bcc.n	80001d4 <__udivsi3+0xcc>
 80001d0:	010b      	lsls	r3, r1, #4
 80001d2:	1ac0      	subs	r0, r0, r3
 80001d4:	4152      	adcs	r2, r2
 80001d6:	08c3      	lsrs	r3, r0, #3
 80001d8:	428b      	cmp	r3, r1
 80001da:	d301      	bcc.n	80001e0 <__udivsi3+0xd8>
 80001dc:	00cb      	lsls	r3, r1, #3
 80001de:	1ac0      	subs	r0, r0, r3
 80001e0:	4152      	adcs	r2, r2
 80001e2:	0883      	lsrs	r3, r0, #2
 80001e4:	428b      	cmp	r3, r1
 80001e6:	d301      	bcc.n	80001ec <__udivsi3+0xe4>
 80001e8:	008b      	lsls	r3, r1, #2
 80001ea:	1ac0      	subs	r0, r0, r3
 80001ec:	4152      	adcs	r2, r2
 80001ee:	0843      	lsrs	r3, r0, #1
 80001f0:	428b      	cmp	r3, r1
 80001f2:	d301      	bcc.n	80001f8 <__udivsi3+0xf0>
 80001f4:	004b      	lsls	r3, r1, #1
 80001f6:	1ac0      	subs	r0, r0, r3
 80001f8:	4152      	adcs	r2, r2
 80001fa:	1a41      	subs	r1, r0, r1
 80001fc:	d200      	bcs.n	8000200 <__udivsi3+0xf8>
 80001fe:	4601      	mov	r1, r0
 8000200:	4152      	adcs	r2, r2
 8000202:	4610      	mov	r0, r2
 8000204:	4770      	bx	lr
 8000206:	e7ff      	b.n	8000208 <__udivsi3+0x100>
 8000208:	b501      	push	{r0, lr}
 800020a:	2000      	movs	r0, #0
 800020c:	f000 f806 	bl	800021c <__aeabi_idiv0>
 8000210:	bd02      	pop	{r1, pc}
 8000212:	46c0      	nop			; (mov r8, r8)

08000214 <__aeabi_uidivmod>:
 8000214:	2900      	cmp	r1, #0
 8000216:	d0f7      	beq.n	8000208 <__udivsi3+0x100>
 8000218:	e776      	b.n	8000108 <__udivsi3>
 800021a:	4770      	bx	lr

0800021c <__aeabi_idiv0>:
 800021c:	4770      	bx	lr
 800021e:	46c0      	nop			; (mov r8, r8)

08000220 <HAL_InitTick>:
  *       implementation  in user file.
  * @param TickPriority Tick interrupt priority.
  * @retval HAL status
  */
__weak HAL_StatusTypeDef HAL_InitTick(uint32_t TickPriority)
{
 8000220:	b510      	push	{r4, lr}
 8000222:	0004      	movs	r4, r0
  /*Configure the SysTick to have interrupt in 1ms time basis*/
  HAL_SYSTICK_Config(HAL_RCC_GetHCLKFreq()/1000U);
 8000224:	f002 fb70 	bl	8002908 <HAL_RCC_GetHCLKFreq>
 8000228:	21fa      	movs	r1, #250	; 0xfa
 800022a:	0089      	lsls	r1, r1, #2
 800022c:	f7ff ff6c 	bl	8000108 <__udivsi3>
 8000230:	f000 fc78 	bl	8000b24 <HAL_SYSTICK_Config>

  /*Configure the SysTick IRQ priority */
  HAL_NVIC_SetPriority(SysTick_IRQn, TickPriority ,0U);
 8000234:	2200      	movs	r2, #0
 8000236:	0021      	movs	r1, r4
 8000238:	2001      	movs	r0, #1
 800023a:	4240      	negs	r0, r0
 800023c:	f000 fc2c 	bl	8000a98 <HAL_NVIC_SetPriority>

   /* Return function status */
  return HAL_OK;
}
 8000240:	2000      	movs	r0, #0
 8000242:	bd10      	pop	{r4, pc}

08000244 <HAL_Init>:
{
 8000244:	b510      	push	{r4, lr}
  __HAL_FLASH_PREFETCH_BUFFER_ENABLE();
 8000246:	4a06      	ldr	r2, [pc, #24]	; (8000260 <HAL_Init+0x1c>)
 8000248:	6813      	ldr	r3, [r2, #0]
 800024a:	2110      	movs	r1, #16
 800024c:	430b      	orrs	r3, r1
 800024e:	6013      	str	r3, [r2, #0]
  HAL_InitTick(TICK_INT_PRIORITY);
 8000250:	2000      	movs	r0, #0
 8000252:	f7ff ffe5 	bl	8000220 <HAL_InitTick>
  HAL_MspInit();
 8000256:	f004 f9ab 	bl	80045b0 <HAL_MspInit>
}
 800025a:	2000      	movs	r0, #0
 800025c:	bd10      	pop	{r4, pc}
 800025e:	46c0      	nop			; (mov r8, r8)
 8000260:	40022000 	.word	0x40022000

08000264 <HAL_IncTick>:
  *       implementations in user file.
  * @retval None
  */
__weak void HAL_IncTick(void)
{
  uwTick++;
 8000264:	4a02      	ldr	r2, [pc, #8]	; (8000270 <HAL_IncTick+0xc>)
 8000266:	6813      	ldr	r3, [r2, #0]
 8000268:	3301      	adds	r3, #1
 800026a:	6013      	str	r3, [r2, #0]
}
 800026c:	4770      	bx	lr
 800026e:	46c0      	nop			; (mov r8, r8)
 8000270:	200003ec 	.word	0x200003ec

08000274 <HAL_GetTick>:
  *       implementations in user file.
  * @retval tick value
  */
__weak uint32_t HAL_GetTick(void)
{
  return uwTick;
 8000274:	4b01      	ldr	r3, [pc, #4]	; (800027c <HAL_GetTick+0x8>)
 8000276:	6818      	ldr	r0, [r3, #0]
}
 8000278:	4770      	bx	lr
 800027a:	46c0      	nop			; (mov r8, r8)
 800027c:	200003ec 	.word	0x200003ec

08000280 <HAL_CAN_ConfigFilter>:
  * @param  sFilterConfig pointer to a CAN_FilterConfTypeDef structure that
  *         contains the filter configuration information.
  * @retval None
  */
HAL_StatusTypeDef HAL_CAN_ConfigFilter(CAN_HandleTypeDef* hcan, CAN_FilterConfTypeDef* sFilterConfig)
{
 8000280:	b5f0      	push	{r4, r5, r6, r7, lr}
  assert_param(IS_CAN_FILTER_SCALE(sFilterConfig->FilterScale));
  assert_param(IS_CAN_FILTER_FIFO(sFilterConfig->FilterFIFOAssignment));
  assert_param(IS_FUNCTIONAL_STATE(sFilterConfig->FilterActivation));
  assert_param(IS_CAN_BANKNUMBER(sFilterConfig->BankNumber));
  
  filternbrbitpos = (1U) << sFilterConfig->FilterNumber;
 8000282:	2701      	movs	r7, #1

  /* Initialisation mode for the filter */
  /* Select the start slave bank */
  MODIFY_REG(hcan->Instance->FMR                         ,
 8000284:	6a4a      	ldr	r2, [r1, #36]	; 0x24
 8000286:	2680      	movs	r6, #128	; 0x80
 8000288:	0212      	lsls	r2, r2, #8
{
 800028a:	46c6      	mov	lr, r8
  filternbrbitpos = (1U) << sFilterConfig->FilterNumber;
 800028c:	003d      	movs	r5, r7
  MODIFY_REG(hcan->Instance->FMR                         ,
 800028e:	4690      	mov	r8, r2
 8000290:	6803      	ldr	r3, [r0, #0]
 8000292:	00b6      	lsls	r6, r6, #2
 8000294:	5998      	ldr	r0, [r3, r6]
  filternbrbitpos = (1U) << sFilterConfig->FilterNumber;
 8000296:	694c      	ldr	r4, [r1, #20]
  MODIFY_REG(hcan->Instance->FMR                         ,
 8000298:	4a33      	ldr	r2, [pc, #204]	; (8000368 <HAL_CAN_ConfigFilter+0xe8>)
  filternbrbitpos = (1U) << sFilterConfig->FilterNumber;
 800029a:	40a5      	lsls	r5, r4
  MODIFY_REG(hcan->Instance->FMR                         ,
 800029c:	4010      	ands	r0, r2
 800029e:	4642      	mov	r2, r8
 80002a0:	4302      	orrs	r2, r0
             CAN_FMR_CAN2SB                              ,
             CAN_FMR_FINIT                              |
             (uint32_t)(sFilterConfig->BankNumber << 8U)   );  /* Filter Deactivation */
  CLEAR_BIT(hcan->Instance->FA1R, filternbrbitpos);
 80002a2:	43e8      	mvns	r0, r5
  MODIFY_REG(hcan->Instance->FMR                         ,
 80002a4:	433a      	orrs	r2, r7
{
 80002a6:	b500      	push	{lr}
  MODIFY_REG(hcan->Instance->FMR                         ,
 80002a8:	519a      	str	r2, [r3, r6]
  CLEAR_BIT(hcan->Instance->FA1R, filternbrbitpos);
 80002aa:	361c      	adds	r6, #28
 80002ac:	599a      	ldr	r2, [r3, r6]
 80002ae:	4002      	ands	r2, r0
 80002b0:	519a      	str	r2, [r3, r6]

  /* Filter Scale */
  if (sFilterConfig->FilterScale == CAN_FILTERSCALE_16BIT)
 80002b2:	69ca      	ldr	r2, [r1, #28]
 80002b4:	2a00      	cmp	r2, #0
 80002b6:	d13f      	bne.n	8000338 <HAL_CAN_ConfigFilter+0xb8>
  {
    /* 16-bit scale for the filter */
    CLEAR_BIT(hcan->Instance->FS1R, filternbrbitpos);
 80002b8:	3e10      	subs	r6, #16
 80002ba:	599a      	ldr	r2, [r3, r6]
 80002bc:	00e4      	lsls	r4, r4, #3
 80002be:	4002      	ands	r2, r0
 80002c0:	519a      	str	r2, [r3, r6]

    /* First 16-bit identifier and First 16-bit mask */
    /* Or First 16-bit identifier and Second 16-bit identifier */
    hcan->Instance->sFilterRegister[sFilterConfig->FilterNumber].FR1 = 
       ((0x0000FFFFU & (uint32_t)sFilterConfig->FilterMaskIdLow) << 16U) |
 80002c2:	68ca      	ldr	r2, [r1, #12]
        (0x0000FFFFU & (uint32_t)sFilterConfig->FilterIdLow);
 80002c4:	888e      	ldrh	r6, [r1, #4]
       ((0x0000FFFFU & (uint32_t)sFilterConfig->FilterMaskIdLow) << 16U) |
 80002c6:	0412      	lsls	r2, r2, #16
 80002c8:	4332      	orrs	r2, r6
    hcan->Instance->sFilterRegister[sFilterConfig->FilterNumber].FR1 = 
 80002ca:	2690      	movs	r6, #144	; 0x90
 80002cc:	191c      	adds	r4, r3, r4
 80002ce:	00b6      	lsls	r6, r6, #2
 80002d0:	51a2      	str	r2, [r4, r6]

    /* Second 16-bit identifier and Second 16-bit mask */
    /* Or Third 16-bit identifier and Fourth 16-bit identifier */
    hcan->Instance->sFilterRegister[sFilterConfig->FilterNumber].FR2 = 
       ((0x0000FFFFU & (uint32_t)sFilterConfig->FilterMaskIdHigh) << 16U) |
 80002d2:	688a      	ldr	r2, [r1, #8]
        (0x0000FFFFU & (uint32_t)sFilterConfig->FilterIdHigh);
 80002d4:	880e      	ldrh	r6, [r1, #0]
       ((0x0000FFFFU & (uint32_t)sFilterConfig->FilterMaskIdHigh) << 16U) |
 80002d6:	0412      	lsls	r2, r2, #16
 80002d8:	4332      	orrs	r2, r6
    hcan->Instance->sFilterRegister[sFilterConfig->FilterNumber].FR2 = 
 80002da:	2691      	movs	r6, #145	; 0x91
 80002dc:	00b6      	lsls	r6, r6, #2
 80002de:	51a2      	str	r2, [r4, r6]

  /* Filter Mode */
  if (sFilterConfig->FilterMode == CAN_FILTERMODE_IDMASK)
  {
    /*Id/Mask mode for the filter*/
    CLEAR_BIT(hcan->Instance->FM1R, filternbrbitpos);
 80002e0:	2481      	movs	r4, #129	; 0x81
  if (sFilterConfig->FilterMode == CAN_FILTERMODE_IDMASK)
 80002e2:	698a      	ldr	r2, [r1, #24]
    CLEAR_BIT(hcan->Instance->FM1R, filternbrbitpos);
 80002e4:	00a4      	lsls	r4, r4, #2
  if (sFilterConfig->FilterMode == CAN_FILTERMODE_IDMASK)
 80002e6:	2a00      	cmp	r2, #0
 80002e8:	d122      	bne.n	8000330 <HAL_CAN_ConfigFilter+0xb0>
    CLEAR_BIT(hcan->Instance->FM1R, filternbrbitpos);
 80002ea:	591a      	ldr	r2, [r3, r4]
 80002ec:	4002      	ands	r2, r0
 80002ee:	511a      	str	r2, [r3, r4]
    /*Identifier list mode for the filter*/
    SET_BIT(hcan->Instance->FM1R, filternbrbitpos);
  }

  /* Filter FIFO assignment */
  if (sFilterConfig->FilterFIFOAssignment == CAN_FILTER_FIFO0)
 80002f0:	690a      	ldr	r2, [r1, #16]
 80002f2:	2a00      	cmp	r2, #0
 80002f4:	d116      	bne.n	8000324 <HAL_CAN_ConfigFilter+0xa4>
  {
    /* FIFO 0 assignation for the filter */
    CLEAR_BIT(hcan->Instance->FFA1R, filternbrbitpos);
 80002f6:	2485      	movs	r4, #133	; 0x85
 80002f8:	00a4      	lsls	r4, r4, #2
 80002fa:	591a      	ldr	r2, [r3, r4]
 80002fc:	4010      	ands	r0, r2
 80002fe:	5118      	str	r0, [r3, r4]
    /* FIFO 1 assignation for the filter */
    SET_BIT(hcan->Instance->FFA1R, filternbrbitpos);
  }
  
  /* Filter activation */
  if (sFilterConfig->FilterActivation == ENABLE)
 8000300:	6a0a      	ldr	r2, [r1, #32]
 8000302:	2a01      	cmp	r2, #1
 8000304:	d104      	bne.n	8000310 <HAL_CAN_ConfigFilter+0x90>
  {
    SET_BIT(hcan->Instance->FA1R, filternbrbitpos);
 8000306:	2187      	movs	r1, #135	; 0x87
 8000308:	0089      	lsls	r1, r1, #2
 800030a:	585a      	ldr	r2, [r3, r1]
 800030c:	432a      	orrs	r2, r5
 800030e:	505a      	str	r2, [r3, r1]
  }

  /* Leave the initialisation mode for the filter */
  CLEAR_BIT(hcan->Instance->FMR, ((uint32_t)CAN_FMR_FINIT));
 8000310:	2180      	movs	r1, #128	; 0x80
 8000312:	2001      	movs	r0, #1
 8000314:	0089      	lsls	r1, r1, #2
 8000316:	585a      	ldr	r2, [r3, r1]
 8000318:	4382      	bics	r2, r0
 800031a:	505a      	str	r2, [r3, r1]
  
  /* Return function status */
  return HAL_OK;
}
 800031c:	2000      	movs	r0, #0
 800031e:	bc04      	pop	{r2}
 8000320:	4690      	mov	r8, r2
 8000322:	bdf0      	pop	{r4, r5, r6, r7, pc}
    SET_BIT(hcan->Instance->FFA1R, filternbrbitpos);
 8000324:	2085      	movs	r0, #133	; 0x85
 8000326:	0080      	lsls	r0, r0, #2
 8000328:	581a      	ldr	r2, [r3, r0]
 800032a:	432a      	orrs	r2, r5
 800032c:	501a      	str	r2, [r3, r0]
 800032e:	e7e7      	b.n	8000300 <HAL_CAN_ConfigFilter+0x80>
    SET_BIT(hcan->Instance->FM1R, filternbrbitpos);
 8000330:	591a      	ldr	r2, [r3, r4]
 8000332:	432a      	orrs	r2, r5
 8000334:	511a      	str	r2, [r3, r4]
 8000336:	e7db      	b.n	80002f0 <HAL_CAN_ConfigFilter+0x70>
  if (sFilterConfig->FilterScale == CAN_FILTERSCALE_32BIT)
 8000338:	2a01      	cmp	r2, #1
 800033a:	d1d1      	bne.n	80002e0 <HAL_CAN_ConfigFilter+0x60>
    SET_BIT(hcan->Instance->FS1R, filternbrbitpos);
 800033c:	2683      	movs	r6, #131	; 0x83
 800033e:	00b6      	lsls	r6, r6, #2
 8000340:	599a      	ldr	r2, [r3, r6]
 8000342:	00e4      	lsls	r4, r4, #3
 8000344:	432a      	orrs	r2, r5
 8000346:	519a      	str	r2, [r3, r6]
       ((0x0000FFFFU & (uint32_t)sFilterConfig->FilterIdHigh) << 16U) |
 8000348:	680a      	ldr	r2, [r1, #0]
        (0x0000FFFFU & (uint32_t)sFilterConfig->FilterIdLow);
 800034a:	888e      	ldrh	r6, [r1, #4]
       ((0x0000FFFFU & (uint32_t)sFilterConfig->FilterIdHigh) << 16U) |
 800034c:	0412      	lsls	r2, r2, #16
 800034e:	4332      	orrs	r2, r6
    hcan->Instance->sFilterRegister[sFilterConfig->FilterNumber].FR1 = 
 8000350:	2690      	movs	r6, #144	; 0x90
 8000352:	191c      	adds	r4, r3, r4
 8000354:	00b6      	lsls	r6, r6, #2
 8000356:	51a2      	str	r2, [r4, r6]
       ((0x0000FFFFU & (uint32_t)sFilterConfig->FilterMaskIdHigh) << 16U) |
 8000358:	688a      	ldr	r2, [r1, #8]
        (0x0000FFFFU & (uint32_t)sFilterConfig->FilterMaskIdLow);
 800035a:	898e      	ldrh	r6, [r1, #12]
       ((0x0000FFFFU & (uint32_t)sFilterConfig->FilterMaskIdHigh) << 16U) |
 800035c:	0412      	lsls	r2, r2, #16
 800035e:	4332      	orrs	r2, r6
    hcan->Instance->sFilterRegister[sFilterConfig->FilterNumber].FR2 = 
 8000360:	2691      	movs	r6, #145	; 0x91
 8000362:	00b6      	lsls	r6, r6, #2
 8000364:	51a2      	str	r2, [r4, r6]
 8000366:	e7bb      	b.n	80002e0 <HAL_CAN_ConfigFilter+0x60>
 8000368:	ffffc0ff 	.word	0xffffc0ff

0800036c <HAL_CAN_Init>:
{
 800036c:	b5f8      	push	{r3, r4, r5, r6, r7, lr}
 800036e:	1e05      	subs	r5, r0, #0
  if(hcan == NULL)
 8000370:	d100      	bne.n	8000374 <HAL_CAN_Init+0x8>
 8000372:	e07c      	b.n	800046e <HAL_CAN_Init+0x102>
  if(hcan->State == HAL_CAN_STATE_RESET)
 8000374:	233d      	movs	r3, #61	; 0x3d
 8000376:	5cc3      	ldrb	r3, [r0, r3]
 8000378:	b2db      	uxtb	r3, r3
 800037a:	2b00      	cmp	r3, #0
 800037c:	d100      	bne.n	8000380 <HAL_CAN_Init+0x14>
 800037e:	e078      	b.n	8000472 <HAL_CAN_Init+0x106>
  hcan->State = HAL_CAN_STATE_BUSY;
 8000380:	2102      	movs	r1, #2
 8000382:	233d      	movs	r3, #61	; 0x3d
 8000384:	54e9      	strb	r1, [r5, r3]
  CLEAR_BIT(hcan->Instance->MCR, CAN_MCR_SLEEP);
 8000386:	682b      	ldr	r3, [r5, #0]
  while(HAL_IS_BIT_CLR(hcan->Instance->MSR, CAN_MSR_INAK))
 8000388:	2601      	movs	r6, #1
  CLEAR_BIT(hcan->Instance->MCR, CAN_MCR_SLEEP);
 800038a:	681a      	ldr	r2, [r3, #0]
 800038c:	438a      	bics	r2, r1
 800038e:	601a      	str	r2, [r3, #0]
  SET_BIT(hcan->Instance->MCR, CAN_MCR_INRQ);
 8000390:	681a      	ldr	r2, [r3, #0]
 8000392:	3901      	subs	r1, #1
 8000394:	430a      	orrs	r2, r1
 8000396:	601a      	str	r2, [r3, #0]
  tickstart = HAL_GetTick();   
 8000398:	f7ff ff6c 	bl	8000274 <HAL_GetTick>
 800039c:	0007      	movs	r7, r0
  while(HAL_IS_BIT_CLR(hcan->Instance->MSR, CAN_MSR_INAK))
 800039e:	e004      	b.n	80003aa <HAL_CAN_Init+0x3e>
    if((HAL_GetTick()-tickstart) > CAN_TIMEOUT_VALUE)
 80003a0:	f7ff ff68 	bl	8000274 <HAL_GetTick>
 80003a4:	1bc0      	subs	r0, r0, r7
 80003a6:	280a      	cmp	r0, #10
 80003a8:	d857      	bhi.n	800045a <HAL_CAN_Init+0xee>
  while(HAL_IS_BIT_CLR(hcan->Instance->MSR, CAN_MSR_INAK))
 80003aa:	682b      	ldr	r3, [r5, #0]
 80003ac:	685c      	ldr	r4, [r3, #4]
 80003ae:	4034      	ands	r4, r6
 80003b0:	d0f6      	beq.n	80003a0 <HAL_CAN_Init+0x34>
  if (HAL_IS_BIT_SET(hcan->Instance->MSR, CAN_MSR_INAK))
 80003b2:	685a      	ldr	r2, [r3, #4]
 80003b4:	4216      	tst	r6, r2
 80003b6:	d057      	beq.n	8000468 <HAL_CAN_Init+0xfc>
    if (hcan->Init.TTCM == ENABLE)
 80003b8:	69aa      	ldr	r2, [r5, #24]
 80003ba:	2a01      	cmp	r2, #1
 80003bc:	d05e      	beq.n	800047c <HAL_CAN_Init+0x110>
      CLEAR_BIT(hcan->Instance->MCR, CAN_MCR_TTCM);
 80003be:	2180      	movs	r1, #128	; 0x80
 80003c0:	681a      	ldr	r2, [r3, #0]
 80003c2:	438a      	bics	r2, r1
 80003c4:	601a      	str	r2, [r3, #0]
    if (hcan->Init.ABOM == ENABLE)
 80003c6:	69ea      	ldr	r2, [r5, #28]
 80003c8:	2a01      	cmp	r2, #1
 80003ca:	d100      	bne.n	80003ce <HAL_CAN_Init+0x62>
 80003cc:	e077      	b.n	80004be <HAL_CAN_Init+0x152>
      CLEAR_BIT(hcan->Instance->MCR, CAN_MCR_ABOM);
 80003ce:	2140      	movs	r1, #64	; 0x40
 80003d0:	681a      	ldr	r2, [r3, #0]
 80003d2:	438a      	bics	r2, r1
 80003d4:	601a      	str	r2, [r3, #0]
    if (hcan->Init.AWUM == ENABLE)
 80003d6:	6a2a      	ldr	r2, [r5, #32]
 80003d8:	2a01      	cmp	r2, #1
 80003da:	d100      	bne.n	80003de <HAL_CAN_Init+0x72>
 80003dc:	e06a      	b.n	80004b4 <HAL_CAN_Init+0x148>
      CLEAR_BIT(hcan->Instance->MCR, CAN_MCR_AWUM);
 80003de:	2120      	movs	r1, #32
 80003e0:	681a      	ldr	r2, [r3, #0]
 80003e2:	438a      	bics	r2, r1
 80003e4:	601a      	str	r2, [r3, #0]
    if (hcan->Init.NART == ENABLE)
 80003e6:	6a6a      	ldr	r2, [r5, #36]	; 0x24
 80003e8:	2a01      	cmp	r2, #1
 80003ea:	d05e      	beq.n	80004aa <HAL_CAN_Init+0x13e>
      CLEAR_BIT(hcan->Instance->MCR, CAN_MCR_NART);
 80003ec:	2110      	movs	r1, #16
 80003ee:	681a      	ldr	r2, [r3, #0]
 80003f0:	438a      	bics	r2, r1
 80003f2:	601a      	str	r2, [r3, #0]
    if (hcan->Init.RFLM == ENABLE)
 80003f4:	6aaa      	ldr	r2, [r5, #40]	; 0x28
 80003f6:	2a01      	cmp	r2, #1
 80003f8:	d052      	beq.n	80004a0 <HAL_CAN_Init+0x134>
      CLEAR_BIT(hcan->Instance->MCR, CAN_MCR_RFLM);
 80003fa:	2108      	movs	r1, #8
 80003fc:	681a      	ldr	r2, [r3, #0]
 80003fe:	438a      	bics	r2, r1
 8000400:	601a      	str	r2, [r3, #0]
    if (hcan->Init.TXFP == ENABLE)
 8000402:	6aea      	ldr	r2, [r5, #44]	; 0x2c
 8000404:	2a01      	cmp	r2, #1
 8000406:	d046      	beq.n	8000496 <HAL_CAN_Init+0x12a>
      CLEAR_BIT(hcan->Instance->MCR, CAN_MCR_TXFP);
 8000408:	2104      	movs	r1, #4
 800040a:	681a      	ldr	r2, [r3, #0]
 800040c:	438a      	bics	r2, r1
 800040e:	601a      	str	r2, [r3, #0]
    WRITE_REG(hcan->Instance->BTR, (uint32_t)(hcan->Init.Mode           |
 8000410:	68e9      	ldr	r1, [r5, #12]
 8000412:	68aa      	ldr	r2, [r5, #8]
    while(HAL_IS_BIT_SET(hcan->Instance->MSR, CAN_MSR_INAK))
 8000414:	2401      	movs	r4, #1
    WRITE_REG(hcan->Instance->BTR, (uint32_t)(hcan->Init.Mode           |
 8000416:	430a      	orrs	r2, r1
 8000418:	6929      	ldr	r1, [r5, #16]
 800041a:	430a      	orrs	r2, r1
 800041c:	6969      	ldr	r1, [r5, #20]
 800041e:	430a      	orrs	r2, r1
 8000420:	6869      	ldr	r1, [r5, #4]
 8000422:	3901      	subs	r1, #1
 8000424:	430a      	orrs	r2, r1
    CLEAR_BIT(hcan->Instance->MCR, CAN_MCR_INRQ);
 8000426:	2101      	movs	r1, #1
    WRITE_REG(hcan->Instance->BTR, (uint32_t)(hcan->Init.Mode           |
 8000428:	61da      	str	r2, [r3, #28]
    CLEAR_BIT(hcan->Instance->MCR, CAN_MCR_INRQ);
 800042a:	681a      	ldr	r2, [r3, #0]
 800042c:	438a      	bics	r2, r1
 800042e:	601a      	str	r2, [r3, #0]
    tickstart = HAL_GetTick();   
 8000430:	f7ff ff20 	bl	8000274 <HAL_GetTick>
 8000434:	0006      	movs	r6, r0
    while(HAL_IS_BIT_SET(hcan->Instance->MSR, CAN_MSR_INAK))
 8000436:	e004      	b.n	8000442 <HAL_CAN_Init+0xd6>
      if((HAL_GetTick()-tickstart) > CAN_TIMEOUT_VALUE)
 8000438:	f7ff ff1c 	bl	8000274 <HAL_GetTick>
 800043c:	1b80      	subs	r0, r0, r6
 800043e:	280a      	cmp	r0, #10
 8000440:	d821      	bhi.n	8000486 <HAL_CAN_Init+0x11a>
    while(HAL_IS_BIT_SET(hcan->Instance->MSR, CAN_MSR_INAK))
 8000442:	682b      	ldr	r3, [r5, #0]
 8000444:	685a      	ldr	r2, [r3, #4]
 8000446:	4214      	tst	r4, r2
 8000448:	d1f6      	bne.n	8000438 <HAL_CAN_Init+0xcc>
    if(HAL_IS_BIT_CLR(hcan->Instance->MSR, CAN_MSR_INAK))
 800044a:	685b      	ldr	r3, [r3, #4]
 800044c:	4023      	ands	r3, r4
 800044e:	d10b      	bne.n	8000468 <HAL_CAN_Init+0xfc>
    hcan->ErrorCode = HAL_CAN_ERROR_NONE;
 8000450:	642b      	str	r3, [r5, #64]	; 0x40
    hcan->State = HAL_CAN_STATE_READY;
 8000452:	233d      	movs	r3, #61	; 0x3d
    return HAL_OK;
 8000454:	2000      	movs	r0, #0
    hcan->State = HAL_CAN_STATE_READY;
 8000456:	54ec      	strb	r4, [r5, r3]
    return HAL_OK;
 8000458:	e005      	b.n	8000466 <HAL_CAN_Init+0xfa>
      hcan->State= HAL_CAN_STATE_TIMEOUT;
 800045a:	233d      	movs	r3, #61	; 0x3d
 800045c:	2203      	movs	r2, #3
      return HAL_TIMEOUT;
 800045e:	2003      	movs	r0, #3
      hcan->State= HAL_CAN_STATE_TIMEOUT;
 8000460:	54ea      	strb	r2, [r5, r3]
      __HAL_UNLOCK(hcan);
 8000462:	3b01      	subs	r3, #1
 8000464:	54ec      	strb	r4, [r5, r3]
}
 8000466:	bdf8      	pop	{r3, r4, r5, r6, r7, pc}
    hcan->State = HAL_CAN_STATE_ERROR;
 8000468:	2204      	movs	r2, #4
 800046a:	233d      	movs	r3, #61	; 0x3d
 800046c:	54ea      	strb	r2, [r5, r3]
    return HAL_ERROR;
 800046e:	2001      	movs	r0, #1
 8000470:	e7f9      	b.n	8000466 <HAL_CAN_Init+0xfa>
    hcan->Lock = HAL_UNLOCKED;
 8000472:	223c      	movs	r2, #60	; 0x3c
 8000474:	5483      	strb	r3, [r0, r2]
    HAL_CAN_MspInit(hcan);
 8000476:	f004 f8c5 	bl	8004604 <HAL_CAN_MspInit>
 800047a:	e781      	b.n	8000380 <HAL_CAN_Init+0x14>
      SET_BIT(hcan->Instance->MCR, CAN_MCR_TTCM);
 800047c:	2180      	movs	r1, #128	; 0x80
 800047e:	681a      	ldr	r2, [r3, #0]
 8000480:	430a      	orrs	r2, r1
 8000482:	601a      	str	r2, [r3, #0]
 8000484:	e79f      	b.n	80003c6 <HAL_CAN_Init+0x5a>
         hcan->State= HAL_CAN_STATE_TIMEOUT;
 8000486:	2203      	movs	r2, #3
 8000488:	233d      	movs	r3, #61	; 0x3d
 800048a:	54ea      	strb	r2, [r5, r3]
       __HAL_UNLOCK(hcan);
 800048c:	2200      	movs	r2, #0
 800048e:	3b01      	subs	r3, #1
 8000490:	54ea      	strb	r2, [r5, r3]
       return HAL_TIMEOUT;
 8000492:	2003      	movs	r0, #3
 8000494:	e7e7      	b.n	8000466 <HAL_CAN_Init+0xfa>
      SET_BIT(hcan->Instance->MCR, CAN_MCR_TXFP);
 8000496:	2104      	movs	r1, #4
 8000498:	681a      	ldr	r2, [r3, #0]
 800049a:	430a      	orrs	r2, r1
 800049c:	601a      	str	r2, [r3, #0]
 800049e:	e7b7      	b.n	8000410 <HAL_CAN_Init+0xa4>
      SET_BIT(hcan->Instance->MCR, CAN_MCR_RFLM);
 80004a0:	2108      	movs	r1, #8
 80004a2:	681a      	ldr	r2, [r3, #0]
 80004a4:	430a      	orrs	r2, r1
 80004a6:	601a      	str	r2, [r3, #0]
 80004a8:	e7ab      	b.n	8000402 <HAL_CAN_Init+0x96>
      SET_BIT(hcan->Instance->MCR, CAN_MCR_NART);
 80004aa:	2110      	movs	r1, #16
 80004ac:	681a      	ldr	r2, [r3, #0]
 80004ae:	430a      	orrs	r2, r1
 80004b0:	601a      	str	r2, [r3, #0]
 80004b2:	e79f      	b.n	80003f4 <HAL_CAN_Init+0x88>
      SET_BIT(hcan->Instance->MCR, CAN_MCR_AWUM);
 80004b4:	2120      	movs	r1, #32
 80004b6:	681a      	ldr	r2, [r3, #0]
 80004b8:	430a      	orrs	r2, r1
 80004ba:	601a      	str	r2, [r3, #0]
 80004bc:	e793      	b.n	80003e6 <HAL_CAN_Init+0x7a>
      SET_BIT(hcan->Instance->MCR, CAN_MCR_ABOM);
 80004be:	2140      	movs	r1, #64	; 0x40
 80004c0:	681a      	ldr	r2, [r3, #0]
 80004c2:	430a      	orrs	r2, r1
 80004c4:	601a      	str	r2, [r3, #0]
 80004c6:	e786      	b.n	80003d6 <HAL_CAN_Init+0x6a>

080004c8 <HAL_CAN_Transmit>:
  *         the configuration information for the specified CAN.  
  * @param  Timeout Timeout duration.
  * @retval HAL status
  */
HAL_StatusTypeDef HAL_CAN_Transmit(CAN_HandleTypeDef* hcan, uint32_t Timeout)
{
 80004c8:	b5f0      	push	{r4, r5, r6, r7, lr}
 80004ca:	46c6      	mov	lr, r8
  /* Check the parameters */
  assert_param(IS_CAN_IDTYPE(hcan->pTxMsg->IDE));
  assert_param(IS_CAN_RTR(hcan->pTxMsg->RTR));
  assert_param(IS_CAN_DLC(hcan->pTxMsg->DLC));

  if(((hcan->Instance->TSR&CAN_TSR_TME0) == CAN_TSR_TME0) || \
 80004cc:	6803      	ldr	r3, [r0, #0]
{
 80004ce:	b500      	push	{lr}
  if(((hcan->Instance->TSR&CAN_TSR_TME0) == CAN_TSR_TME0) || \
 80004d0:	689a      	ldr	r2, [r3, #8]
{
 80004d2:	0004      	movs	r4, r0
  if(((hcan->Instance->TSR&CAN_TSR_TME0) == CAN_TSR_TME0) || \
 80004d4:	0152      	lsls	r2, r2, #5
 80004d6:	d402      	bmi.n	80004de <HAL_CAN_Transmit+0x16>
     ((hcan->Instance->TSR&CAN_TSR_TME1) == CAN_TSR_TME1) || \
 80004d8:	689a      	ldr	r2, [r3, #8]
  if(((hcan->Instance->TSR&CAN_TSR_TME0) == CAN_TSR_TME0) || \
 80004da:	0112      	lsls	r2, r2, #4
 80004dc:	d564      	bpl.n	80005a8 <HAL_CAN_Transmit+0xe0>
     ((hcan->Instance->TSR&CAN_TSR_TME2) == CAN_TSR_TME2))
  {
    /* Process locked */
    __HAL_LOCK(hcan);
 80004de:	223c      	movs	r2, #60	; 0x3c
 80004e0:	5ca1      	ldrb	r1, [r4, r2]
 80004e2:	2002      	movs	r0, #2
 80004e4:	2901      	cmp	r1, #1
 80004e6:	d05c      	beq.n	80005a2 <HAL_CAN_Transmit+0xda>
 80004e8:	2101      	movs	r1, #1
 80004ea:	54a1      	strb	r1, [r4, r2]

    /* Change CAN state */
    switch(hcan->State)
 80004ec:	313c      	adds	r1, #60	; 0x3c
 80004ee:	5c62      	ldrb	r2, [r4, r1]
 80004f0:	b2d2      	uxtb	r2, r2
 80004f2:	2a32      	cmp	r2, #50	; 0x32
 80004f4:	d100      	bne.n	80004f8 <HAL_CAN_Transmit+0x30>
 80004f6:	e070      	b.n	80005da <HAL_CAN_Transmit+0x112>
 80004f8:	2a62      	cmp	r2, #98	; 0x62
 80004fa:	d100      	bne.n	80004fe <HAL_CAN_Transmit+0x36>
 80004fc:	e070      	b.n	80005e0 <HAL_CAN_Transmit+0x118>
 80004fe:	2a22      	cmp	r2, #34	; 0x22
 8000500:	d05a      	beq.n	80005b8 <HAL_CAN_Transmit+0xf0>
          break;
      case(HAL_CAN_STATE_BUSY_RX0_RX1):
          hcan->State = HAL_CAN_STATE_BUSY_TX_RX0_RX1;
          break;
      default: /* HAL_CAN_STATE_READY */
          hcan->State = HAL_CAN_STATE_BUSY_TX;
 8000502:	2212      	movs	r2, #18
 8000504:	5462      	strb	r2, [r4, r1]
          break;
    }

    /* Select one empty transmit mailbox */
    if (HAL_IS_BIT_SET(hcan->Instance->TSR, CAN_TSR_TME0))
 8000506:	689a      	ldr	r2, [r3, #8]
    {
      transmitmailbox = CAN_TXMAILBOX_0;
 8000508:	2100      	movs	r1, #0
    if (HAL_IS_BIT_SET(hcan->Instance->TSR, CAN_TSR_TME0))
 800050a:	0152      	lsls	r2, r2, #5
 800050c:	d406      	bmi.n	800051c <HAL_CAN_Transmit+0x54>
    }
    else if (HAL_IS_BIT_SET(hcan->Instance->TSR, CAN_TSR_TME1))
 800050e:	2280      	movs	r2, #128	; 0x80
 8000510:	6899      	ldr	r1, [r3, #8]
 8000512:	0512      	lsls	r2, r2, #20
 8000514:	400a      	ands	r2, r1
    {
      transmitmailbox = CAN_TXMAILBOX_1;
    }
    else
    {
      transmitmailbox = CAN_TXMAILBOX_2;
 8000516:	4251      	negs	r1, r2
 8000518:	4151      	adcs	r1, r2
 800051a:	3101      	adds	r1, #1
    }

    /* Set up the Id */
    hcan->Instance->sTxMailBox[transmitmailbox].TIR &= CAN_TI0R_TXRQ;
 800051c:	25c0      	movs	r5, #192	; 0xc0
 800051e:	2001      	movs	r0, #1
 8000520:	010a      	lsls	r2, r1, #4
 8000522:	006d      	lsls	r5, r5, #1
 8000524:	4690      	mov	r8, r2
 8000526:	189a      	adds	r2, r3, r2
 8000528:	5956      	ldr	r6, [r2, r5]
 800052a:	4030      	ands	r0, r6
 800052c:	5150      	str	r0, [r2, r5]
    if (hcan->pTxMsg->IDE == CAN_ID_STD)
 800052e:	6b20      	ldr	r0, [r4, #48]	; 0x30
 8000530:	6887      	ldr	r7, [r0, #8]
 8000532:	2f00      	cmp	r7, #0
 8000534:	d143      	bne.n	80005be <HAL_CAN_Transmit+0xf6>
    {
      assert_param(IS_CAN_STDID(hcan->pTxMsg->StdId));  
      hcan->Instance->sTxMailBox[transmitmailbox].TIR |= ((hcan->pTxMsg->StdId << CAN_TI0R_STID_Pos) | \
 8000536:	6801      	ldr	r1, [r0, #0]
 8000538:	5957      	ldr	r7, [r2, r5]
 800053a:	054e      	lsls	r6, r1, #21
 800053c:	68c1      	ldr	r1, [r0, #12]
 800053e:	430e      	orrs	r6, r1
 8000540:	433e      	orrs	r6, r7
 8000542:	5156      	str	r6, [r2, r5]
                                                           hcan->pTxMsg->IDE | \
                                                           hcan->pTxMsg->RTR);
    }
    
    /* Set up the DLC */
    hcan->pTxMsg->DLC &= (uint8_t)0x0000000FU;
 8000544:	250f      	movs	r5, #15
 8000546:	46ac      	mov	ip, r5
 8000548:	4666      	mov	r6, ip
    hcan->Instance->sTxMailBox[transmitmailbox].TDTR &= 0xFFFFFFF0U;
 800054a:	4661      	mov	r1, ip
    hcan->pTxMsg->DLC &= (uint8_t)0x0000000FU;
 800054c:	6905      	ldr	r5, [r0, #16]
    hcan->Instance->sTxMailBox[transmitmailbox].TDTR |= hcan->pTxMsg->DLC;

    /* Set up the data field */
    WRITE_REG(hcan->Instance->sTxMailBox[transmitmailbox].TDLR, ((uint32_t)hcan->pTxMsg->Data[3] << CAN_TDL0R_DATA3_Pos) |
 800054e:	4443      	add	r3, r8
    hcan->pTxMsg->DLC &= (uint8_t)0x0000000FU;
 8000550:	4035      	ands	r5, r6
    hcan->Instance->sTxMailBox[transmitmailbox].TDTR &= 0xFFFFFFF0U;
 8000552:	3676      	adds	r6, #118	; 0x76
 8000554:	36ff      	adds	r6, #255	; 0xff
 8000556:	5997      	ldr	r7, [r2, r6]
    hcan->pTxMsg->DLC &= (uint8_t)0x0000000FU;
 8000558:	6105      	str	r5, [r0, #16]
    hcan->Instance->sTxMailBox[transmitmailbox].TDTR &= 0xFFFFFFF0U;
 800055a:	438f      	bics	r7, r1
    WRITE_REG(hcan->Instance->sTxMailBox[transmitmailbox].TDLR, ((uint32_t)hcan->pTxMsg->Data[3] << CAN_TDL0R_DATA3_Pos) |
 800055c:	0019      	movs	r1, r3
    hcan->Instance->sTxMailBox[transmitmailbox].TDTR &= 0xFFFFFFF0U;
 800055e:	5197      	str	r7, [r2, r6]
    hcan->Instance->sTxMailBox[transmitmailbox].TDTR |= hcan->pTxMsg->DLC;
 8000560:	5997      	ldr	r7, [r2, r6]
    WRITE_REG(hcan->Instance->sTxMailBox[transmitmailbox].TDLR, ((uint32_t)hcan->pTxMsg->Data[3] << CAN_TDL0R_DATA3_Pos) |
 8000562:	3189      	adds	r1, #137	; 0x89
    hcan->Instance->sTxMailBox[transmitmailbox].TDTR |= hcan->pTxMsg->DLC;
 8000564:	433d      	orrs	r5, r7
 8000566:	5195      	str	r5, [r2, r6]
    WRITE_REG(hcan->Instance->sTxMailBox[transmitmailbox].TDLR, ((uint32_t)hcan->pTxMsg->Data[3] << CAN_TDL0R_DATA3_Pos) |
 8000568:	6945      	ldr	r5, [r0, #20]
 800056a:	31ff      	adds	r1, #255	; 0xff
 800056c:	600d      	str	r5, [r1, #0]
                                                                ((uint32_t)hcan->pTxMsg->Data[2] << CAN_TDL0R_DATA2_Pos) |
                                                                ((uint32_t)hcan->pTxMsg->Data[1] << CAN_TDL0R_DATA1_Pos) |
                                                                ((uint32_t)hcan->pTxMsg->Data[0] << CAN_TDL0R_DATA0_Pos));
    WRITE_REG(hcan->Instance->sTxMailBox[transmitmailbox].TDHR, ((uint32_t)hcan->pTxMsg->Data[7] << CAN_TDL0R_DATA3_Pos) |
 800056e:	6981      	ldr	r1, [r0, #24]
 8000570:	338d      	adds	r3, #141	; 0x8d
 8000572:	33ff      	adds	r3, #255	; 0xff
 8000574:	6019      	str	r1, [r3, #0]
                                                                ((uint32_t)hcan->pTxMsg->Data[6] << CAN_TDL0R_DATA2_Pos) |
                                                                ((uint32_t)hcan->pTxMsg->Data[5] << CAN_TDL0R_DATA1_Pos) |
                                                                ((uint32_t)hcan->pTxMsg->Data[4] << CAN_TDL0R_DATA0_Pos));

    /* Request transmission */
    SET_BIT(hcan->Instance->sTxMailBox[transmitmailbox].TIR, CAN_TI0R_TXRQ);
 8000576:	21c0      	movs	r1, #192	; 0xc0
 8000578:	2501      	movs	r5, #1
 800057a:	0049      	lsls	r1, r1, #1
 800057c:	5853      	ldr	r3, [r2, r1]
 800057e:	432b      	orrs	r3, r5
 8000580:	5053      	str	r3, [r2, r1]
  
    /* Get tick */
    tickstart = HAL_GetTick();   
 8000582:	f7ff fe77 	bl	8000274 <HAL_GetTick>
//        }
//      }
//    }

    /* Change CAN state */
    switch(hcan->State)
 8000586:	223d      	movs	r2, #61	; 0x3d
 8000588:	5ca3      	ldrb	r3, [r4, r2]
 800058a:	b2db      	uxtb	r3, r3
 800058c:	2b52      	cmp	r3, #82	; 0x52
 800058e:	d021      	beq.n	80005d4 <HAL_CAN_Transmit+0x10c>
 8000590:	2b72      	cmp	r3, #114	; 0x72
 8000592:	d02b      	beq.n	80005ec <HAL_CAN_Transmit+0x124>
 8000594:	2b42      	cmp	r3, #66	; 0x42
 8000596:	d026      	beq.n	80005e6 <HAL_CAN_Transmit+0x11e>
          break;
      case(HAL_CAN_STATE_BUSY_TX_RX0_RX1):
          hcan->State = HAL_CAN_STATE_BUSY_RX0_RX1;
          break;
      default: /* HAL_CAN_STATE_BUSY_TX */
          hcan->State = HAL_CAN_STATE_READY;
 8000598:	54a5      	strb	r5, [r4, r2]
          break;
    }

    /* Process unlocked */
    __HAL_UNLOCK(hcan);
 800059a:	2200      	movs	r2, #0
 800059c:	233c      	movs	r3, #60	; 0x3c
    
    /* Return function status */
    return HAL_OK;
 800059e:	2000      	movs	r0, #0
    __HAL_UNLOCK(hcan);
 80005a0:	54e2      	strb	r2, [r4, r3]
    hcan->State = HAL_CAN_STATE_ERROR; 

    /* Return function status */
    return HAL_ERROR;
  }
}
 80005a2:	bc04      	pop	{r2}
 80005a4:	4690      	mov	r8, r2
 80005a6:	bdf0      	pop	{r4, r5, r6, r7, pc}
     ((hcan->Instance->TSR&CAN_TSR_TME2) == CAN_TSR_TME2))
 80005a8:	689a      	ldr	r2, [r3, #8]
     ((hcan->Instance->TSR&CAN_TSR_TME1) == CAN_TSR_TME1) || \
 80005aa:	00d2      	lsls	r2, r2, #3
 80005ac:	d497      	bmi.n	80004de <HAL_CAN_Transmit+0x16>
    hcan->State = HAL_CAN_STATE_ERROR; 
 80005ae:	2204      	movs	r2, #4
 80005b0:	233d      	movs	r3, #61	; 0x3d
 80005b2:	54c2      	strb	r2, [r0, r3]
    return HAL_ERROR;
 80005b4:	2001      	movs	r0, #1
 80005b6:	e7f4      	b.n	80005a2 <HAL_CAN_Transmit+0xda>
          hcan->State = HAL_CAN_STATE_BUSY_TX_RX0;
 80005b8:	3220      	adds	r2, #32
 80005ba:	5462      	strb	r2, [r4, r1]
          break;
 80005bc:	e7a3      	b.n	8000506 <HAL_CAN_Transmit+0x3e>
      hcan->Instance->sTxMailBox[transmitmailbox].TIR |= ((hcan->pTxMsg->ExtId << CAN_TI0R_EXID_Pos) | \
 80005be:	5951      	ldr	r1, [r2, r5]
 80005c0:	468c      	mov	ip, r1
 80005c2:	6841      	ldr	r1, [r0, #4]
 80005c4:	00ce      	lsls	r6, r1, #3
                                                           hcan->pTxMsg->IDE | \
 80005c6:	68c1      	ldr	r1, [r0, #12]
 80005c8:	430f      	orrs	r7, r1
      hcan->Instance->sTxMailBox[transmitmailbox].TIR |= ((hcan->pTxMsg->ExtId << CAN_TI0R_EXID_Pos) | \
 80005ca:	4661      	mov	r1, ip
                                                           hcan->pTxMsg->IDE | \
 80005cc:	433e      	orrs	r6, r7
      hcan->Instance->sTxMailBox[transmitmailbox].TIR |= ((hcan->pTxMsg->ExtId << CAN_TI0R_EXID_Pos) | \
 80005ce:	430e      	orrs	r6, r1
 80005d0:	5156      	str	r6, [r2, r5]
 80005d2:	e7b7      	b.n	8000544 <HAL_CAN_Transmit+0x7c>
          hcan->State = HAL_CAN_STATE_BUSY_RX1;
 80005d4:	2332      	movs	r3, #50	; 0x32
 80005d6:	54a3      	strb	r3, [r4, r2]
          break;
 80005d8:	e7df      	b.n	800059a <HAL_CAN_Transmit+0xd2>
          hcan->State = HAL_CAN_STATE_BUSY_TX_RX1;
 80005da:	2252      	movs	r2, #82	; 0x52
 80005dc:	5462      	strb	r2, [r4, r1]
          break;
 80005de:	e792      	b.n	8000506 <HAL_CAN_Transmit+0x3e>
          hcan->State = HAL_CAN_STATE_BUSY_TX_RX0_RX1;
 80005e0:	2272      	movs	r2, #114	; 0x72
 80005e2:	5462      	strb	r2, [r4, r1]
          break;
 80005e4:	e78f      	b.n	8000506 <HAL_CAN_Transmit+0x3e>
          hcan->State = HAL_CAN_STATE_BUSY_RX0;
 80005e6:	3b20      	subs	r3, #32
 80005e8:	54a3      	strb	r3, [r4, r2]
          break;
 80005ea:	e7d6      	b.n	800059a <HAL_CAN_Transmit+0xd2>
          hcan->State = HAL_CAN_STATE_BUSY_RX0_RX1;
 80005ec:	2362      	movs	r3, #98	; 0x62
 80005ee:	54a3      	strb	r3, [r4, r2]
          break;
 80005f0:	e7d3      	b.n	800059a <HAL_CAN_Transmit+0xd2>
 80005f2:	46c0      	nop			; (mov r8, r8)

080005f4 <HAL_CAN_Receive_IT>:
{
  /* Check the parameters */
  assert_param(IS_CAN_FIFO(FIFONumber));

  /* Process locked */
  __HAL_LOCK(hcan);
 80005f4:	223c      	movs	r2, #60	; 0x3c
{
 80005f6:	b510      	push	{r4, lr}
  __HAL_LOCK(hcan);
 80005f8:	5c84      	ldrb	r4, [r0, r2]
{
 80005fa:	0003      	movs	r3, r0
  __HAL_LOCK(hcan);
 80005fc:	2002      	movs	r0, #2
 80005fe:	2c01      	cmp	r4, #1
 8000600:	d028      	beq.n	8000654 <HAL_CAN_Receive_IT+0x60>
 8000602:	3801      	subs	r0, #1
 8000604:	5498      	strb	r0, [r3, r2]

  /* Check if CAN state is not busy for RX FIFO0 */
  if ((FIFONumber == CAN_FIFO0) && ((hcan->State == HAL_CAN_STATE_BUSY_RX0) ||        \
 8000606:	2900      	cmp	r1, #0
 8000608:	d125      	bne.n	8000656 <HAL_CAN_Receive_IT+0x62>
 800060a:	3201      	adds	r2, #1
 800060c:	5c99      	ldrb	r1, [r3, r2]
 800060e:	2922      	cmp	r1, #34	; 0x22
 8000610:	d04a      	beq.n	80006a8 <HAL_CAN_Receive_IT+0xb4>
                                    (hcan->State == HAL_CAN_STATE_BUSY_TX_RX0) ||      \
 8000612:	5c99      	ldrb	r1, [r3, r2]
  if ((FIFONumber == CAN_FIFO0) && ((hcan->State == HAL_CAN_STATE_BUSY_RX0) ||        \
 8000614:	2942      	cmp	r1, #66	; 0x42
 8000616:	d047      	beq.n	80006a8 <HAL_CAN_Receive_IT+0xb4>
                                    (hcan->State == HAL_CAN_STATE_BUSY_RX0_RX1) ||     \
 8000618:	5c99      	ldrb	r1, [r3, r2]
                                    (hcan->State == HAL_CAN_STATE_BUSY_TX_RX0) ||      \
 800061a:	2962      	cmp	r1, #98	; 0x62
 800061c:	d044      	beq.n	80006a8 <HAL_CAN_Receive_IT+0xb4>
                                    (hcan->State == HAL_CAN_STATE_BUSY_TX_RX0_RX1)))
 800061e:	5c99      	ldrb	r1, [r3, r2]
                                    (hcan->State == HAL_CAN_STATE_BUSY_RX0_RX1) ||     \
 8000620:	2972      	cmp	r1, #114	; 0x72
 8000622:	d041      	beq.n	80006a8 <HAL_CAN_Receive_IT+0xb4>
  }

  /* Change CAN state */
  if (FIFONumber == CAN_FIFO0)
  {
    switch(hcan->State)
 8000624:	5c99      	ldrb	r1, [r3, r2]
 8000626:	b2c9      	uxtb	r1, r1
 8000628:	2932      	cmp	r1, #50	; 0x32
 800062a:	d051      	beq.n	80006d0 <HAL_CAN_Receive_IT+0xdc>
 800062c:	2952      	cmp	r1, #82	; 0x52
 800062e:	d04c      	beq.n	80006ca <HAL_CAN_Receive_IT+0xd6>
 8000630:	2912      	cmp	r1, #18
 8000632:	d047      	beq.n	80006c4 <HAL_CAN_Receive_IT+0xd0>
        break;
      case(HAL_CAN_STATE_BUSY_TX_RX1):
        hcan->State = HAL_CAN_STATE_BUSY_TX_RX0_RX1;
        break;
      default: /* HAL_CAN_STATE_READY */
        hcan->State = HAL_CAN_STATE_BUSY_RX0;
 8000634:	2122      	movs	r1, #34	; 0x22
 8000636:	5499      	strb	r1, [r3, r2]
        break;
    }
  }

  /* Set CAN error code to none */
  hcan->ErrorCode = HAL_CAN_ERROR_NONE;
 8000638:	2000      	movs	r0, #0
  /*  - Enable Error warning Interrupt */
  /*  - Enable Error passive Interrupt */
  /*  - Enable Bus-off Interrupt */
  /*  - Enable Last error code Interrupt */
  /*  - Enable Error Interrupt */
  __HAL_CAN_ENABLE_IT(hcan, CAN_IT_EWG |
 800063a:	218f      	movs	r1, #143	; 0x8f
 800063c:	681a      	ldr	r2, [r3, #0]
  hcan->ErrorCode = HAL_CAN_ERROR_NONE;
 800063e:	6418      	str	r0, [r3, #64]	; 0x40
  __HAL_CAN_ENABLE_IT(hcan, CAN_IT_EWG |
 8000640:	6954      	ldr	r4, [r2, #20]
 8000642:	0209      	lsls	r1, r1, #8
 8000644:	4321      	orrs	r1, r4
 8000646:	6151      	str	r1, [r2, #20]
                            CAN_IT_BOF |
                            CAN_IT_LEC |
                            CAN_IT_ERR);

  /* Process unlocked */
  __HAL_UNLOCK(hcan);
 8000648:	213c      	movs	r1, #60	; 0x3c
 800064a:	5458      	strb	r0, [r3, r1]

  if(FIFONumber == CAN_FIFO0)
  {
    /* Enable FIFO 0 overrun and message pending Interrupt */
    __HAL_CAN_ENABLE_IT(hcan, CAN_IT_FOV0 | CAN_IT_FMP0);
 800064c:	6953      	ldr	r3, [r2, #20]
 800064e:	3932      	subs	r1, #50	; 0x32
 8000650:	430b      	orrs	r3, r1
 8000652:	6153      	str	r3, [r2, #20]
    __HAL_CAN_ENABLE_IT(hcan, CAN_IT_FOV1 | CAN_IT_FMP1);
  }
  
  /* Return function status */
  return HAL_OK;
}
 8000654:	bd10      	pop	{r4, pc}
  if ((FIFONumber == CAN_FIFO1) && ((hcan->State == HAL_CAN_STATE_BUSY_RX1) ||        \
 8000656:	2901      	cmp	r1, #1
 8000658:	d019      	beq.n	800068e <HAL_CAN_Receive_IT+0x9a>
    switch(hcan->State)
 800065a:	213d      	movs	r1, #61	; 0x3d
 800065c:	5c5a      	ldrb	r2, [r3, r1]
 800065e:	b2d2      	uxtb	r2, r2
 8000660:	2a22      	cmp	r2, #34	; 0x22
 8000662:	d02c      	beq.n	80006be <HAL_CAN_Receive_IT+0xca>
 8000664:	2a42      	cmp	r2, #66	; 0x42
 8000666:	d027      	beq.n	80006b8 <HAL_CAN_Receive_IT+0xc4>
 8000668:	2a12      	cmp	r2, #18
 800066a:	d022      	beq.n	80006b2 <HAL_CAN_Receive_IT+0xbe>
        hcan->State = HAL_CAN_STATE_BUSY_RX1;
 800066c:	2232      	movs	r2, #50	; 0x32
 800066e:	545a      	strb	r2, [r3, r1]
  hcan->ErrorCode = HAL_CAN_ERROR_NONE;
 8000670:	2000      	movs	r0, #0
  __HAL_CAN_ENABLE_IT(hcan, CAN_IT_EWG |
 8000672:	218f      	movs	r1, #143	; 0x8f
 8000674:	681a      	ldr	r2, [r3, #0]
  hcan->ErrorCode = HAL_CAN_ERROR_NONE;
 8000676:	6418      	str	r0, [r3, #64]	; 0x40
  __HAL_CAN_ENABLE_IT(hcan, CAN_IT_EWG |
 8000678:	6954      	ldr	r4, [r2, #20]
 800067a:	0209      	lsls	r1, r1, #8
 800067c:	4321      	orrs	r1, r4
 800067e:	6151      	str	r1, [r2, #20]
  __HAL_UNLOCK(hcan);
 8000680:	213c      	movs	r1, #60	; 0x3c
 8000682:	5458      	strb	r0, [r3, r1]
    __HAL_CAN_ENABLE_IT(hcan, CAN_IT_FOV1 | CAN_IT_FMP1);
 8000684:	6953      	ldr	r3, [r2, #20]
 8000686:	3114      	adds	r1, #20
 8000688:	430b      	orrs	r3, r1
 800068a:	6153      	str	r3, [r2, #20]
 800068c:	e7e2      	b.n	8000654 <HAL_CAN_Receive_IT+0x60>
  if ((FIFONumber == CAN_FIFO1) && ((hcan->State == HAL_CAN_STATE_BUSY_RX1) ||        \
 800068e:	223d      	movs	r2, #61	; 0x3d
 8000690:	5c99      	ldrb	r1, [r3, r2]
 8000692:	2932      	cmp	r1, #50	; 0x32
 8000694:	d008      	beq.n	80006a8 <HAL_CAN_Receive_IT+0xb4>
                                    (hcan->State == HAL_CAN_STATE_BUSY_TX_RX1) ||      \
 8000696:	5c99      	ldrb	r1, [r3, r2]
  if ((FIFONumber == CAN_FIFO1) && ((hcan->State == HAL_CAN_STATE_BUSY_RX1) ||        \
 8000698:	2952      	cmp	r1, #82	; 0x52
 800069a:	d005      	beq.n	80006a8 <HAL_CAN_Receive_IT+0xb4>
                                    (hcan->State == HAL_CAN_STATE_BUSY_RX0_RX1) ||     \
 800069c:	5c99      	ldrb	r1, [r3, r2]
                                    (hcan->State == HAL_CAN_STATE_BUSY_TX_RX1) ||      \
 800069e:	2962      	cmp	r1, #98	; 0x62
 80006a0:	d002      	beq.n	80006a8 <HAL_CAN_Receive_IT+0xb4>
                                    (hcan->State == HAL_CAN_STATE_BUSY_TX_RX0_RX1)))
 80006a2:	5c9a      	ldrb	r2, [r3, r2]
                                    (hcan->State == HAL_CAN_STATE_BUSY_RX0_RX1) ||     \
 80006a4:	2a72      	cmp	r2, #114	; 0x72
 80006a6:	d1d8      	bne.n	800065a <HAL_CAN_Receive_IT+0x66>
    __HAL_UNLOCK(hcan);
 80006a8:	2100      	movs	r1, #0
 80006aa:	223c      	movs	r2, #60	; 0x3c
    return HAL_BUSY;
 80006ac:	2002      	movs	r0, #2
    __HAL_UNLOCK(hcan);
 80006ae:	5499      	strb	r1, [r3, r2]
    return HAL_BUSY;
 80006b0:	e7d0      	b.n	8000654 <HAL_CAN_Receive_IT+0x60>
        hcan->State = HAL_CAN_STATE_BUSY_TX_RX1;
 80006b2:	3240      	adds	r2, #64	; 0x40
 80006b4:	545a      	strb	r2, [r3, r1]
        break;
 80006b6:	e7db      	b.n	8000670 <HAL_CAN_Receive_IT+0x7c>
        hcan->State = HAL_CAN_STATE_BUSY_TX_RX0_RX1;
 80006b8:	2272      	movs	r2, #114	; 0x72
 80006ba:	545a      	strb	r2, [r3, r1]
        break;
 80006bc:	e7d8      	b.n	8000670 <HAL_CAN_Receive_IT+0x7c>
        hcan->State = HAL_CAN_STATE_BUSY_RX0_RX1;
 80006be:	2262      	movs	r2, #98	; 0x62
 80006c0:	545a      	strb	r2, [r3, r1]
        break;
 80006c2:	e7d5      	b.n	8000670 <HAL_CAN_Receive_IT+0x7c>
        hcan->State = HAL_CAN_STATE_BUSY_TX_RX0;
 80006c4:	3130      	adds	r1, #48	; 0x30
 80006c6:	5499      	strb	r1, [r3, r2]
        break;
 80006c8:	e7b6      	b.n	8000638 <HAL_CAN_Receive_IT+0x44>
        hcan->State = HAL_CAN_STATE_BUSY_TX_RX0_RX1;
 80006ca:	2172      	movs	r1, #114	; 0x72
 80006cc:	5499      	strb	r1, [r3, r2]
        break;
 80006ce:	e7b3      	b.n	8000638 <HAL_CAN_Receive_IT+0x44>
        hcan->State = HAL_CAN_STATE_BUSY_RX0_RX1;
 80006d0:	2162      	movs	r1, #98	; 0x62
 80006d2:	5499      	strb	r1, [r3, r2]
        break;
 80006d4:	e7b0      	b.n	8000638 <HAL_CAN_Receive_IT+0x44>
 80006d6:	46c0      	nop			; (mov r8, r8)

080006d8 <HAL_CAN_TxCpltCallback>:
 80006d8:	4770      	bx	lr
 80006da:	46c0      	nop			; (mov r8, r8)

080006dc <HAL_CAN_IRQHandler>:
void HAL_CAN_IRQHandler(CAN_HandleTypeDef* hcan)
{
  uint32_t errorcode = HAL_CAN_ERROR_NONE;

  /* Check Overrun flag for FIFO0 */
  if((__HAL_CAN_GET_FLAG(hcan, CAN_FLAG_FOV0))    &&
 80006dc:	2210      	movs	r2, #16
{
 80006de:	b5f8      	push	{r3, r4, r5, r6, r7, lr}
  if((__HAL_CAN_GET_FLAG(hcan, CAN_FLAG_FOV0))    &&
 80006e0:	6803      	ldr	r3, [r0, #0]
{
 80006e2:	0004      	movs	r4, r0
  if((__HAL_CAN_GET_FLAG(hcan, CAN_FLAG_FOV0))    &&
 80006e4:	68d9      	ldr	r1, [r3, #12]
 80006e6:	420a      	tst	r2, r1
 80006e8:	d003      	beq.n	80006f2 <HAL_CAN_IRQHandler+0x16>
     (__HAL_CAN_GET_IT_SOURCE(hcan, CAN_IT_FOV0)))
 80006ea:	6959      	ldr	r1, [r3, #20]
  if((__HAL_CAN_GET_FLAG(hcan, CAN_FLAG_FOV0))    &&
 80006ec:	0709      	lsls	r1, r1, #28
 80006ee:	d500      	bpl.n	80006f2 <HAL_CAN_IRQHandler+0x16>
 80006f0:	e082      	b.n	80007f8 <HAL_CAN_IRQHandler+0x11c>
 80006f2:	2080      	movs	r0, #128	; 0x80
  uint32_t errorcode = HAL_CAN_ERROR_NONE;
 80006f4:	2500      	movs	r5, #0
 80006f6:	00c0      	lsls	r0, r0, #3
    /* Clear FIFO0 Overrun Flag */
    __HAL_CAN_CLEAR_FLAG(hcan, CAN_FLAG_FOV0);
  }

  /* Check Overrun flag for FIFO1 */
  if((__HAL_CAN_GET_FLAG(hcan, CAN_FLAG_FOV1))    &&
 80006f8:	2210      	movs	r2, #16
 80006fa:	6919      	ldr	r1, [r3, #16]
 80006fc:	420a      	tst	r2, r1
 80006fe:	d003      	beq.n	8000708 <HAL_CAN_IRQHandler+0x2c>
     (__HAL_CAN_GET_IT_SOURCE(hcan, CAN_IT_FOV1)))
 8000700:	6959      	ldr	r1, [r3, #20]
  if((__HAL_CAN_GET_FLAG(hcan, CAN_FLAG_FOV1))    &&
 8000702:	0649      	lsls	r1, r1, #25
 8000704:	d500      	bpl.n	8000708 <HAL_CAN_IRQHandler+0x2c>
 8000706:	e074      	b.n	80007f2 <HAL_CAN_IRQHandler+0x116>
    /* Clear FIFO1 Overrun Flag */
    __HAL_CAN_CLEAR_FLAG(hcan, CAN_FLAG_FOV1);
  }

  /* Check End of transmission flag */
  if(__HAL_CAN_GET_IT_SOURCE(hcan, CAN_IT_TME))
 8000708:	695a      	ldr	r2, [r3, #20]
 800070a:	07d2      	lsls	r2, r2, #31
 800070c:	d511      	bpl.n	8000732 <HAL_CAN_IRQHandler+0x56>
  {
    /* Check Transmit request completion status */
    if((__HAL_CAN_TRANSMIT_STATUS(hcan, CAN_TXMAILBOX_0)) ||
 800070e:	689a      	ldr	r2, [r3, #8]
 8000710:	49c3      	ldr	r1, [pc, #780]	; (8000a20 <HAL_CAN_IRQHandler+0x344>)
 8000712:	400a      	ands	r2, r1
 8000714:	428a      	cmp	r2, r1
 8000716:	d100      	bne.n	800071a <HAL_CAN_IRQHandler+0x3e>
 8000718:	e082      	b.n	8000820 <HAL_CAN_IRQHandler+0x144>
       (__HAL_CAN_TRANSMIT_STATUS(hcan, CAN_TXMAILBOX_1)) ||
 800071a:	689a      	ldr	r2, [r3, #8]
 800071c:	49c1      	ldr	r1, [pc, #772]	; (8000a24 <HAL_CAN_IRQHandler+0x348>)
 800071e:	400a      	ands	r2, r1
    if((__HAL_CAN_TRANSMIT_STATUS(hcan, CAN_TXMAILBOX_0)) ||
 8000720:	428a      	cmp	r2, r1
 8000722:	d100      	bne.n	8000726 <HAL_CAN_IRQHandler+0x4a>
 8000724:	e07c      	b.n	8000820 <HAL_CAN_IRQHandler+0x144>
       (__HAL_CAN_TRANSMIT_STATUS(hcan, CAN_TXMAILBOX_2)))
 8000726:	689a      	ldr	r2, [r3, #8]
 8000728:	49bf      	ldr	r1, [pc, #764]	; (8000a28 <HAL_CAN_IRQHandler+0x34c>)
 800072a:	400a      	ands	r2, r1
       (__HAL_CAN_TRANSMIT_STATUS(hcan, CAN_TXMAILBOX_1)) ||
 800072c:	428a      	cmp	r2, r1
 800072e:	d100      	bne.n	8000732 <HAL_CAN_IRQHandler+0x56>
 8000730:	e076      	b.n	8000820 <HAL_CAN_IRQHandler+0x144>
                                   CAN_FLAG_TXOK0 | CAN_FLAG_TXOK1 | CAN_FLAG_TXOK2);
    }
  }
  
  /* Check End of reception flag for FIFO0 */
  if((__HAL_CAN_GET_IT_SOURCE(hcan, CAN_IT_FMP0)) &&
 8000732:	695a      	ldr	r2, [r3, #20]
 8000734:	0792      	lsls	r2, r2, #30
 8000736:	d503      	bpl.n	8000740 <HAL_CAN_IRQHandler+0x64>
     (__HAL_CAN_MSG_PENDING(hcan, CAN_FIFO0) != 0U))
 8000738:	68da      	ldr	r2, [r3, #12]
  if((__HAL_CAN_GET_IT_SOURCE(hcan, CAN_IT_FMP0)) &&
 800073a:	0792      	lsls	r2, r2, #30
 800073c:	d000      	beq.n	8000740 <HAL_CAN_IRQHandler+0x64>
 800073e:	e09c      	b.n	800087a <HAL_CAN_IRQHandler+0x19e>
    /* Call receive function */
    CAN_Receive_IT(hcan, CAN_FIFO0);
  }
  
  /* Check End of reception flag for FIFO1 */
  if((__HAL_CAN_GET_IT_SOURCE(hcan, CAN_IT_FMP1)) &&
 8000740:	695a      	ldr	r2, [r3, #20]
 8000742:	06d2      	lsls	r2, r2, #27
 8000744:	d503      	bpl.n	800074e <HAL_CAN_IRQHandler+0x72>
     (__HAL_CAN_MSG_PENDING(hcan, CAN_FIFO1) != 0U))
 8000746:	691a      	ldr	r2, [r3, #16]
  if((__HAL_CAN_GET_IT_SOURCE(hcan, CAN_IT_FMP1)) &&
 8000748:	0792      	lsls	r2, r2, #30
 800074a:	d000      	beq.n	800074e <HAL_CAN_IRQHandler+0x72>
 800074c:	e0ef      	b.n	800092e <HAL_CAN_IRQHandler+0x252>
    /* Call receive function */
    CAN_Receive_IT(hcan, CAN_FIFO1);
  }
  
  /* Set error code in handle */
  hcan->ErrorCode |= errorcode;
 800074e:	6c22      	ldr	r2, [r4, #64]	; 0x40
 8000750:	4315      	orrs	r5, r2

  /* Check Error Warning Flag */
  if((__HAL_CAN_GET_FLAG(hcan, CAN_FLAG_EWG))    &&
 8000752:	2201      	movs	r2, #1
  hcan->ErrorCode |= errorcode;
 8000754:	6425      	str	r5, [r4, #64]	; 0x40
  if((__HAL_CAN_GET_FLAG(hcan, CAN_FLAG_EWG))    &&
 8000756:	6999      	ldr	r1, [r3, #24]
 8000758:	420a      	tst	r2, r1
 800075a:	d002      	beq.n	8000762 <HAL_CAN_IRQHandler+0x86>
     (__HAL_CAN_GET_IT_SOURCE(hcan, CAN_IT_EWG)) &&
 800075c:	6959      	ldr	r1, [r3, #20]
  if((__HAL_CAN_GET_FLAG(hcan, CAN_FLAG_EWG))    &&
 800075e:	05c9      	lsls	r1, r1, #23
 8000760:	d457      	bmi.n	8000812 <HAL_CAN_IRQHandler+0x136>
    hcan->ErrorCode |= HAL_CAN_ERROR_EWG;
    /* No need for clear of Error Warning Flag as read-only */
  }
  
  /* Check Error Passive Flag */
  if((__HAL_CAN_GET_FLAG(hcan, CAN_FLAG_EPV))    &&
 8000762:	2202      	movs	r2, #2
 8000764:	6999      	ldr	r1, [r3, #24]
 8000766:	420a      	tst	r2, r1
 8000768:	d002      	beq.n	8000770 <HAL_CAN_IRQHandler+0x94>
     (__HAL_CAN_GET_IT_SOURCE(hcan, CAN_IT_EPV)) &&
 800076a:	6959      	ldr	r1, [r3, #20]
  if((__HAL_CAN_GET_FLAG(hcan, CAN_FLAG_EPV))    &&
 800076c:	0589      	lsls	r1, r1, #22
 800076e:	d449      	bmi.n	8000804 <HAL_CAN_IRQHandler+0x128>
    hcan->ErrorCode |= HAL_CAN_ERROR_EPV;
    /* No need for clear of Error Passive Flag as read-only */ 
  }
  
  /* Check Bus-Off Flag */
  if((__HAL_CAN_GET_FLAG(hcan, CAN_FLAG_BOF))    &&
 8000770:	2204      	movs	r2, #4
 8000772:	6999      	ldr	r1, [r3, #24]
 8000774:	420a      	tst	r2, r1
 8000776:	d002      	beq.n	800077e <HAL_CAN_IRQHandler+0xa2>
     (__HAL_CAN_GET_IT_SOURCE(hcan, CAN_IT_BOF)) &&
 8000778:	6959      	ldr	r1, [r3, #20]
  if((__HAL_CAN_GET_FLAG(hcan, CAN_FLAG_BOF))    &&
 800077a:	0549      	lsls	r1, r1, #21
 800077c:	d432      	bmi.n	80007e4 <HAL_CAN_IRQHandler+0x108>
    hcan->ErrorCode |= HAL_CAN_ERROR_BOF;
    /* No need for clear of Bus-Off Flag as read-only */
  }
  
  /* Check Last error code Flag */
  if((!HAL_IS_BIT_CLR(hcan->Instance->ESR, CAN_ESR_LEC)) &&
 800077e:	2270      	movs	r2, #112	; 0x70
 8000780:	6999      	ldr	r1, [r3, #24]
 8000782:	420a      	tst	r2, r1
 8000784:	d002      	beq.n	800078c <HAL_CAN_IRQHandler+0xb0>
     (__HAL_CAN_GET_IT_SOURCE(hcan, CAN_IT_LEC))         &&
 8000786:	6959      	ldr	r1, [r3, #20]
  if((!HAL_IS_BIT_CLR(hcan->Instance->ESR, CAN_ESR_LEC)) &&
 8000788:	0509      	lsls	r1, r1, #20
 800078a:	d411      	bmi.n	80007b0 <HAL_CAN_IRQHandler+0xd4>
    /* Clear Last error code Flag */ 
    CLEAR_BIT(hcan->Instance->ESR, CAN_ESR_LEC);
  }

  /* Call the Error call Back in case of Errors */
  if(hcan->ErrorCode != HAL_CAN_ERROR_NONE)
 800078c:	6c22      	ldr	r2, [r4, #64]	; 0x40
 800078e:	2a00      	cmp	r2, #0
 8000790:	d00d      	beq.n	80007ae <HAL_CAN_IRQHandler+0xd2>
  {
    /* Clear ERRI Flag */ 
    SET_BIT(hcan->Instance->MSR, CAN_MSR_ERRI);
 8000792:	2104      	movs	r1, #4
 8000794:	685a      	ldr	r2, [r3, #4]
                               CAN_IT_FMP1|
                               CAN_IT_FOV1|
                               CAN_IT_TME  );

    /* Call Error callback function */
    HAL_CAN_ErrorCallback(hcan);
 8000796:	0020      	movs	r0, r4
    SET_BIT(hcan->Instance->MSR, CAN_MSR_ERRI);
 8000798:	430a      	orrs	r2, r1
 800079a:	605a      	str	r2, [r3, #4]
    hcan->State = HAL_CAN_STATE_READY;
 800079c:	223d      	movs	r2, #61	; 0x3d
 800079e:	3903      	subs	r1, #3
 80007a0:	54a1      	strb	r1, [r4, r2]
    __HAL_CAN_DISABLE_IT(hcan, CAN_IT_EWG |
 80007a2:	695a      	ldr	r2, [r3, #20]
 80007a4:	49a1      	ldr	r1, [pc, #644]	; (8000a2c <HAL_CAN_IRQHandler+0x350>)
 80007a6:	400a      	ands	r2, r1
 80007a8:	615a      	str	r2, [r3, #20]
    HAL_CAN_ErrorCallback(hcan);
 80007aa:	f003 fa6f 	bl	8003c8c <HAL_CAN_ErrorCallback>
  }  
}
 80007ae:	bdf8      	pop	{r3, r4, r5, r6, r7, pc}
     (__HAL_CAN_GET_IT_SOURCE(hcan, CAN_IT_ERR)))
 80007b0:	6959      	ldr	r1, [r3, #20]
     (__HAL_CAN_GET_IT_SOURCE(hcan, CAN_IT_LEC))         &&
 80007b2:	0409      	lsls	r1, r1, #16
 80007b4:	d5ea      	bpl.n	800078c <HAL_CAN_IRQHandler+0xb0>
    switch(hcan->Instance->ESR & CAN_ESR_LEC)
 80007b6:	6999      	ldr	r1, [r3, #24]
 80007b8:	400a      	ands	r2, r1
 80007ba:	2a30      	cmp	r2, #48	; 0x30
 80007bc:	d100      	bne.n	80007c0 <HAL_CAN_IRQHandler+0xe4>
 80007be:	e164      	b.n	8000a8a <HAL_CAN_IRQHandler+0x3ae>
 80007c0:	d800      	bhi.n	80007c4 <HAL_CAN_IRQHandler+0xe8>
 80007c2:	e141      	b.n	8000a48 <HAL_CAN_IRQHandler+0x36c>
 80007c4:	2a50      	cmp	r2, #80	; 0x50
 80007c6:	d100      	bne.n	80007ca <HAL_CAN_IRQHandler+0xee>
 80007c8:	e139      	b.n	8000a3e <HAL_CAN_IRQHandler+0x362>
 80007ca:	2a60      	cmp	r2, #96	; 0x60
 80007cc:	d100      	bne.n	80007d0 <HAL_CAN_IRQHandler+0xf4>
 80007ce:	e156      	b.n	8000a7e <HAL_CAN_IRQHandler+0x3a2>
 80007d0:	2a40      	cmp	r2, #64	; 0x40
 80007d2:	d102      	bne.n	80007da <HAL_CAN_IRQHandler+0xfe>
          hcan->ErrorCode |= HAL_CAN_ERROR_BR;
 80007d4:	6c21      	ldr	r1, [r4, #64]	; 0x40
 80007d6:	430a      	orrs	r2, r1
 80007d8:	6422      	str	r2, [r4, #64]	; 0x40
    CLEAR_BIT(hcan->Instance->ESR, CAN_ESR_LEC);
 80007da:	2170      	movs	r1, #112	; 0x70
 80007dc:	699a      	ldr	r2, [r3, #24]
 80007de:	438a      	bics	r2, r1
 80007e0:	619a      	str	r2, [r3, #24]
 80007e2:	e7d3      	b.n	800078c <HAL_CAN_IRQHandler+0xb0>
     (__HAL_CAN_GET_IT_SOURCE(hcan, CAN_IT_ERR)))
 80007e4:	6959      	ldr	r1, [r3, #20]
     (__HAL_CAN_GET_IT_SOURCE(hcan, CAN_IT_BOF)) &&
 80007e6:	0409      	lsls	r1, r1, #16
 80007e8:	d5c9      	bpl.n	800077e <HAL_CAN_IRQHandler+0xa2>
    hcan->ErrorCode |= HAL_CAN_ERROR_BOF;
 80007ea:	6c21      	ldr	r1, [r4, #64]	; 0x40
 80007ec:	430a      	orrs	r2, r1
 80007ee:	6422      	str	r2, [r4, #64]	; 0x40
 80007f0:	e7c5      	b.n	800077e <HAL_CAN_IRQHandler+0xa2>
    __HAL_CAN_CLEAR_FLAG(hcan, CAN_FLAG_FOV1);
 80007f2:	611a      	str	r2, [r3, #16]
    errorcode |= HAL_CAN_ERROR_FOV1;
 80007f4:	0005      	movs	r5, r0
 80007f6:	e787      	b.n	8000708 <HAL_CAN_IRQHandler+0x2c>
    __HAL_CAN_CLEAR_FLAG(hcan, CAN_FLAG_FOV0);
 80007f8:	20c0      	movs	r0, #192	; 0xc0
    errorcode |= HAL_CAN_ERROR_FOV0;
 80007fa:	2580      	movs	r5, #128	; 0x80
    __HAL_CAN_CLEAR_FLAG(hcan, CAN_FLAG_FOV0);
 80007fc:	60da      	str	r2, [r3, #12]
 80007fe:	00c0      	lsls	r0, r0, #3
    errorcode |= HAL_CAN_ERROR_FOV0;
 8000800:	00ad      	lsls	r5, r5, #2
 8000802:	e779      	b.n	80006f8 <HAL_CAN_IRQHandler+0x1c>
     (__HAL_CAN_GET_IT_SOURCE(hcan, CAN_IT_ERR)))
 8000804:	6959      	ldr	r1, [r3, #20]
     (__HAL_CAN_GET_IT_SOURCE(hcan, CAN_IT_EPV)) &&
 8000806:	0409      	lsls	r1, r1, #16
 8000808:	d5b2      	bpl.n	8000770 <HAL_CAN_IRQHandler+0x94>
    hcan->ErrorCode |= HAL_CAN_ERROR_EPV;
 800080a:	6c21      	ldr	r1, [r4, #64]	; 0x40
 800080c:	430a      	orrs	r2, r1
 800080e:	6422      	str	r2, [r4, #64]	; 0x40
 8000810:	e7ae      	b.n	8000770 <HAL_CAN_IRQHandler+0x94>
     (__HAL_CAN_GET_IT_SOURCE(hcan, CAN_IT_ERR)))
 8000812:	6959      	ldr	r1, [r3, #20]
     (__HAL_CAN_GET_IT_SOURCE(hcan, CAN_IT_EWG)) &&
 8000814:	0409      	lsls	r1, r1, #16
 8000816:	d5a4      	bpl.n	8000762 <HAL_CAN_IRQHandler+0x86>
    hcan->ErrorCode |= HAL_CAN_ERROR_EWG;
 8000818:	6c21      	ldr	r1, [r4, #64]	; 0x40
 800081a:	430a      	orrs	r2, r1
 800081c:	6422      	str	r2, [r4, #64]	; 0x40
 800081e:	e7a0      	b.n	8000762 <HAL_CAN_IRQHandler+0x86>
      if((__HAL_CAN_GET_FLAG(hcan, CAN_FLAG_TXOK0)) ||
 8000820:	689a      	ldr	r2, [r3, #8]
 8000822:	0792      	lsls	r2, r2, #30
 8000824:	d409      	bmi.n	800083a <HAL_CAN_IRQHandler+0x15e>
         (__HAL_CAN_GET_FLAG(hcan, CAN_FLAG_TXOK1)) ||
 8000826:	689a      	ldr	r2, [r3, #8]
      if((__HAL_CAN_GET_FLAG(hcan, CAN_FLAG_TXOK0)) ||
 8000828:	0592      	lsls	r2, r2, #22
 800082a:	d406      	bmi.n	800083a <HAL_CAN_IRQHandler+0x15e>
         (__HAL_CAN_GET_FLAG(hcan, CAN_FLAG_TXOK2)))
 800082c:	689a      	ldr	r2, [r3, #8]
         (__HAL_CAN_GET_FLAG(hcan, CAN_FLAG_TXOK1)) ||
 800082e:	0392      	lsls	r2, r2, #14
 8000830:	d403      	bmi.n	800083a <HAL_CAN_IRQHandler+0x15e>
        errorcode |= HAL_CAN_ERROR_TXFAIL;
 8000832:	2280      	movs	r2, #128	; 0x80
 8000834:	0112      	lsls	r2, r2, #4
 8000836:	4315      	orrs	r5, r2
 8000838:	e01a      	b.n	8000870 <HAL_CAN_IRQHandler+0x194>
  * @retval HAL status
  */
static HAL_StatusTypeDef CAN_Transmit_IT(CAN_HandleTypeDef* hcan)
{
  /* Disable Transmit mailbox empty Interrupt */
  __HAL_CAN_DISABLE_IT(hcan, CAN_IT_TME);
 800083a:	2101      	movs	r1, #1
 800083c:	695a      	ldr	r2, [r3, #20]
 800083e:	438a      	bics	r2, r1
 8000840:	615a      	str	r2, [r3, #20]
  
  if(hcan->State == HAL_CAN_STATE_BUSY_TX)
 8000842:	223d      	movs	r2, #61	; 0x3d
 8000844:	5ca2      	ldrb	r2, [r4, r2]
 8000846:	2a12      	cmp	r2, #18
 8000848:	d100      	bne.n	800084c <HAL_CAN_IRQHandler+0x170>
 800084a:	e0c6      	b.n	80009da <HAL_CAN_IRQHandler+0x2fe>
                               CAN_IT_LEC |
                               CAN_IT_ERR );
  }

  /* Change CAN state */
  switch(hcan->State)
 800084c:	223d      	movs	r2, #61	; 0x3d
 800084e:	5ca3      	ldrb	r3, [r4, r2]
 8000850:	b2db      	uxtb	r3, r3
 8000852:	2b52      	cmp	r3, #82	; 0x52
 8000854:	d100      	bne.n	8000858 <HAL_CAN_IRQHandler+0x17c>
 8000856:	e0c5      	b.n	80009e4 <HAL_CAN_IRQHandler+0x308>
 8000858:	2b72      	cmp	r3, #114	; 0x72
 800085a:	d100      	bne.n	800085e <HAL_CAN_IRQHandler+0x182>
 800085c:	e0da      	b.n	8000a14 <HAL_CAN_IRQHandler+0x338>
 800085e:	2b42      	cmp	r3, #66	; 0x42
 8000860:	d100      	bne.n	8000864 <HAL_CAN_IRQHandler+0x188>
 8000862:	e0d4      	b.n	8000a0e <HAL_CAN_IRQHandler+0x332>
      break;
    case(HAL_CAN_STATE_BUSY_TX_RX0_RX1):
      hcan->State = HAL_CAN_STATE_BUSY_RX0_RX1;
      break;
    default: /* HAL_CAN_STATE_BUSY_TX */
      hcan->State = HAL_CAN_STATE_READY;
 8000864:	2301      	movs	r3, #1
 8000866:	54a3      	strb	r3, [r4, r2]
      break;
  }

  /* Transmission complete callback */ 
  HAL_CAN_TxCpltCallback(hcan);
 8000868:	0020      	movs	r0, r4
 800086a:	f7ff ff35 	bl	80006d8 <HAL_CAN_TxCpltCallback>
 800086e:	6823      	ldr	r3, [r4, #0]
      SET_BIT(hcan->Instance->TSR, CAN_TSR_RQCP0  | CAN_TSR_RQCP1  | CAN_TSR_RQCP2 | \
 8000870:	6899      	ldr	r1, [r3, #8]
 8000872:	4a6f      	ldr	r2, [pc, #444]	; (8000a30 <HAL_CAN_IRQHandler+0x354>)
 8000874:	430a      	orrs	r2, r1
 8000876:	609a      	str	r2, [r3, #8]
 8000878:	e75b      	b.n	8000732 <HAL_CAN_IRQHandler+0x56>
  {
    pRxMsg = hcan->pRx1Msg;
  }

  /* Get the Id */
  pRxMsg->IDE = CAN_RI0R_IDE & hcan->Instance->sFIFOMailBox[FIFONumber].RIR;
 800087a:	20d8      	movs	r0, #216	; 0xd8
 800087c:	2104      	movs	r1, #4
 800087e:	0040      	lsls	r0, r0, #1
 8000880:	581e      	ldr	r6, [r3, r0]
    pRxMsg = hcan->pRxMsg;
 8000882:	6b62      	ldr	r2, [r4, #52]	; 0x34
  pRxMsg->IDE = CAN_RI0R_IDE & hcan->Instance->sFIFOMailBox[FIFONumber].RIR;
 8000884:	4031      	ands	r1, r6
 8000886:	6091      	str	r1, [r2, #8]
  if (pRxMsg->IDE == CAN_ID_STD)
 8000888:	d000      	beq.n	800088c <HAL_CAN_IRQHandler+0x1b0>
 800088a:	e0ae      	b.n	80009ea <HAL_CAN_IRQHandler+0x30e>
  {
    pRxMsg->StdId = (CAN_RI0R_STID & hcan->Instance->sFIFOMailBox[FIFONumber].RIR) >> CAN_TI0R_STID_Pos;
 800088c:	5819      	ldr	r1, [r3, r0]
 800088e:	0d49      	lsrs	r1, r1, #21
 8000890:	6011      	str	r1, [r2, #0]
  }
  else
  {
    pRxMsg->ExtId = (0xFFFFFFF8U & hcan->Instance->sFIFOMailBox[FIFONumber].RIR) >> CAN_RI0R_EXID_Pos;
  }
  pRxMsg->RTR = (CAN_RI0R_RTR & hcan->Instance->sFIFOMailBox[FIFONumber].RIR) >> CAN_RI0R_RTR_Pos;
 8000892:	21d8      	movs	r1, #216	; 0xd8
 8000894:	0049      	lsls	r1, r1, #1
 8000896:	5859      	ldr	r1, [r3, r1]
  /* Get the DLC */
  pRxMsg->DLC = (CAN_RDT0R_DLC & hcan->Instance->sFIFOMailBox[FIFONumber].RDTR) >> CAN_RDT0R_DLC_Pos;
 8000898:	20da      	movs	r0, #218	; 0xda
  pRxMsg->RTR = (CAN_RI0R_RTR & hcan->Instance->sFIFOMailBox[FIFONumber].RIR) >> CAN_RI0R_RTR_Pos;
 800089a:	0789      	lsls	r1, r1, #30
 800089c:	0fc9      	lsrs	r1, r1, #31
 800089e:	60d1      	str	r1, [r2, #12]
  pRxMsg->DLC = (CAN_RDT0R_DLC & hcan->Instance->sFIFOMailBox[FIFONumber].RDTR) >> CAN_RDT0R_DLC_Pos;
 80008a0:	210f      	movs	r1, #15
 80008a2:	0040      	lsls	r0, r0, #1
 80008a4:	581e      	ldr	r6, [r3, r0]
 80008a6:	4031      	ands	r1, r6
 80008a8:	6111      	str	r1, [r2, #16]
  /* Get the FMI */
  pRxMsg->FMI = (CAN_RDT0R_FMI & hcan->Instance->sFIFOMailBox[FIFONumber].RDTR) >> CAN_RDT0R_FMI_Pos;
 80008aa:	5819      	ldr	r1, [r3, r0]
 80008ac:	0409      	lsls	r1, r1, #16
 80008ae:	0e09      	lsrs	r1, r1, #24
 80008b0:	61d1      	str	r1, [r2, #28]
  /* Get the FIFONumber */
  pRxMsg->FIFONumber = FIFONumber;
 80008b2:	2100      	movs	r1, #0
 80008b4:	6211      	str	r1, [r2, #32]
  /* Get the data field */
  pRxMsg->Data[0] = (CAN_RDL0R_DATA0 & hcan->Instance->sFIFOMailBox[FIFONumber].RDLR) >> CAN_RDL0R_DATA0_Pos;
 80008b6:	31b9      	adds	r1, #185	; 0xb9
 80008b8:	31ff      	adds	r1, #255	; 0xff
 80008ba:	5858      	ldr	r0, [r3, r1]
 80008bc:	7510      	strb	r0, [r2, #20]
  pRxMsg->Data[1] = (CAN_RDL0R_DATA1 & hcan->Instance->sFIFOMailBox[FIFONumber].RDLR) >> CAN_RDL0R_DATA1_Pos;
 80008be:	5858      	ldr	r0, [r3, r1]
 80008c0:	0a00      	lsrs	r0, r0, #8
 80008c2:	7550      	strb	r0, [r2, #21]
  pRxMsg->Data[2] = (CAN_RDL0R_DATA2 & hcan->Instance->sFIFOMailBox[FIFONumber].RDLR) >> CAN_RDL0R_DATA2_Pos;
 80008c4:	5858      	ldr	r0, [r3, r1]
 80008c6:	0c00      	lsrs	r0, r0, #16
 80008c8:	7590      	strb	r0, [r2, #22]
  pRxMsg->Data[3] = (CAN_RDL0R_DATA3 & hcan->Instance->sFIFOMailBox[FIFONumber].RDLR) >> CAN_RDL0R_DATA3_Pos;
 80008ca:	5859      	ldr	r1, [r3, r1]
 80008cc:	0e09      	lsrs	r1, r1, #24
 80008ce:	75d1      	strb	r1, [r2, #23]
  pRxMsg->Data[4] = (CAN_RDH0R_DATA4 & hcan->Instance->sFIFOMailBox[FIFONumber].RDHR) >> CAN_RDH0R_DATA4_Pos;
 80008d0:	21de      	movs	r1, #222	; 0xde
 80008d2:	0049      	lsls	r1, r1, #1
 80008d4:	5858      	ldr	r0, [r3, r1]
 80008d6:	7610      	strb	r0, [r2, #24]
  pRxMsg->Data[5] = (CAN_RDH0R_DATA5 & hcan->Instance->sFIFOMailBox[FIFONumber].RDHR) >> CAN_RDH0R_DATA5_Pos;
 80008d8:	5858      	ldr	r0, [r3, r1]
 80008da:	0a00      	lsrs	r0, r0, #8
 80008dc:	7650      	strb	r0, [r2, #25]
  pRxMsg->Data[6] = (CAN_RDH0R_DATA6 & hcan->Instance->sFIFOMailBox[FIFONumber].RDHR) >> CAN_RDH0R_DATA6_Pos;
 80008de:	5858      	ldr	r0, [r3, r1]
 80008e0:	0c00      	lsrs	r0, r0, #16
 80008e2:	7690      	strb	r0, [r2, #26]
  pRxMsg->Data[7] = (CAN_RDH0R_DATA7 & hcan->Instance->sFIFOMailBox[FIFONumber].RDHR) >> CAN_RDH0R_DATA7_Pos;
 80008e4:	5859      	ldr	r1, [r3, r1]
 80008e6:	0e09      	lsrs	r1, r1, #24
 80008e8:	76d1      	strb	r1, [r2, #27]

  /* Release the FIFO */
  /* Release FIFO0 */
  if (FIFONumber == CAN_FIFO0)
  {
    __HAL_CAN_FIFO_RELEASE(hcan, CAN_FIFO0);
 80008ea:	2120      	movs	r1, #32
 80008ec:	68da      	ldr	r2, [r3, #12]
 80008ee:	430a      	orrs	r2, r1
 80008f0:	60da      	str	r2, [r3, #12]
    
    /* Disable FIFO 0 overrun and message pending Interrupt */
    __HAL_CAN_DISABLE_IT(hcan, CAN_IT_FOV0 | CAN_IT_FMP0);
 80008f2:	695a      	ldr	r2, [r3, #20]
 80008f4:	3916      	subs	r1, #22
 80008f6:	438a      	bics	r2, r1
 80008f8:	615a      	str	r2, [r3, #20]
    
    /* Disable FIFO 1 overrun and message pending Interrupt */
    __HAL_CAN_DISABLE_IT(hcan, CAN_IT_FOV1 | CAN_IT_FMP1);
  }
  
  if((hcan->State == HAL_CAN_STATE_BUSY_RX0) || (hcan->State == HAL_CAN_STATE_BUSY_RX1))
 80008fa:	223d      	movs	r2, #61	; 0x3d
 80008fc:	5ca1      	ldrb	r1, [r4, r2]
 80008fe:	2922      	cmp	r1, #34	; 0x22
 8000900:	d07b      	beq.n	80009fa <HAL_CAN_IRQHandler+0x31e>
 8000902:	5ca2      	ldrb	r2, [r4, r2]
 8000904:	2a32      	cmp	r2, #50	; 0x32
 8000906:	d078      	beq.n	80009fa <HAL_CAN_IRQHandler+0x31e>
  }

  /* Change CAN state */
  if (FIFONumber == CAN_FIFO0)
  {
    switch(hcan->State)
 8000908:	223d      	movs	r2, #61	; 0x3d
 800090a:	5ca3      	ldrb	r3, [r4, r2]
 800090c:	b2db      	uxtb	r3, r3
 800090e:	2b62      	cmp	r3, #98	; 0x62
 8000910:	d100      	bne.n	8000914 <HAL_CAN_IRQHandler+0x238>
 8000912:	e0a6      	b.n	8000a62 <HAL_CAN_IRQHandler+0x386>
 8000914:	2b72      	cmp	r3, #114	; 0x72
 8000916:	d100      	bne.n	800091a <HAL_CAN_IRQHandler+0x23e>
 8000918:	e0a0      	b.n	8000a5c <HAL_CAN_IRQHandler+0x380>
 800091a:	2b42      	cmp	r3, #66	; 0x42
 800091c:	d100      	bne.n	8000920 <HAL_CAN_IRQHandler+0x244>
 800091e:	e08b      	b.n	8000a38 <HAL_CAN_IRQHandler+0x35c>
        break;
      case(HAL_CAN_STATE_BUSY_TX_RX0_RX1):
        hcan->State = HAL_CAN_STATE_BUSY_TX_RX1;
        break;
      default: /* HAL_CAN_STATE_BUSY_RX0 */
        hcan->State = HAL_CAN_STATE_READY;
 8000920:	2301      	movs	r3, #1
 8000922:	54a3      	strb	r3, [r4, r2]
        break;
    }
  }

  /* Receive complete callback */ 
  HAL_CAN_RxCpltCallback(hcan);
 8000924:	0020      	movs	r0, r4
 8000926:	f003 f9b7 	bl	8003c98 <HAL_CAN_RxCpltCallback>
 800092a:	6823      	ldr	r3, [r4, #0]
 800092c:	e708      	b.n	8000740 <HAL_CAN_IRQHandler+0x64>
  pRxMsg->IDE = CAN_RI0R_IDE & hcan->Instance->sFIFOMailBox[FIFONumber].RIR;
 800092e:	20e0      	movs	r0, #224	; 0xe0
 8000930:	2104      	movs	r1, #4
 8000932:	0040      	lsls	r0, r0, #1
 8000934:	581e      	ldr	r6, [r3, r0]
    pRxMsg = hcan->pRx1Msg;
 8000936:	6ba2      	ldr	r2, [r4, #56]	; 0x38
  pRxMsg->IDE = CAN_RI0R_IDE & hcan->Instance->sFIFOMailBox[FIFONumber].RIR;
 8000938:	4031      	ands	r1, r6
 800093a:	6091      	str	r1, [r2, #8]
  if (pRxMsg->IDE == CAN_ID_STD)
 800093c:	d159      	bne.n	80009f2 <HAL_CAN_IRQHandler+0x316>
    pRxMsg->StdId = (CAN_RI0R_STID & hcan->Instance->sFIFOMailBox[FIFONumber].RIR) >> CAN_TI0R_STID_Pos;
 800093e:	5819      	ldr	r1, [r3, r0]
 8000940:	0d49      	lsrs	r1, r1, #21
 8000942:	6011      	str	r1, [r2, #0]
  pRxMsg->RTR = (CAN_RI0R_RTR & hcan->Instance->sFIFOMailBox[FIFONumber].RIR) >> CAN_RI0R_RTR_Pos;
 8000944:	21e0      	movs	r1, #224	; 0xe0
 8000946:	2001      	movs	r0, #1
 8000948:	0049      	lsls	r1, r1, #1
 800094a:	5859      	ldr	r1, [r3, r1]
  pRxMsg->DLC = (CAN_RDT0R_DLC & hcan->Instance->sFIFOMailBox[FIFONumber].RDTR) >> CAN_RDT0R_DLC_Pos;
 800094c:	26e2      	movs	r6, #226	; 0xe2
  pRxMsg->RTR = (CAN_RI0R_RTR & hcan->Instance->sFIFOMailBox[FIFONumber].RIR) >> CAN_RI0R_RTR_Pos;
 800094e:	0849      	lsrs	r1, r1, #1
 8000950:	4001      	ands	r1, r0
 8000952:	60d1      	str	r1, [r2, #12]
  pRxMsg->DLC = (CAN_RDT0R_DLC & hcan->Instance->sFIFOMailBox[FIFONumber].RDTR) >> CAN_RDT0R_DLC_Pos;
 8000954:	210f      	movs	r1, #15
 8000956:	0076      	lsls	r6, r6, #1
 8000958:	599f      	ldr	r7, [r3, r6]
 800095a:	4039      	ands	r1, r7
 800095c:	6111      	str	r1, [r2, #16]
  pRxMsg->FMI = (CAN_RDT0R_FMI & hcan->Instance->sFIFOMailBox[FIFONumber].RDTR) >> CAN_RDT0R_FMI_Pos;
 800095e:	5999      	ldr	r1, [r3, r6]
  pRxMsg->FIFONumber = FIFONumber;
 8000960:	6210      	str	r0, [r2, #32]
  pRxMsg->FMI = (CAN_RDT0R_FMI & hcan->Instance->sFIFOMailBox[FIFONumber].RDTR) >> CAN_RDT0R_FMI_Pos;
 8000962:	0409      	lsls	r1, r1, #16
 8000964:	0e09      	lsrs	r1, r1, #24
 8000966:	61d1      	str	r1, [r2, #28]
  pRxMsg->Data[0] = (CAN_RDL0R_DATA0 & hcan->Instance->sFIFOMailBox[FIFONumber].RDLR) >> CAN_RDL0R_DATA0_Pos;
 8000968:	21e4      	movs	r1, #228	; 0xe4
 800096a:	0049      	lsls	r1, r1, #1
 800096c:	5858      	ldr	r0, [r3, r1]
 800096e:	7510      	strb	r0, [r2, #20]
  pRxMsg->Data[1] = (CAN_RDL0R_DATA1 & hcan->Instance->sFIFOMailBox[FIFONumber].RDLR) >> CAN_RDL0R_DATA1_Pos;
 8000970:	5858      	ldr	r0, [r3, r1]
 8000972:	0a00      	lsrs	r0, r0, #8
 8000974:	7550      	strb	r0, [r2, #21]
  pRxMsg->Data[2] = (CAN_RDL0R_DATA2 & hcan->Instance->sFIFOMailBox[FIFONumber].RDLR) >> CAN_RDL0R_DATA2_Pos;
 8000976:	5858      	ldr	r0, [r3, r1]
 8000978:	0c00      	lsrs	r0, r0, #16
 800097a:	7590      	strb	r0, [r2, #22]
  pRxMsg->Data[3] = (CAN_RDL0R_DATA3 & hcan->Instance->sFIFOMailBox[FIFONumber].RDLR) >> CAN_RDL0R_DATA3_Pos;
 800097c:	5859      	ldr	r1, [r3, r1]
 800097e:	0e09      	lsrs	r1, r1, #24
 8000980:	75d1      	strb	r1, [r2, #23]
  pRxMsg->Data[4] = (CAN_RDH0R_DATA4 & hcan->Instance->sFIFOMailBox[FIFONumber].RDHR) >> CAN_RDH0R_DATA4_Pos;
 8000982:	21e6      	movs	r1, #230	; 0xe6
 8000984:	0049      	lsls	r1, r1, #1
 8000986:	5858      	ldr	r0, [r3, r1]
 8000988:	7610      	strb	r0, [r2, #24]
  pRxMsg->Data[5] = (CAN_RDH0R_DATA5 & hcan->Instance->sFIFOMailBox[FIFONumber].RDHR) >> CAN_RDH0R_DATA5_Pos;
 800098a:	5858      	ldr	r0, [r3, r1]
 800098c:	0a00      	lsrs	r0, r0, #8
 800098e:	7650      	strb	r0, [r2, #25]
  pRxMsg->Data[6] = (CAN_RDH0R_DATA6 & hcan->Instance->sFIFOMailBox[FIFONumber].RDHR) >> CAN_RDH0R_DATA6_Pos;
 8000990:	5858      	ldr	r0, [r3, r1]
 8000992:	0c00      	lsrs	r0, r0, #16
 8000994:	7690      	strb	r0, [r2, #26]
  pRxMsg->Data[7] = (CAN_RDH0R_DATA7 & hcan->Instance->sFIFOMailBox[FIFONumber].RDHR) >> CAN_RDH0R_DATA7_Pos;
 8000996:	5859      	ldr	r1, [r3, r1]
 8000998:	0e09      	lsrs	r1, r1, #24
 800099a:	76d1      	strb	r1, [r2, #27]
    __HAL_CAN_FIFO_RELEASE(hcan, CAN_FIFO1);
 800099c:	2120      	movs	r1, #32
 800099e:	691a      	ldr	r2, [r3, #16]
 80009a0:	430a      	orrs	r2, r1
 80009a2:	611a      	str	r2, [r3, #16]
    __HAL_CAN_DISABLE_IT(hcan, CAN_IT_FOV1 | CAN_IT_FMP1);
 80009a4:	695a      	ldr	r2, [r3, #20]
 80009a6:	3130      	adds	r1, #48	; 0x30
 80009a8:	438a      	bics	r2, r1
 80009aa:	615a      	str	r2, [r3, #20]
  if((hcan->State == HAL_CAN_STATE_BUSY_RX0) || (hcan->State == HAL_CAN_STATE_BUSY_RX1))
 80009ac:	223d      	movs	r2, #61	; 0x3d
 80009ae:	5ca1      	ldrb	r1, [r4, r2]
 80009b0:	2922      	cmp	r1, #34	; 0x22
 80009b2:	d027      	beq.n	8000a04 <HAL_CAN_IRQHandler+0x328>
 80009b4:	5ca2      	ldrb	r2, [r4, r2]
 80009b6:	2a32      	cmp	r2, #50	; 0x32
 80009b8:	d024      	beq.n	8000a04 <HAL_CAN_IRQHandler+0x328>
    switch(hcan->State)
 80009ba:	223d      	movs	r2, #61	; 0x3d
 80009bc:	5ca3      	ldrb	r3, [r4, r2]
 80009be:	b2db      	uxtb	r3, r3
 80009c0:	2b62      	cmp	r3, #98	; 0x62
 80009c2:	d054      	beq.n	8000a6e <HAL_CAN_IRQHandler+0x392>
 80009c4:	2b72      	cmp	r3, #114	; 0x72
 80009c6:	d04f      	beq.n	8000a68 <HAL_CAN_IRQHandler+0x38c>
 80009c8:	2b52      	cmp	r3, #82	; 0x52
 80009ca:	d026      	beq.n	8000a1a <HAL_CAN_IRQHandler+0x33e>
        hcan->State = HAL_CAN_STATE_READY;
 80009cc:	2301      	movs	r3, #1
 80009ce:	54a3      	strb	r3, [r4, r2]
  HAL_CAN_RxCpltCallback(hcan);
 80009d0:	0020      	movs	r0, r4
 80009d2:	f003 f961 	bl	8003c98 <HAL_CAN_RxCpltCallback>
 80009d6:	6823      	ldr	r3, [r4, #0]
 80009d8:	e6b9      	b.n	800074e <HAL_CAN_IRQHandler+0x72>
    __HAL_CAN_DISABLE_IT(hcan, CAN_IT_EWG |
 80009da:	695a      	ldr	r2, [r3, #20]
 80009dc:	4915      	ldr	r1, [pc, #84]	; (8000a34 <HAL_CAN_IRQHandler+0x358>)
 80009de:	400a      	ands	r2, r1
 80009e0:	615a      	str	r2, [r3, #20]
 80009e2:	e733      	b.n	800084c <HAL_CAN_IRQHandler+0x170>
      hcan->State = HAL_CAN_STATE_BUSY_RX1;
 80009e4:	2332      	movs	r3, #50	; 0x32
 80009e6:	54a3      	strb	r3, [r4, r2]
 80009e8:	e73e      	b.n	8000868 <HAL_CAN_IRQHandler+0x18c>
    pRxMsg->ExtId = (0xFFFFFFF8U & hcan->Instance->sFIFOMailBox[FIFONumber].RIR) >> CAN_RI0R_EXID_Pos;
 80009ea:	5819      	ldr	r1, [r3, r0]
 80009ec:	08c9      	lsrs	r1, r1, #3
 80009ee:	6051      	str	r1, [r2, #4]
 80009f0:	e74f      	b.n	8000892 <HAL_CAN_IRQHandler+0x1b6>
 80009f2:	5819      	ldr	r1, [r3, r0]
 80009f4:	08c9      	lsrs	r1, r1, #3
 80009f6:	6051      	str	r1, [r2, #4]
 80009f8:	e7a4      	b.n	8000944 <HAL_CAN_IRQHandler+0x268>
    __HAL_CAN_DISABLE_IT(hcan, CAN_IT_EWG |
 80009fa:	695a      	ldr	r2, [r3, #20]
 80009fc:	490d      	ldr	r1, [pc, #52]	; (8000a34 <HAL_CAN_IRQHandler+0x358>)
 80009fe:	400a      	ands	r2, r1
 8000a00:	615a      	str	r2, [r3, #20]
 8000a02:	e781      	b.n	8000908 <HAL_CAN_IRQHandler+0x22c>
 8000a04:	695a      	ldr	r2, [r3, #20]
 8000a06:	490b      	ldr	r1, [pc, #44]	; (8000a34 <HAL_CAN_IRQHandler+0x358>)
 8000a08:	400a      	ands	r2, r1
 8000a0a:	615a      	str	r2, [r3, #20]
 8000a0c:	e7d5      	b.n	80009ba <HAL_CAN_IRQHandler+0x2de>
      hcan->State = HAL_CAN_STATE_BUSY_RX0;
 8000a0e:	3b20      	subs	r3, #32
 8000a10:	54a3      	strb	r3, [r4, r2]
 8000a12:	e729      	b.n	8000868 <HAL_CAN_IRQHandler+0x18c>
      hcan->State = HAL_CAN_STATE_BUSY_RX0_RX1;
 8000a14:	2362      	movs	r3, #98	; 0x62
 8000a16:	54a3      	strb	r3, [r4, r2]
 8000a18:	e726      	b.n	8000868 <HAL_CAN_IRQHandler+0x18c>
        hcan->State = HAL_CAN_STATE_BUSY_TX;
 8000a1a:	3b40      	subs	r3, #64	; 0x40
 8000a1c:	54a3      	strb	r3, [r4, r2]
 8000a1e:	e7d7      	b.n	80009d0 <HAL_CAN_IRQHandler+0x2f4>
 8000a20:	04000001 	.word	0x04000001
 8000a24:	08000100 	.word	0x08000100
 8000a28:	10010000 	.word	0x10010000
 8000a2c:	ffff70a4 	.word	0xffff70a4
 8000a30:	00010519 	.word	0x00010519
 8000a34:	ffff70ff 	.word	0xffff70ff
        hcan->State = HAL_CAN_STATE_BUSY_TX;
 8000a38:	3b30      	subs	r3, #48	; 0x30
 8000a3a:	54a3      	strb	r3, [r4, r2]
 8000a3c:	e772      	b.n	8000924 <HAL_CAN_IRQHandler+0x248>
          hcan->ErrorCode |= HAL_CAN_ERROR_BD;
 8000a3e:	2180      	movs	r1, #128	; 0x80
 8000a40:	6c22      	ldr	r2, [r4, #64]	; 0x40
 8000a42:	430a      	orrs	r2, r1
 8000a44:	6422      	str	r2, [r4, #64]	; 0x40
          break;
 8000a46:	e6c8      	b.n	80007da <HAL_CAN_IRQHandler+0xfe>
    switch(hcan->Instance->ESR & CAN_ESR_LEC)
 8000a48:	2a10      	cmp	r2, #16
 8000a4a:	d013      	beq.n	8000a74 <HAL_CAN_IRQHandler+0x398>
 8000a4c:	2a20      	cmp	r2, #32
 8000a4e:	d000      	beq.n	8000a52 <HAL_CAN_IRQHandler+0x376>
 8000a50:	e6c3      	b.n	80007da <HAL_CAN_IRQHandler+0xfe>
          hcan->ErrorCode |= HAL_CAN_ERROR_FOR;
 8000a52:	2110      	movs	r1, #16
 8000a54:	6c22      	ldr	r2, [r4, #64]	; 0x40
 8000a56:	430a      	orrs	r2, r1
 8000a58:	6422      	str	r2, [r4, #64]	; 0x40
          break;
 8000a5a:	e6be      	b.n	80007da <HAL_CAN_IRQHandler+0xfe>
        hcan->State = HAL_CAN_STATE_BUSY_TX_RX1;
 8000a5c:	2352      	movs	r3, #82	; 0x52
 8000a5e:	54a3      	strb	r3, [r4, r2]
 8000a60:	e760      	b.n	8000924 <HAL_CAN_IRQHandler+0x248>
        hcan->State = HAL_CAN_STATE_BUSY_RX1;
 8000a62:	2332      	movs	r3, #50	; 0x32
 8000a64:	54a3      	strb	r3, [r4, r2]
 8000a66:	e75d      	b.n	8000924 <HAL_CAN_IRQHandler+0x248>
        hcan->State = HAL_CAN_STATE_BUSY_TX_RX0;
 8000a68:	2342      	movs	r3, #66	; 0x42
 8000a6a:	54a3      	strb	r3, [r4, r2]
 8000a6c:	e7b0      	b.n	80009d0 <HAL_CAN_IRQHandler+0x2f4>
        hcan->State = HAL_CAN_STATE_BUSY_RX0;
 8000a6e:	2322      	movs	r3, #34	; 0x22
 8000a70:	54a3      	strb	r3, [r4, r2]
 8000a72:	e7ad      	b.n	80009d0 <HAL_CAN_IRQHandler+0x2f4>
          hcan->ErrorCode |= HAL_CAN_ERROR_STF;
 8000a74:	2108      	movs	r1, #8
 8000a76:	6c22      	ldr	r2, [r4, #64]	; 0x40
 8000a78:	430a      	orrs	r2, r1
 8000a7a:	6422      	str	r2, [r4, #64]	; 0x40
          break;
 8000a7c:	e6ad      	b.n	80007da <HAL_CAN_IRQHandler+0xfe>
          hcan->ErrorCode |= HAL_CAN_ERROR_CRC;
 8000a7e:	2280      	movs	r2, #128	; 0x80
 8000a80:	6c21      	ldr	r1, [r4, #64]	; 0x40
 8000a82:	0052      	lsls	r2, r2, #1
 8000a84:	430a      	orrs	r2, r1
 8000a86:	6422      	str	r2, [r4, #64]	; 0x40
          break;
 8000a88:	e6a7      	b.n	80007da <HAL_CAN_IRQHandler+0xfe>
          hcan->ErrorCode |= HAL_CAN_ERROR_ACK;
 8000a8a:	2120      	movs	r1, #32
 8000a8c:	6c22      	ldr	r2, [r4, #64]	; 0x40
 8000a8e:	430a      	orrs	r2, r1
 8000a90:	6422      	str	r2, [r4, #64]	; 0x40
          break;
 8000a92:	e6a2      	b.n	80007da <HAL_CAN_IRQHandler+0xfe>

08000a94 <HAL_CAN_GetError>:
  return hcan->ErrorCode;
 8000a94:	6c00      	ldr	r0, [r0, #64]	; 0x40
}
 8000a96:	4770      	bx	lr

08000a98 <HAL_NVIC_SetPriority>:
  *         with stm32f0xx devices, this parameter is a dummy value and it is ignored, because 
  *         no subpriority supported in Cortex M0 based products.   
  * @retval None
  */
void HAL_NVIC_SetPriority(IRQn_Type IRQn, uint32_t PreemptPriority, uint32_t SubPriority)
{ 
 8000a98:	b570      	push	{r4, r5, r6, lr}
  \param [in]      IRQn  Interrupt number.
  \param [in]  priority  Priority to set.
 */
__STATIC_INLINE void NVIC_SetPriority(IRQn_Type IRQn, uint32_t priority)
{
  if ((int32_t)(IRQn) < 0)
 8000a9a:	2800      	cmp	r0, #0
 8000a9c:	db11      	blt.n	8000ac2 <HAL_NVIC_SetPriority+0x2a>
    SCB->SHP[_SHP_IDX(IRQn)] = ((uint32_t)(SCB->SHP[_SHP_IDX(IRQn)] & ~(0xFFUL << _BIT_SHIFT(IRQn))) |
       (((priority << (8U - __NVIC_PRIO_BITS)) & (uint32_t)0xFFUL) << _BIT_SHIFT(IRQn)));
  }
  else
  {
    NVIC->IP[_IP_IDX(IRQn)]  = ((uint32_t)(NVIC->IP[_IP_IDX(IRQn)]  & ~(0xFFUL << _BIT_SHIFT(IRQn))) |
 8000a9e:	0883      	lsrs	r3, r0, #2
 8000aa0:	4d14      	ldr	r5, [pc, #80]	; (8000af4 <HAL_NVIC_SetPriority+0x5c>)
 8000aa2:	33c0      	adds	r3, #192	; 0xc0
 8000aa4:	009b      	lsls	r3, r3, #2
 8000aa6:	595c      	ldr	r4, [r3, r5]
 8000aa8:	2203      	movs	r2, #3
 8000aaa:	4010      	ands	r0, r2
 8000aac:	00c0      	lsls	r0, r0, #3
 8000aae:	32fc      	adds	r2, #252	; 0xfc
 8000ab0:	0016      	movs	r6, r2
 8000ab2:	4086      	lsls	r6, r0
 8000ab4:	43b4      	bics	r4, r6
       (((priority << (8U - __NVIC_PRIO_BITS)) & (uint32_t)0xFFUL) << _BIT_SHIFT(IRQn)));
 8000ab6:	0189      	lsls	r1, r1, #6
 8000ab8:	400a      	ands	r2, r1
 8000aba:	4082      	lsls	r2, r0
    NVIC->IP[_IP_IDX(IRQn)]  = ((uint32_t)(NVIC->IP[_IP_IDX(IRQn)]  & ~(0xFFUL << _BIT_SHIFT(IRQn))) |
 8000abc:	4322      	orrs	r2, r4
 8000abe:	515a      	str	r2, [r3, r5]
  /* Check the parameters */
  assert_param(IS_NVIC_PREEMPTION_PRIORITY(PreemptPriority));
  NVIC_SetPriority(IRQn,PreemptPriority);
}
 8000ac0:	bd70      	pop	{r4, r5, r6, pc}
    SCB->SHP[_SHP_IDX(IRQn)] = ((uint32_t)(SCB->SHP[_SHP_IDX(IRQn)] & ~(0xFFUL << _BIT_SHIFT(IRQn))) |
 8000ac2:	b2c0      	uxtb	r0, r0
 8000ac4:	230f      	movs	r3, #15
 8000ac6:	4003      	ands	r3, r0
 8000ac8:	3b08      	subs	r3, #8
 8000aca:	089b      	lsrs	r3, r3, #2
 8000acc:	3306      	adds	r3, #6
 8000ace:	009b      	lsls	r3, r3, #2
 8000ad0:	4a09      	ldr	r2, [pc, #36]	; (8000af8 <HAL_NVIC_SetPriority+0x60>)
 8000ad2:	4694      	mov	ip, r2
 8000ad4:	4463      	add	r3, ip
 8000ad6:	685d      	ldr	r5, [r3, #4]
 8000ad8:	2203      	movs	r2, #3
 8000ada:	4010      	ands	r0, r2
 8000adc:	00c0      	lsls	r0, r0, #3
 8000ade:	24ff      	movs	r4, #255	; 0xff
 8000ae0:	0022      	movs	r2, r4
 8000ae2:	4082      	lsls	r2, r0
 8000ae4:	4395      	bics	r5, r2
       (((priority << (8U - __NVIC_PRIO_BITS)) & (uint32_t)0xFFUL) << _BIT_SHIFT(IRQn)));
 8000ae6:	0189      	lsls	r1, r1, #6
 8000ae8:	400c      	ands	r4, r1
 8000aea:	4084      	lsls	r4, r0
    SCB->SHP[_SHP_IDX(IRQn)] = ((uint32_t)(SCB->SHP[_SHP_IDX(IRQn)] & ~(0xFFUL << _BIT_SHIFT(IRQn))) |
 8000aec:	432c      	orrs	r4, r5
 8000aee:	605c      	str	r4, [r3, #4]
 8000af0:	e7e6      	b.n	8000ac0 <HAL_NVIC_SetPriority+0x28>
 8000af2:	46c0      	nop			; (mov r8, r8)
 8000af4:	e000e100 	.word	0xe000e100
 8000af8:	e000ed00 	.word	0xe000ed00

08000afc <HAL_NVIC_EnableIRQ>:
  NVIC->ISER[0U] = (uint32_t)(1UL << (((uint32_t)(int32_t)IRQn) & 0x1FUL));
 8000afc:	231f      	movs	r3, #31
 8000afe:	4018      	ands	r0, r3
 8000b00:	3b1e      	subs	r3, #30
 8000b02:	4083      	lsls	r3, r0
 8000b04:	4a01      	ldr	r2, [pc, #4]	; (8000b0c <HAL_NVIC_EnableIRQ+0x10>)
 8000b06:	6013      	str	r3, [r2, #0]
  /* Check the parameters */
  assert_param(IS_NVIC_DEVICE_IRQ(IRQn));
  
  /* Enable interrupt */
  NVIC_EnableIRQ(IRQn);
}
 8000b08:	4770      	bx	lr
 8000b0a:	46c0      	nop			; (mov r8, r8)
 8000b0c:	e000e100 	.word	0xe000e100

08000b10 <HAL_NVIC_DisableIRQ>:
  NVIC->ICER[0U] = (uint32_t)(1UL << (((uint32_t)(int32_t)IRQn) & 0x1FUL));
 8000b10:	231f      	movs	r3, #31
 8000b12:	4018      	ands	r0, r3
 8000b14:	3b1e      	subs	r3, #30
 8000b16:	4083      	lsls	r3, r0
 8000b18:	2280      	movs	r2, #128	; 0x80
 8000b1a:	4901      	ldr	r1, [pc, #4]	; (8000b20 <HAL_NVIC_DisableIRQ+0x10>)
 8000b1c:	508b      	str	r3, [r1, r2]
  /* Check the parameters */
  assert_param(IS_NVIC_DEVICE_IRQ(IRQn));
  
  /* Disable interrupt */
  NVIC_DisableIRQ(IRQn);
}
 8000b1e:	4770      	bx	lr
 8000b20:	e000e100 	.word	0xe000e100

08000b24 <HAL_SYSTICK_Config>:
           function <b>SysTick_Config</b> is not included. In this case, the file <b><i>device</i>.h</b>
           must contain a vendor-specific implementation of this function.
 */
__STATIC_INLINE uint32_t SysTick_Config(uint32_t ticks)
{
  if ((ticks - 1UL) > SysTick_LOAD_RELOAD_Msk)
 8000b24:	3801      	subs	r0, #1
 8000b26:	4b0a      	ldr	r3, [pc, #40]	; (8000b50 <HAL_SYSTICK_Config+0x2c>)
 8000b28:	4298      	cmp	r0, r3
 8000b2a:	d80f      	bhi.n	8000b4c <HAL_SYSTICK_Config+0x28>
  {
    return (1UL);                                                   /* Reload value impossible */
  }

  SysTick->LOAD  = (uint32_t)(ticks - 1UL);                         /* set reload register */
 8000b2c:	4a09      	ldr	r2, [pc, #36]	; (8000b54 <HAL_SYSTICK_Config+0x30>)
 8000b2e:	6050      	str	r0, [r2, #4]
    SCB->SHP[_SHP_IDX(IRQn)] = ((uint32_t)(SCB->SHP[_SHP_IDX(IRQn)] & ~(0xFFUL << _BIT_SHIFT(IRQn))) |
 8000b30:	4809      	ldr	r0, [pc, #36]	; (8000b58 <HAL_SYSTICK_Config+0x34>)
 8000b32:	6a03      	ldr	r3, [r0, #32]
 8000b34:	021b      	lsls	r3, r3, #8
 8000b36:	0a1b      	lsrs	r3, r3, #8
 8000b38:	21c0      	movs	r1, #192	; 0xc0
 8000b3a:	0609      	lsls	r1, r1, #24
 8000b3c:	430b      	orrs	r3, r1
 8000b3e:	6203      	str	r3, [r0, #32]
  NVIC_SetPriority (SysTick_IRQn, (1UL << __NVIC_PRIO_BITS) - 1UL); /* set Priority for Systick Interrupt */
  SysTick->VAL   = 0UL;                                             /* Load the SysTick Counter Value */
 8000b40:	2300      	movs	r3, #0
 8000b42:	6093      	str	r3, [r2, #8]
  SysTick->CTRL  = SysTick_CTRL_CLKSOURCE_Msk |
 8000b44:	3307      	adds	r3, #7
 8000b46:	6013      	str	r3, [r2, #0]
                   SysTick_CTRL_TICKINT_Msk   |
                   SysTick_CTRL_ENABLE_Msk;                         /* Enable SysTick IRQ and SysTick Timer */
  return (0UL);                                                     /* Function successful */
 8000b48:	2000      	movs	r0, #0
  *                  - 1  Function failed.
  */
uint32_t HAL_SYSTICK_Config(uint32_t TicksNumb)
{
   return SysTick_Config(TicksNumb);
}
 8000b4a:	4770      	bx	lr
    return (1UL);                                                   /* Reload value impossible */
 8000b4c:	2001      	movs	r0, #1
   return SysTick_Config(TicksNumb);
 8000b4e:	e7fc      	b.n	8000b4a <HAL_SYSTICK_Config+0x26>
 8000b50:	00ffffff 	.word	0x00ffffff
 8000b54:	e000e010 	.word	0xe000e010
 8000b58:	e000ed00 	.word	0xe000ed00

08000b5c <HAL_SYSTICK_CLKSourceConfig>:
  */
void HAL_SYSTICK_CLKSourceConfig(uint32_t CLKSource)
{
  /* Check the parameters */
  assert_param(IS_SYSTICK_CLK_SOURCE(CLKSource));
  if (CLKSource == SYSTICK_CLKSOURCE_HCLK)
 8000b5c:	2804      	cmp	r0, #4
 8000b5e:	d005      	beq.n	8000b6c <HAL_SYSTICK_CLKSourceConfig+0x10>
  {
    SysTick->CTRL |= SYSTICK_CLKSOURCE_HCLK;
  }
  else
  {
    SysTick->CTRL &= ~SYSTICK_CLKSOURCE_HCLK;
 8000b60:	4a05      	ldr	r2, [pc, #20]	; (8000b78 <HAL_SYSTICK_CLKSourceConfig+0x1c>)
 8000b62:	6813      	ldr	r3, [r2, #0]
 8000b64:	2104      	movs	r1, #4
 8000b66:	438b      	bics	r3, r1
 8000b68:	6013      	str	r3, [r2, #0]
  }
}
 8000b6a:	4770      	bx	lr
    SysTick->CTRL |= SYSTICK_CLKSOURCE_HCLK;
 8000b6c:	4a02      	ldr	r2, [pc, #8]	; (8000b78 <HAL_SYSTICK_CLKSourceConfig+0x1c>)
 8000b6e:	6813      	ldr	r3, [r2, #0]
 8000b70:	2104      	movs	r1, #4
 8000b72:	430b      	orrs	r3, r1
 8000b74:	6013      	str	r3, [r2, #0]
 8000b76:	e7f8      	b.n	8000b6a <HAL_SYSTICK_CLKSourceConfig+0xe>
 8000b78:	e000e010 	.word	0xe000e010

08000b7c <HAL_SYSTICK_Callback>:
__weak void HAL_SYSTICK_Callback(void)
{
  /* NOTE : This function Should not be modified, when the callback is needed,
            the HAL_SYSTICK_Callback could be implemented in the user file
   */
}
 8000b7c:	4770      	bx	lr

08000b7e <HAL_SYSTICK_IRQHandler>:
{
 8000b7e:	b510      	push	{r4, lr}
  HAL_SYSTICK_Callback();
 8000b80:	f7ff fffc 	bl	8000b7c <HAL_SYSTICK_Callback>
}
 8000b84:	bd10      	pop	{r4, pc}

08000b86 <HAL_DMA_Start_IT>:
  * @param  DstAddress The destination memory Buffer address
  * @param  DataLength The length of data to be transferred from source to destination
  * @retval HAL status
  */
HAL_StatusTypeDef HAL_DMA_Start_IT(DMA_HandleTypeDef *hdma, uint32_t SrcAddress, uint32_t DstAddress, uint32_t DataLength)
{
 8000b86:	b5f0      	push	{r4, r5, r6, r7, lr}

  /* Check the parameters */
  assert_param(IS_DMA_BUFFER_SIZE(DataLength));
  
  /* Process locked */
  __HAL_LOCK(hdma);
 8000b88:	1c46      	adds	r6, r0, #1
 8000b8a:	7ff5      	ldrb	r5, [r6, #31]
 8000b8c:	2402      	movs	r4, #2
 8000b8e:	2d01      	cmp	r5, #1
 8000b90:	d026      	beq.n	8000be0 <HAL_DMA_Start_IT+0x5a>
 8000b92:	2501      	movs	r5, #1
 8000b94:	77f5      	strb	r5, [r6, #31]
  
  if(HAL_DMA_STATE_READY == hdma->State)
 8000b96:	1905      	adds	r5, r0, r4
 8000b98:	46ac      	mov	ip, r5
 8000b9a:	7fed      	ldrb	r5, [r5, #31]
 8000b9c:	2700      	movs	r7, #0
 8000b9e:	b2ed      	uxtb	r5, r5
 8000ba0:	2d01      	cmp	r5, #1
 8000ba2:	d129      	bne.n	8000bf8 <HAL_DMA_Start_IT+0x72>
  {
  	/* Change DMA peripheral state */  
  	hdma->State = HAL_DMA_STATE_BUSY;
 8000ba4:	4666      	mov	r6, ip
 8000ba6:	77f4      	strb	r4, [r6, #31]
  	
  	hdma->ErrorCode = HAL_DMA_ERROR_NONE;
  	
  	/* Disable the peripheral */
  	hdma->Instance->CCR &= ~DMA_CCR_EN;
 8000ba8:	6804      	ldr	r4, [r0, #0]
  	hdma->ErrorCode = HAL_DMA_ERROR_NONE;
 8000baa:	6387      	str	r7, [r0, #56]	; 0x38
  	hdma->Instance->CCR &= ~DMA_CCR_EN;
 8000bac:	6826      	ldr	r6, [r4, #0]
  * @retval HAL status
  */
static void DMA_SetConfig(DMA_HandleTypeDef *hdma, uint32_t SrcAddress, uint32_t DstAddress, uint32_t DataLength)
{
	/* Clear all flags */
  hdma->DmaBaseAddress->IFCR  = (DMA_FLAG_GL1 << hdma->ChannelIndex);
 8000bae:	6c07      	ldr	r7, [r0, #64]	; 0x40
  	hdma->Instance->CCR &= ~DMA_CCR_EN;
 8000bb0:	43ae      	bics	r6, r5
  hdma->DmaBaseAddress->IFCR  = (DMA_FLAG_GL1 << hdma->ChannelIndex);
 8000bb2:	40bd      	lsls	r5, r7
  	hdma->Instance->CCR &= ~DMA_CCR_EN;
 8000bb4:	6026      	str	r6, [r4, #0]
  hdma->DmaBaseAddress->IFCR  = (DMA_FLAG_GL1 << hdma->ChannelIndex);
 8000bb6:	6bc6      	ldr	r6, [r0, #60]	; 0x3c
 8000bb8:	6075      	str	r5, [r6, #4]
  
  /* Configure DMA Channel data length */
  hdma->Instance->CNDTR = DataLength;
 8000bba:	6063      	str	r3, [r4, #4]
  
  /* Memory to Peripheral */
  if((hdma->Init.Direction) == DMA_MEMORY_TO_PERIPH)
 8000bbc:	6843      	ldr	r3, [r0, #4]
 8000bbe:	6805      	ldr	r5, [r0, #0]
 8000bc0:	2b10      	cmp	r3, #16
 8000bc2:	d10f      	bne.n	8000be4 <HAL_DMA_Start_IT+0x5e>
  {   
    /* Configure DMA Channel destination address */
    hdma->Instance->CPAR = DstAddress;
 8000bc4:	60a2      	str	r2, [r4, #8]
    
    /* Configure DMA Channel source address */
    hdma->Instance->CMAR = SrcAddress;
 8000bc6:	60e1      	str	r1, [r4, #12]
    if(NULL != hdma->XferHalfCpltCallback )
 8000bc8:	6ac3      	ldr	r3, [r0, #44]	; 0x2c
      hdma->Instance->CCR |= (DMA_IT_TC | DMA_IT_HT | DMA_IT_TE);
 8000bca:	6822      	ldr	r2, [r4, #0]
    if(NULL != hdma->XferHalfCpltCallback )
 8000bcc:	2b00      	cmp	r3, #0
 8000bce:	d00c      	beq.n	8000bea <HAL_DMA_Start_IT+0x64>
      hdma->Instance->CCR |= (DMA_IT_TC | DMA_IT_HT | DMA_IT_TE);
 8000bd0:	230e      	movs	r3, #14
 8000bd2:	4313      	orrs	r3, r2
  		hdma->Instance->CCR &= ~DMA_IT_HT;
 8000bd4:	6023      	str	r3, [r4, #0]
  	hdma->Instance->CCR |= DMA_CCR_EN;
 8000bd6:	2301      	movs	r3, #1
	HAL_StatusTypeDef status = HAL_OK;
 8000bd8:	2400      	movs	r4, #0
  	hdma->Instance->CCR |= DMA_CCR_EN;
 8000bda:	682a      	ldr	r2, [r5, #0]
 8000bdc:	4313      	orrs	r3, r2
 8000bde:	602b      	str	r3, [r5, #0]
} 
 8000be0:	0020      	movs	r0, r4
 8000be2:	bdf0      	pop	{r4, r5, r6, r7, pc}
  }
  /* Peripheral to Memory */
  else
  {
    /* Configure DMA Channel source address */
    hdma->Instance->CPAR = SrcAddress;
 8000be4:	60a1      	str	r1, [r4, #8]
    
    /* Configure DMA Channel destination address */
    hdma->Instance->CMAR = DstAddress;
 8000be6:	60e2      	str	r2, [r4, #12]
 8000be8:	e7ee      	b.n	8000bc8 <HAL_DMA_Start_IT+0x42>
  		hdma->Instance->CCR |= (DMA_IT_TC | DMA_IT_TE);
 8000bea:	230a      	movs	r3, #10
 8000bec:	4313      	orrs	r3, r2
  		hdma->Instance->CCR &= ~DMA_IT_HT;
 8000bee:	2204      	movs	r2, #4
  		hdma->Instance->CCR |= (DMA_IT_TC | DMA_IT_TE);
 8000bf0:	6023      	str	r3, [r4, #0]
  		hdma->Instance->CCR &= ~DMA_IT_HT;
 8000bf2:	6823      	ldr	r3, [r4, #0]
 8000bf4:	4393      	bics	r3, r2
 8000bf6:	e7ed      	b.n	8000bd4 <HAL_DMA_Start_IT+0x4e>
    __HAL_UNLOCK(hdma); 
 8000bf8:	77f7      	strb	r7, [r6, #31]
 8000bfa:	e7f1      	b.n	8000be0 <HAL_DMA_Start_IT+0x5a>

08000bfc <HAL_DMA_Abort>:
	 hdma->Instance->CCR &= ~(DMA_IT_TC | DMA_IT_HT | DMA_IT_TE);
 8000bfc:	210e      	movs	r1, #14
 8000bfe:	6803      	ldr	r3, [r0, #0]
{
 8000c00:	b510      	push	{r4, lr}
	 hdma->Instance->CCR &= ~(DMA_IT_TC | DMA_IT_HT | DMA_IT_TE);
 8000c02:	681a      	ldr	r2, [r3, #0]
	hdma->DmaBaseAddress->IFCR = (DMA_FLAG_GL1 << hdma->ChannelIndex);
 8000c04:	6c04      	ldr	r4, [r0, #64]	; 0x40
	 hdma->Instance->CCR &= ~(DMA_IT_TC | DMA_IT_HT | DMA_IT_TE);
 8000c06:	438a      	bics	r2, r1
 8000c08:	601a      	str	r2, [r3, #0]
	hdma->Instance->CCR &= ~DMA_CCR_EN;
 8000c0a:	2201      	movs	r2, #1
 8000c0c:	6819      	ldr	r1, [r3, #0]
 8000c0e:	4391      	bics	r1, r2
 8000c10:	6019      	str	r1, [r3, #0]
	hdma->DmaBaseAddress->IFCR = (DMA_FLAG_GL1 << hdma->ChannelIndex);
 8000c12:	0011      	movs	r1, r2
 8000c14:	40a1      	lsls	r1, r4
 8000c16:	6bc3      	ldr	r3, [r0, #60]	; 0x3c
 8000c18:	6059      	str	r1, [r3, #4]
	hdma->State = HAL_DMA_STATE_READY; 
 8000c1a:	1c83      	adds	r3, r0, #2
 8000c1c:	77da      	strb	r2, [r3, #31]
	__HAL_UNLOCK(hdma);
 8000c1e:	1883      	adds	r3, r0, r2
 8000c20:	2000      	movs	r0, #0
 8000c22:	77d8      	strb	r0, [r3, #31]
}
 8000c24:	bd10      	pop	{r4, pc}

08000c26 <HAL_DMA_Abort_IT>:
{  
 8000c26:	b570      	push	{r4, r5, r6, lr}
  if(HAL_DMA_STATE_BUSY != hdma->State)
 8000c28:	1c84      	adds	r4, r0, #2
 8000c2a:	7fe3      	ldrb	r3, [r4, #31]
 8000c2c:	2b02      	cmp	r3, #2
 8000c2e:	d004      	beq.n	8000c3a <HAL_DMA_Abort_IT+0x14>
    hdma->ErrorCode = HAL_DMA_ERROR_NO_XFER;
 8000c30:	2304      	movs	r3, #4
 8000c32:	6383      	str	r3, [r0, #56]	; 0x38
    status = HAL_ERROR;
 8000c34:	3b03      	subs	r3, #3
}
 8000c36:	0018      	movs	r0, r3
 8000c38:	bd70      	pop	{r4, r5, r6, pc}
    hdma->Instance->CCR &= ~(DMA_IT_TC | DMA_IT_HT | DMA_IT_TE);
 8000c3a:	210e      	movs	r1, #14
 8000c3c:	6803      	ldr	r3, [r0, #0]
    hdma->DmaBaseAddress->IFCR = DMA_FLAG_GL1 << hdma->ChannelIndex;
 8000c3e:	6c05      	ldr	r5, [r0, #64]	; 0x40
    hdma->Instance->CCR &= ~(DMA_IT_TC | DMA_IT_HT | DMA_IT_TE);
 8000c40:	681a      	ldr	r2, [r3, #0]
 8000c42:	438a      	bics	r2, r1
 8000c44:	601a      	str	r2, [r3, #0]
    hdma->Instance->CCR &= ~DMA_CCR_EN;
 8000c46:	2201      	movs	r2, #1
 8000c48:	6819      	ldr	r1, [r3, #0]
 8000c4a:	4391      	bics	r1, r2
 8000c4c:	6019      	str	r1, [r3, #0]
    hdma->DmaBaseAddress->IFCR = DMA_FLAG_GL1 << hdma->ChannelIndex;
 8000c4e:	0011      	movs	r1, r2
 8000c50:	40a9      	lsls	r1, r5
 8000c52:	6bc3      	ldr	r3, [r0, #60]	; 0x3c
 8000c54:	6059      	str	r1, [r3, #4]
    hdma->State = HAL_DMA_STATE_READY;
 8000c56:	77e2      	strb	r2, [r4, #31]
    __HAL_UNLOCK(hdma);
 8000c58:	2400      	movs	r4, #0
 8000c5a:	1883      	adds	r3, r0, r2
    if(hdma->XferAbortCallback != NULL)
 8000c5c:	6b42      	ldr	r2, [r0, #52]	; 0x34
    __HAL_UNLOCK(hdma);
 8000c5e:	77dc      	strb	r4, [r3, #31]
  HAL_StatusTypeDef status = HAL_OK;
 8000c60:	0013      	movs	r3, r2
    if(hdma->XferAbortCallback != NULL)
 8000c62:	42a2      	cmp	r2, r4
 8000c64:	d0e7      	beq.n	8000c36 <HAL_DMA_Abort_IT+0x10>
      hdma->XferAbortCallback(hdma);
 8000c66:	4790      	blx	r2
  HAL_StatusTypeDef status = HAL_OK;
 8000c68:	0023      	movs	r3, r4
 8000c6a:	e7e4      	b.n	8000c36 <HAL_DMA_Abort_IT+0x10>

08000c6c <HAL_DMA_IRQHandler>:
{
 8000c6c:	b5f8      	push	{r3, r4, r5, r6, r7, lr}
  if ((RESET != (flag_it & (DMA_FLAG_HT1 << hdma->ChannelIndex))) && (RESET != (source_it & DMA_IT_HT)))
 8000c6e:	2704      	movs	r7, #4
 8000c70:	003e      	movs	r6, r7
 8000c72:	6c01      	ldr	r1, [r0, #64]	; 0x40
	uint32_t flag_it = hdma->DmaBaseAddress->ISR;
 8000c74:	6bc2      	ldr	r2, [r0, #60]	; 0x3c
  if ((RESET != (flag_it & (DMA_FLAG_HT1 << hdma->ChannelIndex))) && (RESET != (source_it & DMA_IT_HT)))
 8000c76:	408e      	lsls	r6, r1
	uint32_t flag_it = hdma->DmaBaseAddress->ISR;
 8000c78:	6815      	ldr	r5, [r2, #0]
  uint32_t source_it = hdma->Instance->CCR;
 8000c7a:	6803      	ldr	r3, [r0, #0]
 8000c7c:	681c      	ldr	r4, [r3, #0]
  if ((RESET != (flag_it & (DMA_FLAG_HT1 << hdma->ChannelIndex))) && (RESET != (source_it & DMA_IT_HT)))
 8000c7e:	422e      	tst	r6, r5
 8000c80:	d00d      	beq.n	8000c9e <HAL_DMA_IRQHandler+0x32>
 8000c82:	423c      	tst	r4, r7
 8000c84:	d00b      	beq.n	8000c9e <HAL_DMA_IRQHandler+0x32>
  	if((hdma->Instance->CCR & DMA_CCR_CIRC) == 0U)
 8000c86:	6819      	ldr	r1, [r3, #0]
 8000c88:	0689      	lsls	r1, r1, #26
 8000c8a:	d402      	bmi.n	8000c92 <HAL_DMA_IRQHandler+0x26>
  		hdma->Instance->CCR &= ~DMA_IT_HT;
 8000c8c:	6819      	ldr	r1, [r3, #0]
 8000c8e:	43b9      	bics	r1, r7
 8000c90:	6019      	str	r1, [r3, #0]
  	if(hdma->XferHalfCpltCallback != NULL)
 8000c92:	6ac3      	ldr	r3, [r0, #44]	; 0x2c
  	hdma->DmaBaseAddress->IFCR = DMA_FLAG_HT1 << hdma->ChannelIndex;
 8000c94:	6056      	str	r6, [r2, #4]
  	if(hdma->XferHalfCpltCallback != NULL)
 8000c96:	2b00      	cmp	r3, #0
 8000c98:	d019      	beq.n	8000cce <HAL_DMA_IRQHandler+0x62>
    	hdma->XferErrorCallback(hdma);
 8000c9a:	4798      	blx	r3
}  
 8000c9c:	e017      	b.n	8000cce <HAL_DMA_IRQHandler+0x62>
  else if ((RESET != (flag_it & (DMA_FLAG_TC1 << hdma->ChannelIndex))) && (RESET != (source_it & DMA_IT_TC)))
 8000c9e:	2702      	movs	r7, #2
 8000ca0:	003e      	movs	r6, r7
 8000ca2:	408e      	lsls	r6, r1
 8000ca4:	422e      	tst	r6, r5
 8000ca6:	d013      	beq.n	8000cd0 <HAL_DMA_IRQHandler+0x64>
 8000ca8:	423c      	tst	r4, r7
 8000caa:	d011      	beq.n	8000cd0 <HAL_DMA_IRQHandler+0x64>
  	if((hdma->Instance->CCR & DMA_CCR_CIRC) == 0U)
 8000cac:	6819      	ldr	r1, [r3, #0]
 8000cae:	0689      	lsls	r1, r1, #26
 8000cb0:	d406      	bmi.n	8000cc0 <HAL_DMA_IRQHandler+0x54>
  		hdma->Instance->CCR &= ~(DMA_IT_TC | DMA_IT_TE);
 8000cb2:	240a      	movs	r4, #10
 8000cb4:	6819      	ldr	r1, [r3, #0]
 8000cb6:	43a1      	bics	r1, r4
 8000cb8:	6019      	str	r1, [r3, #0]
  		hdma->State = HAL_DMA_STATE_READY;
 8000cba:	2101      	movs	r1, #1
 8000cbc:	19c3      	adds	r3, r0, r7
 8000cbe:	77d9      	strb	r1, [r3, #31]
  	hdma->DmaBaseAddress->IFCR = DMA_FLAG_TC1 << hdma->ChannelIndex;
 8000cc0:	6056      	str	r6, [r2, #4]
  	__HAL_UNLOCK(hdma);
 8000cc2:	2200      	movs	r2, #0
 8000cc4:	1c43      	adds	r3, r0, #1
 8000cc6:	77da      	strb	r2, [r3, #31]
  	if(hdma->XferCpltCallback != NULL)
 8000cc8:	6a83      	ldr	r3, [r0, #40]	; 0x28
    if(hdma->XferErrorCallback != NULL)
 8000cca:	4293      	cmp	r3, r2
 8000ccc:	d1e5      	bne.n	8000c9a <HAL_DMA_IRQHandler+0x2e>
}  
 8000cce:	bdf8      	pop	{r3, r4, r5, r6, r7, pc}
  else if (( RESET != (flag_it & (DMA_FLAG_TE1 << hdma->ChannelIndex))) && (RESET != (source_it & DMA_IT_TE)))
 8000cd0:	2608      	movs	r6, #8
 8000cd2:	0037      	movs	r7, r6
 8000cd4:	408f      	lsls	r7, r1
 8000cd6:	423d      	tst	r5, r7
 8000cd8:	d0f9      	beq.n	8000cce <HAL_DMA_IRQHandler+0x62>
 8000cda:	4234      	tst	r4, r6
 8000cdc:	d0f7      	beq.n	8000cce <HAL_DMA_IRQHandler+0x62>
    hdma->Instance->CCR &= ~(DMA_IT_TC | DMA_IT_HT | DMA_IT_TE);
 8000cde:	250e      	movs	r5, #14
 8000ce0:	681c      	ldr	r4, [r3, #0]
 8000ce2:	43ac      	bics	r4, r5
 8000ce4:	601c      	str	r4, [r3, #0]
    hdma->DmaBaseAddress->IFCR = DMA_FLAG_GL1 << hdma->ChannelIndex;
 8000ce6:	2301      	movs	r3, #1
 8000ce8:	001c      	movs	r4, r3
 8000cea:	408c      	lsls	r4, r1
 8000cec:	6054      	str	r4, [r2, #4]
    hdma->State = HAL_DMA_STATE_READY;    
 8000cee:	1c82      	adds	r2, r0, #2
    hdma->ErrorCode = HAL_DMA_ERROR_TE;
 8000cf0:	6383      	str	r3, [r0, #56]	; 0x38
    hdma->State = HAL_DMA_STATE_READY;    
 8000cf2:	77d3      	strb	r3, [r2, #31]
    __HAL_UNLOCK(hdma); 
 8000cf4:	2200      	movs	r2, #0
 8000cf6:	18c3      	adds	r3, r0, r3
 8000cf8:	77da      	strb	r2, [r3, #31]
    if(hdma->XferErrorCallback != NULL)
 8000cfa:	6b03      	ldr	r3, [r0, #48]	; 0x30
 8000cfc:	e7e5      	b.n	8000cca <HAL_DMA_IRQHandler+0x5e>
	...

08000d00 <FLASH_SetErrorCode>:
  */
static void FLASH_SetErrorCode(void)
{
  uint32_t flags = 0U;
  
  if(__HAL_FLASH_GET_FLAG(FLASH_FLAG_WRPERR))
 8000d00:	2110      	movs	r1, #16
 8000d02:	4b0c      	ldr	r3, [pc, #48]	; (8000d34 <FLASH_SetErrorCode+0x34>)
{
 8000d04:	b530      	push	{r4, r5, lr}
  if(__HAL_FLASH_GET_FLAG(FLASH_FLAG_WRPERR))
 8000d06:	68d8      	ldr	r0, [r3, #12]
  uint32_t flags = 0U;
 8000d08:	2200      	movs	r2, #0
  if(__HAL_FLASH_GET_FLAG(FLASH_FLAG_WRPERR))
 8000d0a:	4208      	tst	r0, r1
 8000d0c:	d005      	beq.n	8000d1a <FLASH_SetErrorCode+0x1a>
  {
    pFlash.ErrorCode |= HAL_FLASH_ERROR_WRP;
 8000d0e:	480a      	ldr	r0, [pc, #40]	; (8000d38 <FLASH_SetErrorCode+0x38>)
 8000d10:	3202      	adds	r2, #2
 8000d12:	69c4      	ldr	r4, [r0, #28]
 8000d14:	4322      	orrs	r2, r4
 8000d16:	61c2      	str	r2, [r0, #28]
    flags |= FLASH_FLAG_WRPERR;
 8000d18:	000a      	movs	r2, r1
  }
  if(__HAL_FLASH_GET_FLAG(FLASH_FLAG_PGERR))
 8000d1a:	2004      	movs	r0, #4
 8000d1c:	68d9      	ldr	r1, [r3, #12]
 8000d1e:	4201      	tst	r1, r0
 8000d20:	d005      	beq.n	8000d2e <FLASH_SetErrorCode+0x2e>
  {
    pFlash.ErrorCode |= HAL_FLASH_ERROR_PROG;
 8000d22:	2101      	movs	r1, #1
 8000d24:	4c04      	ldr	r4, [pc, #16]	; (8000d38 <FLASH_SetErrorCode+0x38>)
    flags |= FLASH_FLAG_PGERR;
 8000d26:	4302      	orrs	r2, r0
    pFlash.ErrorCode |= HAL_FLASH_ERROR_PROG;
 8000d28:	69e5      	ldr	r5, [r4, #28]
 8000d2a:	4329      	orrs	r1, r5
 8000d2c:	61e1      	str	r1, [r4, #28]
  }
  /* Clear FLASH error pending bits */
  __HAL_FLASH_CLEAR_FLAG(flags);
 8000d2e:	60da      	str	r2, [r3, #12]
}  
 8000d30:	bd30      	pop	{r4, r5, pc}
 8000d32:	46c0      	nop			; (mov r8, r8)
 8000d34:	40022000 	.word	0x40022000
 8000d38:	200003f0 	.word	0x200003f0

08000d3c <HAL_FLASH_Unlock>:
  if (HAL_IS_BIT_SET(FLASH->CR, FLASH_CR_LOCK))
 8000d3c:	4b05      	ldr	r3, [pc, #20]	; (8000d54 <HAL_FLASH_Unlock+0x18>)
    return HAL_ERROR;
 8000d3e:	2001      	movs	r0, #1
  if (HAL_IS_BIT_SET(FLASH->CR, FLASH_CR_LOCK))
 8000d40:	691a      	ldr	r2, [r3, #16]
 8000d42:	0612      	lsls	r2, r2, #24
 8000d44:	d504      	bpl.n	8000d50 <HAL_FLASH_Unlock+0x14>
  return HAL_OK; 
 8000d46:	2000      	movs	r0, #0
    WRITE_REG(FLASH->KEYR, FLASH_KEY1);
 8000d48:	4a03      	ldr	r2, [pc, #12]	; (8000d58 <HAL_FLASH_Unlock+0x1c>)
 8000d4a:	605a      	str	r2, [r3, #4]
    WRITE_REG(FLASH->KEYR, FLASH_KEY2);
 8000d4c:	4a03      	ldr	r2, [pc, #12]	; (8000d5c <HAL_FLASH_Unlock+0x20>)
 8000d4e:	605a      	str	r2, [r3, #4]
}
 8000d50:	4770      	bx	lr
 8000d52:	46c0      	nop			; (mov r8, r8)
 8000d54:	40022000 	.word	0x40022000
 8000d58:	45670123 	.word	0x45670123
 8000d5c:	cdef89ab 	.word	0xcdef89ab

08000d60 <HAL_FLASH_Lock>:
  SET_BIT(FLASH->CR, FLASH_CR_LOCK);
 8000d60:	2380      	movs	r3, #128	; 0x80
 8000d62:	4a03      	ldr	r2, [pc, #12]	; (8000d70 <HAL_FLASH_Lock+0x10>)
}
 8000d64:	2000      	movs	r0, #0
  SET_BIT(FLASH->CR, FLASH_CR_LOCK);
 8000d66:	6911      	ldr	r1, [r2, #16]
 8000d68:	430b      	orrs	r3, r1
 8000d6a:	6113      	str	r3, [r2, #16]
}
 8000d6c:	4770      	bx	lr
 8000d6e:	46c0      	nop			; (mov r8, r8)
 8000d70:	40022000 	.word	0x40022000

08000d74 <HAL_FLASH_OB_Unlock>:
  if (HAL_IS_BIT_CLR(FLASH->CR, FLASH_CR_OPTWRE))
 8000d74:	2180      	movs	r1, #128	; 0x80
 8000d76:	4a06      	ldr	r2, [pc, #24]	; (8000d90 <HAL_FLASH_OB_Unlock+0x1c>)
 8000d78:	0089      	lsls	r1, r1, #2
 8000d7a:	6913      	ldr	r3, [r2, #16]
    return HAL_ERROR;
 8000d7c:	2001      	movs	r0, #1
  if (HAL_IS_BIT_CLR(FLASH->CR, FLASH_CR_OPTWRE))
 8000d7e:	400b      	ands	r3, r1
 8000d80:	d104      	bne.n	8000d8c <HAL_FLASH_OB_Unlock+0x18>
  return HAL_OK;  
 8000d82:	0018      	movs	r0, r3
    WRITE_REG(FLASH->OPTKEYR, FLASH_OPTKEY1);
 8000d84:	4903      	ldr	r1, [pc, #12]	; (8000d94 <HAL_FLASH_OB_Unlock+0x20>)
 8000d86:	6091      	str	r1, [r2, #8]
    WRITE_REG(FLASH->OPTKEYR, FLASH_OPTKEY2);
 8000d88:	4903      	ldr	r1, [pc, #12]	; (8000d98 <HAL_FLASH_OB_Unlock+0x24>)
 8000d8a:	6091      	str	r1, [r2, #8]
}
 8000d8c:	4770      	bx	lr
 8000d8e:	46c0      	nop			; (mov r8, r8)
 8000d90:	40022000 	.word	0x40022000
 8000d94:	45670123 	.word	0x45670123
 8000d98:	cdef89ab 	.word	0xcdef89ab

08000d9c <HAL_FLASH_OB_Lock>:
  CLEAR_BIT(FLASH->CR, FLASH_CR_OPTWRE);
 8000d9c:	4a03      	ldr	r2, [pc, #12]	; (8000dac <HAL_FLASH_OB_Lock+0x10>)
 8000d9e:	4904      	ldr	r1, [pc, #16]	; (8000db0 <HAL_FLASH_OB_Lock+0x14>)
 8000da0:	6913      	ldr	r3, [r2, #16]
}
 8000da2:	2000      	movs	r0, #0
  CLEAR_BIT(FLASH->CR, FLASH_CR_OPTWRE);
 8000da4:	400b      	ands	r3, r1
 8000da6:	6113      	str	r3, [r2, #16]
}
 8000da8:	4770      	bx	lr
 8000daa:	46c0      	nop			; (mov r8, r8)
 8000dac:	40022000 	.word	0x40022000
 8000db0:	fffffdff 	.word	0xfffffdff

08000db4 <FLASH_WaitForLastOperation>:
{
 8000db4:	b570      	push	{r4, r5, r6, lr}
 8000db6:	0004      	movs	r4, r0
  uint32_t tickstart = HAL_GetTick();
 8000db8:	f7ff fa5c 	bl	8000274 <HAL_GetTick>
  while(__HAL_FLASH_GET_FLAG(FLASH_FLAG_BSY)) 
 8000dbc:	2501      	movs	r5, #1
  uint32_t tickstart = HAL_GetTick();
 8000dbe:	0006      	movs	r6, r0
  while(__HAL_FLASH_GET_FLAG(FLASH_FLAG_BSY)) 
 8000dc0:	4b10      	ldr	r3, [pc, #64]	; (8000e04 <FLASH_WaitForLastOperation+0x50>)
 8000dc2:	001a      	movs	r2, r3
 8000dc4:	68d9      	ldr	r1, [r3, #12]
 8000dc6:	4229      	tst	r1, r5
 8000dc8:	d10f      	bne.n	8000dea <FLASH_WaitForLastOperation+0x36>
  if (__HAL_FLASH_GET_FLAG(FLASH_FLAG_EOP))
 8000dca:	2120      	movs	r1, #32
 8000dcc:	68d8      	ldr	r0, [r3, #12]
 8000dce:	4208      	tst	r0, r1
 8000dd0:	d000      	beq.n	8000dd4 <FLASH_WaitForLastOperation+0x20>
    __HAL_FLASH_CLEAR_FLAG(FLASH_FLAG_EOP);
 8000dd2:	60d9      	str	r1, [r3, #12]
  if(__HAL_FLASH_GET_FLAG(FLASH_FLAG_WRPERR)  || 
 8000dd4:	2310      	movs	r3, #16
 8000dd6:	68d0      	ldr	r0, [r2, #12]
 8000dd8:	4018      	ands	r0, r3
 8000dda:	d102      	bne.n	8000de2 <FLASH_WaitForLastOperation+0x2e>
     __HAL_FLASH_GET_FLAG(FLASH_FLAG_PGERR))
 8000ddc:	68d3      	ldr	r3, [r2, #12]
  if(__HAL_FLASH_GET_FLAG(FLASH_FLAG_WRPERR)  || 
 8000dde:	075b      	lsls	r3, r3, #29
 8000de0:	d508      	bpl.n	8000df4 <FLASH_WaitForLastOperation+0x40>
    FLASH_SetErrorCode();
 8000de2:	f7ff ff8d 	bl	8000d00 <FLASH_SetErrorCode>
    return HAL_ERROR;
 8000de6:	2001      	movs	r0, #1
 8000de8:	e004      	b.n	8000df4 <FLASH_WaitForLastOperation+0x40>
    if (Timeout != HAL_MAX_DELAY)
 8000dea:	1c61      	adds	r1, r4, #1
 8000dec:	d0ea      	beq.n	8000dc4 <FLASH_WaitForLastOperation+0x10>
      if((Timeout == 0U) || ((HAL_GetTick()-tickstart) > Timeout))
 8000dee:	2c00      	cmp	r4, #0
 8000df0:	d101      	bne.n	8000df6 <FLASH_WaitForLastOperation+0x42>
        return HAL_TIMEOUT;
 8000df2:	2003      	movs	r0, #3
}
 8000df4:	bd70      	pop	{r4, r5, r6, pc}
      if((Timeout == 0U) || ((HAL_GetTick()-tickstart) > Timeout))
 8000df6:	f7ff fa3d 	bl	8000274 <HAL_GetTick>
 8000dfa:	1b80      	subs	r0, r0, r6
 8000dfc:	4284      	cmp	r4, r0
 8000dfe:	d2df      	bcs.n	8000dc0 <FLASH_WaitForLastOperation+0xc>
 8000e00:	e7f7      	b.n	8000df2 <FLASH_WaitForLastOperation+0x3e>
 8000e02:	46c0      	nop			; (mov r8, r8)
 8000e04:	40022000 	.word	0x40022000

08000e08 <HAL_FLASH_OB_Launch>:
  SET_BIT(FLASH->CR, FLASH_CR_OBL_LAUNCH);
 8000e08:	2380      	movs	r3, #128	; 0x80
 8000e0a:	4a05      	ldr	r2, [pc, #20]	; (8000e20 <HAL_FLASH_OB_Launch+0x18>)
{
 8000e0c:	b510      	push	{r4, lr}
  SET_BIT(FLASH->CR, FLASH_CR_OBL_LAUNCH);
 8000e0e:	6911      	ldr	r1, [r2, #16]
 8000e10:	019b      	lsls	r3, r3, #6
 8000e12:	430b      	orrs	r3, r1
 8000e14:	6113      	str	r3, [r2, #16]
  return(FLASH_WaitForLastOperation(FLASH_TIMEOUT_VALUE));
 8000e16:	4803      	ldr	r0, [pc, #12]	; (8000e24 <HAL_FLASH_OB_Launch+0x1c>)
 8000e18:	f7ff ffcc 	bl	8000db4 <FLASH_WaitForLastOperation>
}
 8000e1c:	bd10      	pop	{r4, pc}
 8000e1e:	46c0      	nop			; (mov r8, r8)
 8000e20:	40022000 	.word	0x40022000
 8000e24:	0000c350 	.word	0x0000c350

08000e28 <FLASH_OB_RDP_LevelConfig>:
  *            @arg @ref OB_RDP_LEVEL_2 Full chip protection
  * @note   Warning: When enabling OB_RDP level 2 it's no more possible to go back to level 1 or 0
  * @retval HAL status
  */
static HAL_StatusTypeDef FLASH_OB_RDP_LevelConfig(uint8_t ReadProtectLevel)
{
 8000e28:	b570      	push	{r4, r5, r6, lr}
 8000e2a:	0006      	movs	r6, r0
  
  /* Check the parameters */
  assert_param(IS_OB_RDP_LEVEL(ReadProtectLevel));
  
  /* Wait for last operation to be completed */
  status = FLASH_WaitForLastOperation((uint32_t)FLASH_TIMEOUT_VALUE);
 8000e2c:	4812      	ldr	r0, [pc, #72]	; (8000e78 <FLASH_OB_RDP_LevelConfig+0x50>)
 8000e2e:	f7ff ffc1 	bl	8000db4 <FLASH_WaitForLastOperation>
  
  if(status == HAL_OK)
 8000e32:	2800      	cmp	r0, #0
 8000e34:	d11f      	bne.n	8000e76 <FLASH_OB_RDP_LevelConfig+0x4e>
  { 
    /* Clean the error context */
    pFlash.ErrorCode = HAL_FLASH_ERROR_NONE;
    
    /* If the previous operation is completed, proceed to erase the option bytes */
    SET_BIT(FLASH->CR, FLASH_CR_OPTER);
 8000e36:	2520      	movs	r5, #32
    pFlash.ErrorCode = HAL_FLASH_ERROR_NONE;
 8000e38:	4b10      	ldr	r3, [pc, #64]	; (8000e7c <FLASH_OB_RDP_LevelConfig+0x54>)
    SET_BIT(FLASH->CR, FLASH_CR_OPTER);
 8000e3a:	4c11      	ldr	r4, [pc, #68]	; (8000e80 <FLASH_OB_RDP_LevelConfig+0x58>)
    pFlash.ErrorCode = HAL_FLASH_ERROR_NONE;
 8000e3c:	61d8      	str	r0, [r3, #28]
    SET_BIT(FLASH->CR, FLASH_CR_OPTER);
 8000e3e:	6923      	ldr	r3, [r4, #16]
    SET_BIT(FLASH->CR, FLASH_CR_STRT);

    /* Wait for last operation to be completed */
    status = FLASH_WaitForLastOperation((uint32_t)FLASH_TIMEOUT_VALUE);
 8000e40:	480d      	ldr	r0, [pc, #52]	; (8000e78 <FLASH_OB_RDP_LevelConfig+0x50>)
    SET_BIT(FLASH->CR, FLASH_CR_OPTER);
 8000e42:	432b      	orrs	r3, r5
 8000e44:	6123      	str	r3, [r4, #16]
    SET_BIT(FLASH->CR, FLASH_CR_STRT);
 8000e46:	2340      	movs	r3, #64	; 0x40
 8000e48:	6922      	ldr	r2, [r4, #16]
 8000e4a:	4313      	orrs	r3, r2
 8000e4c:	6123      	str	r3, [r4, #16]
    status = FLASH_WaitForLastOperation((uint32_t)FLASH_TIMEOUT_VALUE);
 8000e4e:	f7ff ffb1 	bl	8000db4 <FLASH_WaitForLastOperation>

    /* If the erase operation is completed, disable the OPTER Bit */
    CLEAR_BIT(FLASH->CR, FLASH_CR_OPTER);
 8000e52:	6923      	ldr	r3, [r4, #16]
 8000e54:	43ab      	bics	r3, r5
 8000e56:	6123      	str	r3, [r4, #16]

    if(status == HAL_OK)
 8000e58:	2800      	cmp	r0, #0
 8000e5a:	d10c      	bne.n	8000e76 <FLASH_OB_RDP_LevelConfig+0x4e>
    {
      /* Enable the Option Bytes Programming operation */
      SET_BIT(FLASH->CR, FLASH_CR_OPTPG);
 8000e5c:	6923      	ldr	r3, [r4, #16]
 8000e5e:	3d10      	subs	r5, #16
 8000e60:	432b      	orrs	r3, r5
 8000e62:	6123      	str	r3, [r4, #16]
      
      WRITE_REG(OB->RDP, ReadProtectLevel);
 8000e64:	4b07      	ldr	r3, [pc, #28]	; (8000e84 <FLASH_OB_RDP_LevelConfig+0x5c>)
 8000e66:	b2b6      	uxth	r6, r6
 8000e68:	801e      	strh	r6, [r3, #0]
      
      /* Wait for last operation to be completed */
      status = FLASH_WaitForLastOperation((uint32_t)FLASH_TIMEOUT_VALUE); 
 8000e6a:	4803      	ldr	r0, [pc, #12]	; (8000e78 <FLASH_OB_RDP_LevelConfig+0x50>)
 8000e6c:	f7ff ffa2 	bl	8000db4 <FLASH_WaitForLastOperation>
      
      /* if the program operation is completed, disable the OPTPG Bit */
      CLEAR_BIT(FLASH->CR, FLASH_CR_OPTPG);
 8000e70:	6923      	ldr	r3, [r4, #16]
 8000e72:	43ab      	bics	r3, r5
 8000e74:	6123      	str	r3, [r4, #16]
    }
  }
  
  return status;
}
 8000e76:	bd70      	pop	{r4, r5, r6, pc}
 8000e78:	0000c350 	.word	0x0000c350
 8000e7c:	200003f0 	.word	0x200003f0
 8000e80:	40022000 	.word	0x40022000
 8000e84:	1ffff800 	.word	0x1ffff800

08000e88 <HAL_FLASHEx_OBErase>:
static uint32_t FLASH_OB_GetRDP(void)
{
  uint32_t tmp_reg = 0U;
  
  /* Read RDP level bits */
  tmp_reg = READ_BIT(FLASH->OBR, (FLASH_OBR_RDPRT1 | FLASH_OBR_RDPRT2));
 8000e88:	2206      	movs	r2, #6
{
 8000e8a:	b570      	push	{r4, r5, r6, lr}
  tmp_reg = READ_BIT(FLASH->OBR, (FLASH_OBR_RDPRT1 | FLASH_OBR_RDPRT2));
 8000e8c:	4c12      	ldr	r4, [pc, #72]	; (8000ed8 <HAL_FLASHEx_OBErase+0x50>)

  if (tmp_reg == FLASH_OBR_RDPRT1)
  {
    return OB_RDP_LEVEL_1;
 8000e8e:	25bb      	movs	r5, #187	; 0xbb
  tmp_reg = READ_BIT(FLASH->OBR, (FLASH_OBR_RDPRT1 | FLASH_OBR_RDPRT2));
 8000e90:	69e3      	ldr	r3, [r4, #28]
 8000e92:	4013      	ands	r3, r2
  if (tmp_reg == FLASH_OBR_RDPRT1)
 8000e94:	2b02      	cmp	r3, #2
 8000e96:	d003      	beq.n	8000ea0 <HAL_FLASHEx_OBErase+0x18>
  }
  else if (tmp_reg == FLASH_OBR_RDPRT2)
  {
    return OB_RDP_LEVEL_2;
 8000e98:	3511      	adds	r5, #17
  else if (tmp_reg == FLASH_OBR_RDPRT2)
 8000e9a:	2b04      	cmp	r3, #4
 8000e9c:	d000      	beq.n	8000ea0 <HAL_FLASHEx_OBErase+0x18>
  }
  else 
  {
    return OB_RDP_LEVEL_0;
 8000e9e:	3d22      	subs	r5, #34	; 0x22
  status = FLASH_WaitForLastOperation((uint32_t)FLASH_TIMEOUT_VALUE);
 8000ea0:	480e      	ldr	r0, [pc, #56]	; (8000edc <HAL_FLASHEx_OBErase+0x54>)
 8000ea2:	f7ff ff87 	bl	8000db4 <FLASH_WaitForLastOperation>
  if(status == HAL_OK)
 8000ea6:	2800      	cmp	r0, #0
 8000ea8:	d114      	bne.n	8000ed4 <HAL_FLASHEx_OBErase+0x4c>
    SET_BIT(FLASH->CR, FLASH_CR_OPTER);
 8000eaa:	2620      	movs	r6, #32
    pFlash.ErrorCode = HAL_FLASH_ERROR_NONE;
 8000eac:	4b0c      	ldr	r3, [pc, #48]	; (8000ee0 <HAL_FLASHEx_OBErase+0x58>)
 8000eae:	61d8      	str	r0, [r3, #28]
    SET_BIT(FLASH->CR, FLASH_CR_OPTER);
 8000eb0:	6923      	ldr	r3, [r4, #16]
    status = FLASH_WaitForLastOperation((uint32_t)FLASH_TIMEOUT_VALUE);
 8000eb2:	480a      	ldr	r0, [pc, #40]	; (8000edc <HAL_FLASHEx_OBErase+0x54>)
    SET_BIT(FLASH->CR, FLASH_CR_OPTER);
 8000eb4:	4333      	orrs	r3, r6
 8000eb6:	6123      	str	r3, [r4, #16]
    SET_BIT(FLASH->CR, FLASH_CR_STRT);
 8000eb8:	2340      	movs	r3, #64	; 0x40
 8000eba:	6922      	ldr	r2, [r4, #16]
 8000ebc:	4313      	orrs	r3, r2
 8000ebe:	6123      	str	r3, [r4, #16]
    status = FLASH_WaitForLastOperation((uint32_t)FLASH_TIMEOUT_VALUE);
 8000ec0:	f7ff ff78 	bl	8000db4 <FLASH_WaitForLastOperation>
    CLEAR_BIT(FLASH->CR, FLASH_CR_OPTER);
 8000ec4:	6923      	ldr	r3, [r4, #16]
 8000ec6:	43b3      	bics	r3, r6
 8000ec8:	6123      	str	r3, [r4, #16]
    if(status == HAL_OK)
 8000eca:	2800      	cmp	r0, #0
 8000ecc:	d102      	bne.n	8000ed4 <HAL_FLASHEx_OBErase+0x4c>
      status = FLASH_OB_RDP_LevelConfig(rdptmp);
 8000ece:	b2e8      	uxtb	r0, r5
 8000ed0:	f7ff ffaa 	bl	8000e28 <FLASH_OB_RDP_LevelConfig>
}
 8000ed4:	bd70      	pop	{r4, r5, r6, pc}
 8000ed6:	46c0      	nop			; (mov r8, r8)
 8000ed8:	40022000 	.word	0x40022000
 8000edc:	0000c350 	.word	0x0000c350
 8000ee0:	200003f0 	.word	0x200003f0

08000ee4 <HAL_FLASHEx_OBProgram>:
{
 8000ee4:	b5f7      	push	{r0, r1, r2, r4, r5, r6, r7, lr}
  __HAL_LOCK(&pFlash);
 8000ee6:	4c46      	ldr	r4, [pc, #280]	; (8001000 <HAL_FLASHEx_OBProgram+0x11c>)
{
 8000ee8:	0005      	movs	r5, r0
  __HAL_LOCK(&pFlash);
 8000eea:	7e23      	ldrb	r3, [r4, #24]
 8000eec:	2002      	movs	r0, #2
 8000eee:	2b01      	cmp	r3, #1
 8000ef0:	d02d      	beq.n	8000f4e <HAL_FLASHEx_OBProgram+0x6a>
  if((pOBInit->OptionType & OPTIONBYTE_WRP) == OPTIONBYTE_WRP)
 8000ef2:	682b      	ldr	r3, [r5, #0]
  __HAL_LOCK(&pFlash);
 8000ef4:	3801      	subs	r0, #1
 8000ef6:	7620      	strb	r0, [r4, #24]
  if((pOBInit->OptionType & OPTIONBYTE_WRP) == OPTIONBYTE_WRP)
 8000ef8:	4203      	tst	r3, r0
 8000efa:	d041      	beq.n	8000f80 <HAL_FLASHEx_OBProgram+0x9c>
 8000efc:	68ab      	ldr	r3, [r5, #8]
 8000efe:	4e41      	ldr	r6, [pc, #260]	; (8001004 <HAL_FLASHEx_OBProgram+0x120>)
 8000f00:	9301      	str	r3, [sp, #4]
    if (pOBInit->WRPState == OB_WRPSTATE_ENABLE)
 8000f02:	686b      	ldr	r3, [r5, #4]
  return (uint32_t)(READ_REG(FLASH->WRPR));
 8000f04:	6a37      	ldr	r7, [r6, #32]
    if (pOBInit->WRPState == OB_WRPSTATE_ENABLE)
 8000f06:	4283      	cmp	r3, r0
 8000f08:	d122      	bne.n	8000f50 <HAL_FLASHEx_OBProgram+0x6c>
  status = FLASH_WaitForLastOperation((uint32_t)FLASH_TIMEOUT_VALUE);
 8000f0a:	483f      	ldr	r0, [pc, #252]	; (8001008 <HAL_FLASHEx_OBProgram+0x124>)
 8000f0c:	f7ff ff52 	bl	8000db4 <FLASH_WaitForLastOperation>
  if(status == HAL_OK)
 8000f10:	2800      	cmp	r0, #0
 8000f12:	d11a      	bne.n	8000f4a <HAL_FLASHEx_OBProgram+0x66>
    pFlash.ErrorCode = HAL_FLASH_ERROR_NONE;
 8000f14:	61e0      	str	r0, [r4, #28]
    status = HAL_FLASHEx_OBErase();
 8000f16:	f7ff ffb7 	bl	8000e88 <HAL_FLASHEx_OBErase>
    if (status == HAL_OK)  
 8000f1a:	2800      	cmp	r0, #0
 8000f1c:	d115      	bne.n	8000f4a <HAL_FLASHEx_OBProgram+0x66>
  WriteProtectPage = (uint32_t)(~((~FLASH_OB_GetWRP()) | WriteProtectPage));
 8000f1e:	9b01      	ldr	r3, [sp, #4]
      SET_BIT(FLASH->CR, FLASH_CR_OPTPG);
 8000f20:	6932      	ldr	r2, [r6, #16]
  WriteProtectPage = (uint32_t)(~((~FLASH_OB_GetWRP()) | WriteProtectPage));
 8000f22:	439f      	bics	r7, r3
      SET_BIT(FLASH->CR, FLASH_CR_OPTPG);
 8000f24:	2310      	movs	r3, #16
  WRP0_Data = (uint16_t)(WriteProtectPage & OB_WRP_PAGES0TO31MASK);
 8000f26:	b2ff      	uxtb	r7, r7
      SET_BIT(FLASH->CR, FLASH_CR_OPTPG);
 8000f28:	4313      	orrs	r3, r2
 8000f2a:	6133      	str	r3, [r6, #16]
      if(WRP0_Data != 0xFFU)
 8000f2c:	2fff      	cmp	r7, #255	; 0xff
 8000f2e:	d006      	beq.n	8000f3e <HAL_FLASHEx_OBProgram+0x5a>
        OB->WRP0 &= WRP0_Data;
 8000f30:	4a36      	ldr	r2, [pc, #216]	; (800100c <HAL_FLASHEx_OBProgram+0x128>)
 8000f32:	8913      	ldrh	r3, [r2, #8]
 8000f34:	401f      	ands	r7, r3
 8000f36:	8117      	strh	r7, [r2, #8]
        status = FLASH_WaitForLastOperation((uint32_t)FLASH_TIMEOUT_VALUE);
 8000f38:	4833      	ldr	r0, [pc, #204]	; (8001008 <HAL_FLASHEx_OBProgram+0x124>)
 8000f3a:	f7ff ff3b 	bl	8000db4 <FLASH_WaitForLastOperation>
      CLEAR_BIT(FLASH->CR, FLASH_CR_OPTPG);
 8000f3e:	2210      	movs	r2, #16
 8000f40:	6933      	ldr	r3, [r6, #16]
 8000f42:	4393      	bics	r3, r2
 8000f44:	6133      	str	r3, [r6, #16]
    if (status != HAL_OK)
 8000f46:	2800      	cmp	r0, #0
 8000f48:	d01a      	beq.n	8000f80 <HAL_FLASHEx_OBProgram+0x9c>
  __HAL_UNLOCK(&pFlash);
 8000f4a:	2300      	movs	r3, #0
 8000f4c:	7623      	strb	r3, [r4, #24]
}
 8000f4e:	bdfe      	pop	{r1, r2, r3, r4, r5, r6, r7, pc}
  status = FLASH_WaitForLastOperation((uint32_t)FLASH_TIMEOUT_VALUE);
 8000f50:	482d      	ldr	r0, [pc, #180]	; (8001008 <HAL_FLASHEx_OBProgram+0x124>)
 8000f52:	f7ff ff2f 	bl	8000db4 <FLASH_WaitForLastOperation>
  if(status == HAL_OK)
 8000f56:	2800      	cmp	r0, #0
 8000f58:	d1f7      	bne.n	8000f4a <HAL_FLASHEx_OBProgram+0x66>
    pFlash.ErrorCode = HAL_FLASH_ERROR_NONE;
 8000f5a:	61e0      	str	r0, [r4, #28]
    status = HAL_FLASHEx_OBErase();
 8000f5c:	f7ff ff94 	bl	8000e88 <HAL_FLASHEx_OBErase>
    if (status == HAL_OK)  
 8000f60:	2800      	cmp	r0, #0
 8000f62:	d1f2      	bne.n	8000f4a <HAL_FLASHEx_OBProgram+0x66>
  WriteProtectPage = (FLASH_OB_GetWRP() | WriteProtectPage);
 8000f64:	9b01      	ldr	r3, [sp, #4]
      SET_BIT(FLASH->CR, FLASH_CR_OPTPG);
 8000f66:	6932      	ldr	r2, [r6, #16]
  WriteProtectPage = (FLASH_OB_GetWRP() | WriteProtectPage);
 8000f68:	433b      	orrs	r3, r7
  WRP0_Data = (uint16_t)(WriteProtectPage & OB_WRP_PAGES0TO31MASK);
 8000f6a:	b2df      	uxtb	r7, r3
      SET_BIT(FLASH->CR, FLASH_CR_OPTPG);
 8000f6c:	2310      	movs	r3, #16
 8000f6e:	4313      	orrs	r3, r2
 8000f70:	6133      	str	r3, [r6, #16]
      if(WRP0_Data != 0xFFU)
 8000f72:	2fff      	cmp	r7, #255	; 0xff
 8000f74:	d0e3      	beq.n	8000f3e <HAL_FLASHEx_OBProgram+0x5a>
        OB->WRP0 |= WRP0_Data;
 8000f76:	4b25      	ldr	r3, [pc, #148]	; (800100c <HAL_FLASHEx_OBProgram+0x128>)
 8000f78:	891a      	ldrh	r2, [r3, #8]
 8000f7a:	4317      	orrs	r7, r2
 8000f7c:	811f      	strh	r7, [r3, #8]
 8000f7e:	e7db      	b.n	8000f38 <HAL_FLASHEx_OBProgram+0x54>
  if((pOBInit->OptionType & OPTIONBYTE_RDP) == OPTIONBYTE_RDP)
 8000f80:	682b      	ldr	r3, [r5, #0]
 8000f82:	079b      	lsls	r3, r3, #30
 8000f84:	d504      	bpl.n	8000f90 <HAL_FLASHEx_OBProgram+0xac>
    status = FLASH_OB_RDP_LevelConfig(pOBInit->RDPLevel);
 8000f86:	7b28      	ldrb	r0, [r5, #12]
 8000f88:	f7ff ff4e 	bl	8000e28 <FLASH_OB_RDP_LevelConfig>
    if (status != HAL_OK)
 8000f8c:	2800      	cmp	r0, #0
 8000f8e:	d1dc      	bne.n	8000f4a <HAL_FLASHEx_OBProgram+0x66>
  if((pOBInit->OptionType & OPTIONBYTE_USER) == OPTIONBYTE_USER)
 8000f90:	682b      	ldr	r3, [r5, #0]
 8000f92:	075b      	lsls	r3, r3, #29
 8000f94:	d518      	bpl.n	8000fc8 <HAL_FLASHEx_OBProgram+0xe4>
    status = FLASH_OB_UserConfig(pOBInit->USERConfig);
 8000f96:	7b6b      	ldrb	r3, [r5, #13]
  status = FLASH_WaitForLastOperation((uint32_t)FLASH_TIMEOUT_VALUE);
 8000f98:	481b      	ldr	r0, [pc, #108]	; (8001008 <HAL_FLASHEx_OBProgram+0x124>)
    status = FLASH_OB_UserConfig(pOBInit->USERConfig);
 8000f9a:	9301      	str	r3, [sp, #4]
  status = FLASH_WaitForLastOperation((uint32_t)FLASH_TIMEOUT_VALUE);
 8000f9c:	f7ff ff0a 	bl	8000db4 <FLASH_WaitForLastOperation>
  if(status == HAL_OK)
 8000fa0:	2800      	cmp	r0, #0
 8000fa2:	d1d2      	bne.n	8000f4a <HAL_FLASHEx_OBProgram+0x66>
    SET_BIT(FLASH->CR, FLASH_CR_OPTPG); 
 8000fa4:	2710      	movs	r7, #16
 8000fa6:	4e17      	ldr	r6, [pc, #92]	; (8001004 <HAL_FLASHEx_OBProgram+0x120>)
    pFlash.ErrorCode = HAL_FLASH_ERROR_NONE;
 8000fa8:	61e0      	str	r0, [r4, #28]
    SET_BIT(FLASH->CR, FLASH_CR_OPTPG); 
 8000faa:	6933      	ldr	r3, [r6, #16]
    OB->USER = UserConfig;
 8000fac:	4a17      	ldr	r2, [pc, #92]	; (800100c <HAL_FLASHEx_OBProgram+0x128>)
    SET_BIT(FLASH->CR, FLASH_CR_OPTPG); 
 8000fae:	433b      	orrs	r3, r7
 8000fb0:	6133      	str	r3, [r6, #16]
    OB->USER = UserConfig;
 8000fb2:	466b      	mov	r3, sp
 8000fb4:	889b      	ldrh	r3, [r3, #4]
    status = FLASH_WaitForLastOperation((uint32_t)FLASH_TIMEOUT_VALUE);
 8000fb6:	4814      	ldr	r0, [pc, #80]	; (8001008 <HAL_FLASHEx_OBProgram+0x124>)
    OB->USER = UserConfig;
 8000fb8:	8053      	strh	r3, [r2, #2]
    status = FLASH_WaitForLastOperation((uint32_t)FLASH_TIMEOUT_VALUE);
 8000fba:	f7ff fefb 	bl	8000db4 <FLASH_WaitForLastOperation>
    CLEAR_BIT(FLASH->CR, FLASH_CR_OPTPG);
 8000fbe:	6933      	ldr	r3, [r6, #16]
 8000fc0:	43bb      	bics	r3, r7
 8000fc2:	6133      	str	r3, [r6, #16]
    if (status != HAL_OK)
 8000fc4:	2800      	cmp	r0, #0
 8000fc6:	d1c0      	bne.n	8000f4a <HAL_FLASHEx_OBProgram+0x66>
  if((pOBInit->OptionType & OPTIONBYTE_DATA) == OPTIONBYTE_DATA)
 8000fc8:	682b      	ldr	r3, [r5, #0]
 8000fca:	071b      	lsls	r3, r3, #28
 8000fcc:	d5bd      	bpl.n	8000f4a <HAL_FLASHEx_OBProgram+0x66>
    status = FLASH_OB_ProgramData(pOBInit->DATAAddress, pOBInit->DATAData);
 8000fce:	692b      	ldr	r3, [r5, #16]
  status = FLASH_WaitForLastOperation((uint32_t)FLASH_TIMEOUT_VALUE);
 8000fd0:	480d      	ldr	r0, [pc, #52]	; (8001008 <HAL_FLASHEx_OBProgram+0x124>)
    status = FLASH_OB_ProgramData(pOBInit->DATAAddress, pOBInit->DATAData);
 8000fd2:	9301      	str	r3, [sp, #4]
 8000fd4:	7d2e      	ldrb	r6, [r5, #20]
  status = FLASH_WaitForLastOperation((uint32_t)FLASH_TIMEOUT_VALUE);
 8000fd6:	f7ff feed 	bl	8000db4 <FLASH_WaitForLastOperation>
  if(status == HAL_OK)
 8000fda:	2800      	cmp	r0, #0
 8000fdc:	d1b5      	bne.n	8000f4a <HAL_FLASHEx_OBProgram+0x66>
    SET_BIT(FLASH->CR, FLASH_CR_OPTPG); 
 8000fde:	2710      	movs	r7, #16
 8000fe0:	4d08      	ldr	r5, [pc, #32]	; (8001004 <HAL_FLASHEx_OBProgram+0x120>)
    pFlash.ErrorCode = HAL_FLASH_ERROR_NONE;
 8000fe2:	61e0      	str	r0, [r4, #28]
    SET_BIT(FLASH->CR, FLASH_CR_OPTPG); 
 8000fe4:	692b      	ldr	r3, [r5, #16]
    *(__IO uint16_t*)Address = Data;
 8000fe6:	b2b6      	uxth	r6, r6
    SET_BIT(FLASH->CR, FLASH_CR_OPTPG); 
 8000fe8:	433b      	orrs	r3, r7
 8000fea:	612b      	str	r3, [r5, #16]
    *(__IO uint16_t*)Address = Data;
 8000fec:	9b01      	ldr	r3, [sp, #4]
    status = FLASH_WaitForLastOperation((uint32_t)FLASH_TIMEOUT_VALUE);
 8000fee:	4806      	ldr	r0, [pc, #24]	; (8001008 <HAL_FLASHEx_OBProgram+0x124>)
    *(__IO uint16_t*)Address = Data;
 8000ff0:	801e      	strh	r6, [r3, #0]
    status = FLASH_WaitForLastOperation((uint32_t)FLASH_TIMEOUT_VALUE);
 8000ff2:	f7ff fedf 	bl	8000db4 <FLASH_WaitForLastOperation>
    CLEAR_BIT(FLASH->CR, FLASH_CR_OPTPG);
 8000ff6:	692b      	ldr	r3, [r5, #16]
 8000ff8:	43bb      	bics	r3, r7
 8000ffa:	612b      	str	r3, [r5, #16]
 8000ffc:	e7a5      	b.n	8000f4a <HAL_FLASHEx_OBProgram+0x66>
 8000ffe:	46c0      	nop			; (mov r8, r8)
 8001000:	200003f0 	.word	0x200003f0
 8001004:	40022000 	.word	0x40022000
 8001008:	0000c350 	.word	0x0000c350
 800100c:	1ffff800 	.word	0x1ffff800

08001010 <HAL_FLASHEx_OBGetConfig>:
  pOBInit->OptionType = OPTIONBYTE_WRP | OPTIONBYTE_RDP | OPTIONBYTE_USER;
 8001010:	2307      	movs	r3, #7
  tmp_reg = READ_BIT(FLASH->OBR, (FLASH_OBR_RDPRT1 | FLASH_OBR_RDPRT2));
 8001012:	2106      	movs	r1, #6
  pOBInit->OptionType = OPTIONBYTE_WRP | OPTIONBYTE_RDP | OPTIONBYTE_USER;
 8001014:	6003      	str	r3, [r0, #0]
  return (uint32_t)(READ_REG(FLASH->WRPR));
 8001016:	4b08      	ldr	r3, [pc, #32]	; (8001038 <HAL_FLASHEx_OBGetConfig+0x28>)
 8001018:	6a1a      	ldr	r2, [r3, #32]
  pOBInit->WRPPage = FLASH_OB_GetWRP();
 800101a:	6082      	str	r2, [r0, #8]
  tmp_reg = READ_BIT(FLASH->OBR, (FLASH_OBR_RDPRT1 | FLASH_OBR_RDPRT2));
 800101c:	69da      	ldr	r2, [r3, #28]
 800101e:	400a      	ands	r2, r1
    return OB_RDP_LEVEL_1;
 8001020:	31b5      	adds	r1, #181	; 0xb5
  if (tmp_reg == FLASH_OBR_RDPRT1)
 8001022:	2a02      	cmp	r2, #2
 8001024:	d003      	beq.n	800102e <HAL_FLASHEx_OBGetConfig+0x1e>
    return OB_RDP_LEVEL_2;
 8001026:	3111      	adds	r1, #17
  else if (tmp_reg == FLASH_OBR_RDPRT2)
 8001028:	2a04      	cmp	r2, #4
 800102a:	d000      	beq.n	800102e <HAL_FLASHEx_OBGetConfig+0x1e>
    return OB_RDP_LEVEL_0;
 800102c:	3922      	subs	r1, #34	; 0x22
  pOBInit->RDPLevel = FLASH_OB_GetRDP();
 800102e:	7301      	strb	r1, [r0, #12]
  *         For few devices, following option bytes are available: nBOOT0(Bit3) & BOOT_SEL(Bit7).
  */
static uint8_t FLASH_OB_GetUser(void)
{
  /* Return the User Option Byte */
  return (uint8_t)((READ_REG(FLASH->OBR) & FLASH_OBR_USER) >> FLASH_POSITION_IWDGSW_BIT);
 8001030:	69db      	ldr	r3, [r3, #28]
 8001032:	0a1b      	lsrs	r3, r3, #8
  pOBInit->USERConfig = FLASH_OB_GetUser();
 8001034:	7343      	strb	r3, [r0, #13]
}
 8001036:	4770      	bx	lr
 8001038:	40022000 	.word	0x40022000

0800103c <HAL_GPIO_Init>:
  * @param  GPIO_Init pointer to a GPIO_InitTypeDef structure that contains
  *         the configuration information for the specified GPIO peripheral.
  * @retval None
  */
void HAL_GPIO_Init(GPIO_TypeDef  *GPIOx, GPIO_InitTypeDef *GPIO_Init)
{ 
 800103c:	b5f0      	push	{r4, r5, r6, r7, lr}
 800103e:	46c6      	mov	lr, r8
 8001040:	b500      	push	{lr}
 8001042:	b082      	sub	sp, #8
  uint32_t position = 0x00U;
 8001044:	2300      	movs	r3, #0
  assert_param(IS_GPIO_PIN(GPIO_Init->Pin));
  assert_param(IS_GPIO_MODE(GPIO_Init->Mode));
  assert_param(IS_GPIO_PULL(GPIO_Init->Pull)); 

  /* Configure the port pins */
  while (((GPIO_Init->Pin) >> position) != RESET)
 8001046:	e07b      	b.n	8001140 <HAL_GPIO_Init+0x104>
        /* Check the Alternate function parameters */
        assert_param(IS_GPIO_AF_INSTANCE(GPIOx));
        assert_param(IS_GPIO_AF(GPIO_Init->Alternate));
        
        /* Configure Alternate function mapped with the current IO */ 
        temp = GPIOx->AFR[position >> 3];
 8001048:	08df      	lsrs	r7, r3, #3
 800104a:	3708      	adds	r7, #8
 800104c:	00bf      	lsls	r7, r7, #2
 800104e:	583e      	ldr	r6, [r7, r0]
        CLEAR_BIT(temp, 0xFU << ((uint32_t)(position & 0x07U) * 4U)) ;      
 8001050:	2507      	movs	r5, #7
 8001052:	401d      	ands	r5, r3
 8001054:	00ad      	lsls	r5, r5, #2
 8001056:	240f      	movs	r4, #15
 8001058:	40ac      	lsls	r4, r5
 800105a:	43a6      	bics	r6, r4
        SET_BIT(temp, (uint32_t)(GPIO_Init->Alternate) << (((uint32_t)position & 0x07U) * 4U));       
 800105c:	690c      	ldr	r4, [r1, #16]
 800105e:	40ac      	lsls	r4, r5
 8001060:	0025      	movs	r5, r4
 8001062:	4335      	orrs	r5, r6
        GPIOx->AFR[position >> 3U] = temp;
 8001064:	503d      	str	r5, [r7, r0]
 8001066:	e07b      	b.n	8001160 <HAL_GPIO_Init+0x124>
          (GPIO_Init->Mode == GPIO_MODE_OUTPUT_OD) || (GPIO_Init->Mode == GPIO_MODE_AF_OD))
      {
        /* Check the Speed parameter */
        assert_param(IS_GPIO_SPEED(GPIO_Init->Speed));
        /* Configure the IO Speed */
        temp = GPIOx->OSPEEDR; 
 8001068:	6885      	ldr	r5, [r0, #8]
        CLEAR_BIT(temp, GPIO_OSPEEDER_OSPEEDR0 << (position * 2U));
 800106a:	4664      	mov	r4, ip
 800106c:	4025      	ands	r5, r4
        SET_BIT(temp, GPIO_Init->Speed << (position * 2U));
 800106e:	68ce      	ldr	r6, [r1, #12]
 8001070:	40be      	lsls	r6, r7
 8001072:	4335      	orrs	r5, r6
        GPIOx->OSPEEDR = temp;
 8001074:	6085      	str	r5, [r0, #8]

        /* Configure the IO Output Type */
        temp = GPIOx->OTYPER;
 8001076:	6845      	ldr	r5, [r0, #4]
        CLEAR_BIT(temp, GPIO_OTYPER_OT_0 << position) ;
 8001078:	002c      	movs	r4, r5
 800107a:	4645      	mov	r5, r8
 800107c:	43ac      	bics	r4, r5
        SET_BIT(temp, ((GPIO_Init->Mode & GPIO_OUTPUT_TYPE) >> 4U) << position);
 800107e:	684d      	ldr	r5, [r1, #4]
 8001080:	092e      	lsrs	r6, r5, #4
 8001082:	2501      	movs	r5, #1
 8001084:	4035      	ands	r5, r6
 8001086:	409d      	lsls	r5, r3
 8001088:	432c      	orrs	r4, r5
        GPIOx->OTYPER = temp;
 800108a:	6044      	str	r4, [r0, #4]
      }

      /* Activate the Pull-up or Pull down resistor for the current IO */
      temp = GPIOx->PUPDR;
 800108c:	68c4      	ldr	r4, [r0, #12]
      CLEAR_BIT(temp, GPIO_PUPDR_PUPDR0 << (position * 2U));
 800108e:	4665      	mov	r5, ip
 8001090:	402c      	ands	r4, r5
      SET_BIT(temp, (GPIO_Init->Pull) << (position * 2U));
 8001092:	688d      	ldr	r5, [r1, #8]
 8001094:	40bd      	lsls	r5, r7
 8001096:	432c      	orrs	r4, r5
      GPIOx->PUPDR = temp;
 8001098:	60c4      	str	r4, [r0, #12]

      /*--------------------- EXTI Mode Configuration ------------------------*/
      /* Configure the External Interrupt or event for the current IO */
      if((GPIO_Init->Mode & EXTI_MODE) == EXTI_MODE) 
 800109a:	684c      	ldr	r4, [r1, #4]
 800109c:	00e4      	lsls	r4, r4, #3
 800109e:	d54e      	bpl.n	800113e <HAL_GPIO_Init+0x102>
      {
        /* Enable SYSCFG Clock */
        __HAL_RCC_SYSCFG_CLK_ENABLE();
 80010a0:	4d41      	ldr	r5, [pc, #260]	; (80011a8 <HAL_GPIO_Init+0x16c>)
 80010a2:	69ae      	ldr	r6, [r5, #24]
 80010a4:	2401      	movs	r4, #1
 80010a6:	4326      	orrs	r6, r4
 80010a8:	61ae      	str	r6, [r5, #24]
 80010aa:	69ad      	ldr	r5, [r5, #24]
 80010ac:	402c      	ands	r4, r5
 80010ae:	9401      	str	r4, [sp, #4]
 80010b0:	9c01      	ldr	r4, [sp, #4]
  
        temp = SYSCFG->EXTICR[position >> 2];
 80010b2:	089c      	lsrs	r4, r3, #2
 80010b4:	1ca5      	adds	r5, r4, #2
 80010b6:	00ad      	lsls	r5, r5, #2
 80010b8:	4e3c      	ldr	r6, [pc, #240]	; (80011ac <HAL_GPIO_Init+0x170>)
 80010ba:	59ae      	ldr	r6, [r5, r6]
        CLEAR_BIT(temp, (0x0FU) << (4U * (position & 0x03U)));
 80010bc:	2503      	movs	r5, #3
 80010be:	401d      	ands	r5, r3
 80010c0:	00ad      	lsls	r5, r5, #2
 80010c2:	270f      	movs	r7, #15
 80010c4:	40af      	lsls	r7, r5
 80010c6:	43be      	bics	r6, r7
        SET_BIT(temp, (GPIO_GET_INDEX(GPIOx)) << (4U * (position & 0x03U)));
 80010c8:	2790      	movs	r7, #144	; 0x90
 80010ca:	05ff      	lsls	r7, r7, #23
 80010cc:	42b8      	cmp	r0, r7
 80010ce:	d062      	beq.n	8001196 <HAL_GPIO_Init+0x15a>
 80010d0:	4f37      	ldr	r7, [pc, #220]	; (80011b0 <HAL_GPIO_Init+0x174>)
 80010d2:	42b8      	cmp	r0, r7
 80010d4:	d061      	beq.n	800119a <HAL_GPIO_Init+0x15e>
 80010d6:	4f37      	ldr	r7, [pc, #220]	; (80011b4 <HAL_GPIO_Init+0x178>)
 80010d8:	42b8      	cmp	r0, r7
 80010da:	d05a      	beq.n	8001192 <HAL_GPIO_Init+0x156>
 80010dc:	2705      	movs	r7, #5
 80010de:	40af      	lsls	r7, r5
 80010e0:	003d      	movs	r5, r7
 80010e2:	4335      	orrs	r5, r6
        SYSCFG->EXTICR[position >> 2] = temp;
 80010e4:	3402      	adds	r4, #2
 80010e6:	00a4      	lsls	r4, r4, #2
 80010e8:	4e30      	ldr	r6, [pc, #192]	; (80011ac <HAL_GPIO_Init+0x170>)
 80010ea:	51a5      	str	r5, [r4, r6]
                  
        /* Clear EXTI line configuration */
        temp = EXTI->IMR;
 80010ec:	4c32      	ldr	r4, [pc, #200]	; (80011b8 <HAL_GPIO_Init+0x17c>)
 80010ee:	6825      	ldr	r5, [r4, #0]
        CLEAR_BIT(temp, (uint32_t)iocurrent);
 80010f0:	43d4      	mvns	r4, r2
 80010f2:	0026      	movs	r6, r4
 80010f4:	402e      	ands	r6, r5
        if((GPIO_Init->Mode & GPIO_MODE_IT) == GPIO_MODE_IT)
 80010f6:	684f      	ldr	r7, [r1, #4]
 80010f8:	03ff      	lsls	r7, r7, #15
 80010fa:	d501      	bpl.n	8001100 <HAL_GPIO_Init+0xc4>
        {
          SET_BIT(temp, iocurrent); 
 80010fc:	4315      	orrs	r5, r2
 80010fe:	002e      	movs	r6, r5
        }
        EXTI->IMR = temp;
 8001100:	4d2d      	ldr	r5, [pc, #180]	; (80011b8 <HAL_GPIO_Init+0x17c>)
 8001102:	602e      	str	r6, [r5, #0]

        temp = EXTI->EMR;
 8001104:	686d      	ldr	r5, [r5, #4]
        CLEAR_BIT(temp, (uint32_t)iocurrent);      
 8001106:	002e      	movs	r6, r5
 8001108:	4026      	ands	r6, r4
        if((GPIO_Init->Mode & GPIO_MODE_EVT) == GPIO_MODE_EVT)
 800110a:	684f      	ldr	r7, [r1, #4]
 800110c:	03bf      	lsls	r7, r7, #14
 800110e:	d501      	bpl.n	8001114 <HAL_GPIO_Init+0xd8>
        { 
          SET_BIT(temp, iocurrent); 
 8001110:	4315      	orrs	r5, r2
 8001112:	002e      	movs	r6, r5
        }
        EXTI->EMR = temp;
 8001114:	4d28      	ldr	r5, [pc, #160]	; (80011b8 <HAL_GPIO_Init+0x17c>)
 8001116:	606e      	str	r6, [r5, #4]
  
        /* Clear Rising Falling edge configuration */
        temp = EXTI->RTSR;
 8001118:	68ad      	ldr	r5, [r5, #8]
        CLEAR_BIT(temp, (uint32_t)iocurrent); 
 800111a:	002e      	movs	r6, r5
 800111c:	4026      	ands	r6, r4
        if((GPIO_Init->Mode & RISING_EDGE) == RISING_EDGE)
 800111e:	684f      	ldr	r7, [r1, #4]
 8001120:	02ff      	lsls	r7, r7, #11
 8001122:	d501      	bpl.n	8001128 <HAL_GPIO_Init+0xec>
        {
          SET_BIT(temp, iocurrent); 
 8001124:	4315      	orrs	r5, r2
 8001126:	002e      	movs	r6, r5
        }
        EXTI->RTSR = temp;
 8001128:	4d23      	ldr	r5, [pc, #140]	; (80011b8 <HAL_GPIO_Init+0x17c>)
 800112a:	60ae      	str	r6, [r5, #8]

        temp = EXTI->FTSR;
 800112c:	68ed      	ldr	r5, [r5, #12]
        CLEAR_BIT(temp, (uint32_t)iocurrent); 
 800112e:	402c      	ands	r4, r5
        if((GPIO_Init->Mode & FALLING_EDGE) == FALLING_EDGE)
 8001130:	684e      	ldr	r6, [r1, #4]
 8001132:	02b6      	lsls	r6, r6, #10
 8001134:	d501      	bpl.n	800113a <HAL_GPIO_Init+0xfe>
        {
          SET_BIT(temp, iocurrent); 
 8001136:	432a      	orrs	r2, r5
 8001138:	0014      	movs	r4, r2
        }
        EXTI->FTSR = temp;
 800113a:	4a1f      	ldr	r2, [pc, #124]	; (80011b8 <HAL_GPIO_Init+0x17c>)
 800113c:	60d4      	str	r4, [r2, #12]
      }
    }
    
    position++;
 800113e:	3301      	adds	r3, #1
  while (((GPIO_Init->Pin) >> position) != RESET)
 8001140:	680a      	ldr	r2, [r1, #0]
 8001142:	0014      	movs	r4, r2
 8001144:	40dc      	lsrs	r4, r3
 8001146:	d02a      	beq.n	800119e <HAL_GPIO_Init+0x162>
    iocurrent = (GPIO_Init->Pin) & (1U << position);
 8001148:	2401      	movs	r4, #1
 800114a:	409c      	lsls	r4, r3
 800114c:	46a0      	mov	r8, r4
 800114e:	4022      	ands	r2, r4
    if(iocurrent)
 8001150:	d0f5      	beq.n	800113e <HAL_GPIO_Init+0x102>
      if((GPIO_Init->Mode == GPIO_MODE_AF_PP) || (GPIO_Init->Mode == GPIO_MODE_AF_OD)) 
 8001152:	684d      	ldr	r5, [r1, #4]
 8001154:	2d02      	cmp	r5, #2
 8001156:	d100      	bne.n	800115a <HAL_GPIO_Init+0x11e>
 8001158:	e776      	b.n	8001048 <HAL_GPIO_Init+0xc>
 800115a:	2d12      	cmp	r5, #18
 800115c:	d100      	bne.n	8001160 <HAL_GPIO_Init+0x124>
 800115e:	e773      	b.n	8001048 <HAL_GPIO_Init+0xc>
      temp = GPIOx->MODER;
 8001160:	6806      	ldr	r6, [r0, #0]
      CLEAR_BIT(temp, GPIO_MODER_MODER0 << (position * 2U));   
 8001162:	005f      	lsls	r7, r3, #1
 8001164:	2503      	movs	r5, #3
 8001166:	002c      	movs	r4, r5
 8001168:	40bc      	lsls	r4, r7
 800116a:	43e4      	mvns	r4, r4
 800116c:	46a4      	mov	ip, r4
 800116e:	4026      	ands	r6, r4
      SET_BIT(temp, (GPIO_Init->Mode & GPIO_MODE) << (position * 2U));
 8001170:	684c      	ldr	r4, [r1, #4]
 8001172:	4025      	ands	r5, r4
 8001174:	40bd      	lsls	r5, r7
 8001176:	4335      	orrs	r5, r6
      GPIOx->MODER = temp;
 8001178:	6005      	str	r5, [r0, #0]
      if ((GPIO_Init->Mode == GPIO_MODE_OUTPUT_PP) || (GPIO_Init->Mode == GPIO_MODE_AF_PP) ||
 800117a:	684d      	ldr	r5, [r1, #4]
 800117c:	1e6e      	subs	r6, r5, #1
 800117e:	2e01      	cmp	r6, #1
 8001180:	d800      	bhi.n	8001184 <HAL_GPIO_Init+0x148>
 8001182:	e771      	b.n	8001068 <HAL_GPIO_Init+0x2c>
 8001184:	2d11      	cmp	r5, #17
 8001186:	d100      	bne.n	800118a <HAL_GPIO_Init+0x14e>
 8001188:	e76e      	b.n	8001068 <HAL_GPIO_Init+0x2c>
          (GPIO_Init->Mode == GPIO_MODE_OUTPUT_OD) || (GPIO_Init->Mode == GPIO_MODE_AF_OD))
 800118a:	2d12      	cmp	r5, #18
 800118c:	d000      	beq.n	8001190 <HAL_GPIO_Init+0x154>
 800118e:	e77d      	b.n	800108c <HAL_GPIO_Init+0x50>
 8001190:	e76a      	b.n	8001068 <HAL_GPIO_Init+0x2c>
        SET_BIT(temp, (GPIO_GET_INDEX(GPIOx)) << (4U * (position & 0x03U)));
 8001192:	2702      	movs	r7, #2
 8001194:	e7a3      	b.n	80010de <HAL_GPIO_Init+0xa2>
 8001196:	2700      	movs	r7, #0
 8001198:	e7a1      	b.n	80010de <HAL_GPIO_Init+0xa2>
 800119a:	2701      	movs	r7, #1
 800119c:	e79f      	b.n	80010de <HAL_GPIO_Init+0xa2>
  } 
}
 800119e:	b002      	add	sp, #8
 80011a0:	bc04      	pop	{r2}
 80011a2:	4690      	mov	r8, r2
 80011a4:	bdf0      	pop	{r4, r5, r6, r7, pc}
 80011a6:	46c0      	nop			; (mov r8, r8)
 80011a8:	40021000 	.word	0x40021000
 80011ac:	40010000 	.word	0x40010000
 80011b0:	48000400 	.word	0x48000400
 80011b4:	48000800 	.word	0x48000800
 80011b8:	40010400 	.word	0x40010400

080011bc <HAL_GPIO_WritePin>:
{
  /* Check the parameters */
  assert_param(IS_GPIO_PIN(GPIO_Pin));
  assert_param(IS_GPIO_PIN_ACTION(PinState));

  if (PinState != GPIO_PIN_RESET)
 80011bc:	2a00      	cmp	r2, #0
 80011be:	d101      	bne.n	80011c4 <HAL_GPIO_WritePin+0x8>
  {
    GPIOx->BSRR = (uint32_t)GPIO_Pin;
  }
  else
  {
    GPIOx->BRR = (uint32_t)GPIO_Pin;
 80011c0:	6281      	str	r1, [r0, #40]	; 0x28
  }
}
 80011c2:	4770      	bx	lr
    GPIOx->BSRR = (uint32_t)GPIO_Pin;
 80011c4:	6181      	str	r1, [r0, #24]
 80011c6:	e7fc      	b.n	80011c2 <HAL_GPIO_WritePin+0x6>

080011c8 <HAL_GPIO_TogglePin>:
void HAL_GPIO_TogglePin(GPIO_TypeDef* GPIOx, uint16_t GPIO_Pin)
{
  /* Check the parameters */
  assert_param(IS_GPIO_PIN(GPIO_Pin));

  GPIOx->ODR ^= GPIO_Pin;
 80011c8:	6943      	ldr	r3, [r0, #20]
 80011ca:	4059      	eors	r1, r3
 80011cc:	6141      	str	r1, [r0, #20]
}
 80011ce:	4770      	bx	lr

080011d0 <HAL_IWDG_Init>:
  * @param  hiwdg  pointer to a IWDG_HandleTypeDef structure that contains
  *                the configuration information for the specified IWDG module.
  * @retval HAL status
  */
HAL_StatusTypeDef HAL_IWDG_Init(IWDG_HandleTypeDef *hiwdg)
{
 80011d0:	b570      	push	{r4, r5, r6, lr}
 80011d2:	1e04      	subs	r4, r0, #0
  uint32_t tickstart;

  /* Check the IWDG handle allocation */
  if(hiwdg == NULL)
 80011d4:	d024      	beq.n	8001220 <HAL_IWDG_Init+0x50>
  assert_param(IS_IWDG_PRESCALER(hiwdg->Init.Prescaler));
  assert_param(IS_IWDG_RELOAD(hiwdg->Init.Reload));
  assert_param(IS_IWDG_WINDOW(hiwdg->Init.Window));

  /* Enable IWDG. LSI is turned on automaticaly */
  __HAL_IWDG_START(hiwdg);
 80011d6:	6803      	ldr	r3, [r0, #0]
 80011d8:	4a12      	ldr	r2, [pc, #72]	; (8001224 <HAL_IWDG_Init+0x54>)
 80011da:	601a      	str	r2, [r3, #0]

  /* Enable write access to IWDG_PR, IWDG_RLR and IWDG_WINR registers by writing
  0x5555 in KR */
  IWDG_ENABLE_WRITE_ACCESS(hiwdg);
 80011dc:	6803      	ldr	r3, [r0, #0]
 80011de:	4a12      	ldr	r2, [pc, #72]	; (8001228 <HAL_IWDG_Init+0x58>)
 80011e0:	601a      	str	r2, [r3, #0]

  /* Write to IWDG registers the Prescaler & Reload values to work with */
  hiwdg->Instance->PR = hiwdg->Init.Prescaler;
 80011e2:	6803      	ldr	r3, [r0, #0]
 80011e4:	6842      	ldr	r2, [r0, #4]
 80011e6:	605a      	str	r2, [r3, #4]
  hiwdg->Instance->RLR = hiwdg->Init.Reload;
 80011e8:	6803      	ldr	r3, [r0, #0]
 80011ea:	6882      	ldr	r2, [r0, #8]
 80011ec:	609a      	str	r2, [r3, #8]

  /* Check pending flag, if previous update not done, return timeout */
  tickstart = HAL_GetTick();
 80011ee:	f7ff f841 	bl	8000274 <HAL_GetTick>
 80011f2:	0005      	movs	r5, r0

   /* Wait for register to be updated */
  while(hiwdg->Instance->SR != RESET)
 80011f4:	6823      	ldr	r3, [r4, #0]
 80011f6:	68da      	ldr	r2, [r3, #12]
 80011f8:	2a00      	cmp	r2, #0
 80011fa:	d006      	beq.n	800120a <HAL_IWDG_Init+0x3a>
  {
    if((HAL_GetTick() - tickstart ) > HAL_IWDG_DEFAULT_TIMEOUT)
 80011fc:	f7ff f83a 	bl	8000274 <HAL_GetTick>
 8001200:	1b40      	subs	r0, r0, r5
 8001202:	2827      	cmp	r0, #39	; 0x27
 8001204:	d9f6      	bls.n	80011f4 <HAL_IWDG_Init+0x24>
    {
      return HAL_TIMEOUT;
 8001206:	2003      	movs	r0, #3
    __HAL_IWDG_RELOAD_COUNTER(hiwdg);
  }

  /* Return function status */
  return HAL_OK;
}
 8001208:	bd70      	pop	{r4, r5, r6, pc}
  if(hiwdg->Instance->WINR != hiwdg->Init.Window)
 800120a:	6919      	ldr	r1, [r3, #16]
 800120c:	68e2      	ldr	r2, [r4, #12]
 800120e:	4291      	cmp	r1, r2
 8001210:	d002      	beq.n	8001218 <HAL_IWDG_Init+0x48>
    hiwdg->Instance->WINR = hiwdg->Init.Window;
 8001212:	611a      	str	r2, [r3, #16]
  return HAL_OK;
 8001214:	2000      	movs	r0, #0
 8001216:	e7f7      	b.n	8001208 <HAL_IWDG_Init+0x38>
    __HAL_IWDG_RELOAD_COUNTER(hiwdg);
 8001218:	4a04      	ldr	r2, [pc, #16]	; (800122c <HAL_IWDG_Init+0x5c>)
 800121a:	601a      	str	r2, [r3, #0]
  return HAL_OK;
 800121c:	2000      	movs	r0, #0
 800121e:	e7f3      	b.n	8001208 <HAL_IWDG_Init+0x38>
    return HAL_ERROR;
 8001220:	2001      	movs	r0, #1
 8001222:	e7f1      	b.n	8001208 <HAL_IWDG_Init+0x38>
 8001224:	0000cccc 	.word	0x0000cccc
 8001228:	00005555 	.word	0x00005555
 800122c:	0000aaaa 	.word	0x0000aaaa

08001230 <HAL_IWDG_Refresh>:
  * @retval HAL status
  */
HAL_StatusTypeDef HAL_IWDG_Refresh(IWDG_HandleTypeDef *hiwdg)
{
  /* Reload IWDG counter with value defined in the reload register */
  __HAL_IWDG_RELOAD_COUNTER(hiwdg);
 8001230:	6803      	ldr	r3, [r0, #0]
 8001232:	4a02      	ldr	r2, [pc, #8]	; (800123c <HAL_IWDG_Refresh+0xc>)
 8001234:	601a      	str	r2, [r3, #0]

  /* Return function status */
  return HAL_OK;
}
 8001236:	2000      	movs	r0, #0
 8001238:	4770      	bx	lr
 800123a:	46c0      	nop			; (mov r8, r8)
 800123c:	0000aaaa 	.word	0x0000aaaa

08001240 <HAL_PCD_Init>:
  *         parameters in the PCD_InitTypeDef and create the associated handle.
  * @param  hpcd PCD handle
  * @retval HAL status
  */
HAL_StatusTypeDef HAL_PCD_Init(PCD_HandleTypeDef *hpcd)
{ 
 8001240:	b570      	push	{r4, r5, r6, lr}
 8001242:	1e04      	subs	r4, r0, #0
  uint32_t i = 0U;

  uint32_t wInterrupt_Mask = 0U;
  
  /* Check the PCD handle allocation */
  if(hpcd == NULL)
 8001244:	d058      	beq.n	80012f8 <HAL_PCD_Init+0xb8>
  }
  
  /* Check the parameters */
  assert_param(IS_PCD_ALL_INSTANCE(hpcd->Instance));

  if(hpcd->State == HAL_PCD_STATE_RESET)
 8001246:	23ea      	movs	r3, #234	; 0xea
 8001248:	33ff      	adds	r3, #255	; 0xff
 800124a:	5cc3      	ldrb	r3, [r0, r3]
 800124c:	2b00      	cmp	r3, #0
 800124e:	d005      	beq.n	800125c <HAL_PCD_Init+0x1c>
  
    /* Init the low level hardware : GPIO, CLOCK, NVIC... */
    HAL_PCD_MspInit(hpcd);
  }

  hpcd->State = HAL_PCD_STATE_BUSY;
 8001250:	2203      	movs	r2, #3
 8001252:	23ea      	movs	r3, #234	; 0xea
 8001254:	33ff      	adds	r3, #255	; 0xff
 8001256:	54e2      	strb	r2, [r4, r3]
 
 /* Init endpoints structures */
 for (i = 0U; i < hpcd->Init.dev_endpoints ; i++)
 8001258:	2200      	movs	r2, #0
 800125a:	e018      	b.n	800128e <HAL_PCD_Init+0x4e>
    hpcd->Lock = HAL_UNLOCKED;
 800125c:	2200      	movs	r2, #0
 800125e:	33e9      	adds	r3, #233	; 0xe9
 8001260:	33ff      	adds	r3, #255	; 0xff
 8001262:	54c2      	strb	r2, [r0, r3]
    HAL_PCD_MspInit(hpcd);
 8001264:	f003 faf2 	bl	800484c <HAL_PCD_MspInit>
 8001268:	e7f2      	b.n	8001250 <HAL_PCD_Init+0x10>
 {
   /* Init ep structure */
   hpcd->IN_ep[i].is_in = 1U;
 800126a:	00d1      	lsls	r1, r2, #3
 800126c:	1a89      	subs	r1, r1, r2
 800126e:	008b      	lsls	r3, r1, #2
 8001270:	18e3      	adds	r3, r4, r3
 8001272:	0019      	movs	r1, r3
 8001274:	3129      	adds	r1, #41	; 0x29
 8001276:	2001      	movs	r0, #1
 8001278:	7008      	strb	r0, [r1, #0]
   hpcd->IN_ep[i].num = i;
 800127a:	3901      	subs	r1, #1
 800127c:	700a      	strb	r2, [r1, #0]
   /* Control until ep is actvated */
   hpcd->IN_ep[i].type = PCD_EP_TYPE_CTRL;
 800127e:	0018      	movs	r0, r3
 8001280:	302b      	adds	r0, #43	; 0x2b
 8001282:	2100      	movs	r1, #0
 8001284:	7001      	strb	r1, [r0, #0]
   hpcd->IN_ep[i].maxpacket =  0U;
 8001286:	6359      	str	r1, [r3, #52]	; 0x34
   hpcd->IN_ep[i].xfer_buff = 0U;
 8001288:	6399      	str	r1, [r3, #56]	; 0x38
   hpcd->IN_ep[i].xfer_len = 0U;
 800128a:	63d9      	str	r1, [r3, #60]	; 0x3c
 for (i = 0U; i < hpcd->Init.dev_endpoints ; i++)
 800128c:	3201      	adds	r2, #1
 800128e:	6860      	ldr	r0, [r4, #4]
 8001290:	4282      	cmp	r2, r0
 8001292:	d3ea      	bcc.n	800126a <HAL_PCD_Init+0x2a>
 8001294:	2200      	movs	r2, #0
 8001296:	e014      	b.n	80012c2 <HAL_PCD_Init+0x82>
 }
 
 for (i = 0U; i < hpcd->Init.dev_endpoints ; i++)
 {
   hpcd->OUT_ep[i].is_in = 0U;
 8001298:	00d1      	lsls	r1, r2, #3
 800129a:	1a89      	subs	r1, r1, r2
 800129c:	008b      	lsls	r3, r1, #2
 800129e:	18e3      	adds	r3, r4, r3
 80012a0:	001d      	movs	r5, r3
 80012a2:	350a      	adds	r5, #10
 80012a4:	35ff      	adds	r5, #255	; 0xff
 80012a6:	2100      	movs	r1, #0
 80012a8:	7029      	strb	r1, [r5, #0]
   hpcd->OUT_ep[i].num = i;
 80012aa:	3d01      	subs	r5, #1
 80012ac:	702a      	strb	r2, [r5, #0]
   /* Control until ep is activated */
   hpcd->OUT_ep[i].type = PCD_EP_TYPE_CTRL;
 80012ae:	3503      	adds	r5, #3
 80012b0:	7029      	strb	r1, [r5, #0]
   hpcd->OUT_ep[i].maxpacket = 0U;
 80012b2:	3509      	adds	r5, #9
 80012b4:	6029      	str	r1, [r5, #0]
   hpcd->OUT_ep[i].xfer_buff = 0U;
 80012b6:	3504      	adds	r5, #4
 80012b8:	6029      	str	r1, [r5, #0]
   hpcd->OUT_ep[i].xfer_len = 0U;
 80012ba:	331d      	adds	r3, #29
 80012bc:	33ff      	adds	r3, #255	; 0xff
 80012be:	6019      	str	r1, [r3, #0]
 for (i = 0U; i < hpcd->Init.dev_endpoints ; i++)
 80012c0:	3201      	adds	r2, #1
 80012c2:	4282      	cmp	r2, r0
 80012c4:	d3e8      	bcc.n	8001298 <HAL_PCD_Init+0x58>
 }
  
 /* Init Device */
 /*CNTR_FRES = 1*/
 hpcd->Instance->CNTR = USB_CNTR_FRES;
 80012c6:	2340      	movs	r3, #64	; 0x40
 80012c8:	2201      	movs	r2, #1
 80012ca:	6821      	ldr	r1, [r4, #0]
 80012cc:	52ca      	strh	r2, [r1, r3]
 
 /*CNTR_FRES = 0*/
 hpcd->Instance->CNTR = 0;
 80012ce:	2200      	movs	r2, #0
 80012d0:	6821      	ldr	r1, [r4, #0]
 80012d2:	52ca      	strh	r2, [r1, r3]
 
 /*Clear pending interrupts*/
 hpcd->Instance->ISTR = 0;
 80012d4:	2144      	movs	r1, #68	; 0x44
 80012d6:	6820      	ldr	r0, [r4, #0]
 80012d8:	5242      	strh	r2, [r0, r1]
 
  /*Set Btable Adress*/
 hpcd->Instance->BTABLE = BTABLE_ADDRESS;
 80012da:	310c      	adds	r1, #12
 80012dc:	6820      	ldr	r0, [r4, #0]
 80012de:	5242      	strh	r2, [r0, r1]
  /*set wInterrupt_Mask global variable*/
 wInterrupt_Mask = USB_CNTR_CTRM  | USB_CNTR_WKUPM | USB_CNTR_SUSPM | USB_CNTR_ERRM \
   | USB_CNTR_SOFM | USB_CNTR_ESOFM | USB_CNTR_RESETM;
  
  /*Set interrupt mask*/
  hpcd->Instance->CNTR = wInterrupt_Mask;
 80012e0:	4a06      	ldr	r2, [pc, #24]	; (80012fc <HAL_PCD_Init+0xbc>)
 80012e2:	6821      	ldr	r1, [r4, #0]
 80012e4:	52ca      	strh	r2, [r1, r3]
  
  hpcd->USB_Address = 0U;
 80012e6:	3b1c      	subs	r3, #28
 80012e8:	2200      	movs	r2, #0
 80012ea:	54e2      	strb	r2, [r4, r3]
  hpcd->State= HAL_PCD_STATE_READY;
 80012ec:	23ea      	movs	r3, #234	; 0xea
 80012ee:	33ff      	adds	r3, #255	; 0xff
 80012f0:	2201      	movs	r2, #1
 80012f2:	54e2      	strb	r2, [r4, r3]

 return HAL_OK;
 80012f4:	2000      	movs	r0, #0
}
 80012f6:	bd70      	pop	{r4, r5, r6, pc}
    return HAL_ERROR;
 80012f8:	2001      	movs	r0, #1
 80012fa:	e7fc      	b.n	80012f6 <HAL_PCD_Init+0xb6>
 80012fc:	ffffbf00 	.word	0xffffbf00

08001300 <HAL_PCD_Start>:
  * @retval HAL status
  */
HAL_StatusTypeDef HAL_PCD_Start(PCD_HandleTypeDef *hpcd)
{ 
  /* Enabling DP Pull-Down bit to Connect internal pull-up on USB DP line */
  hpcd->Instance->BCDR |= USB_BCDR_DPPU;
 8001300:	6801      	ldr	r1, [r0, #0]
 8001302:	2258      	movs	r2, #88	; 0x58
 8001304:	5a8b      	ldrh	r3, [r1, r2]
 8001306:	4803      	ldr	r0, [pc, #12]	; (8001314 <HAL_PCD_Start+0x14>)
 8001308:	4303      	orrs	r3, r0
 800130a:	b29b      	uxth	r3, r3
 800130c:	528b      	strh	r3, [r1, r2]
  
  return HAL_OK;
}
 800130e:	2000      	movs	r0, #0
 8001310:	4770      	bx	lr
 8001312:	46c0      	nop			; (mov r8, r8)
 8001314:	ffff8000 	.word	0xffff8000

08001318 <HAL_PCD_SetAddress>:
  * @param  address new device address
  * @retval HAL status
  */
HAL_StatusTypeDef HAL_PCD_SetAddress(PCD_HandleTypeDef *hpcd, uint8_t address)
{
   __HAL_LOCK(hpcd); 
 8001318:	23f4      	movs	r3, #244	; 0xf4
 800131a:	005b      	lsls	r3, r3, #1
 800131c:	5cc3      	ldrb	r3, [r0, r3]
 800131e:	2b01      	cmp	r3, #1
 8001320:	d013      	beq.n	800134a <HAL_PCD_SetAddress+0x32>
 8001322:	2201      	movs	r2, #1
 8001324:	23f4      	movs	r3, #244	; 0xf4
 8001326:	005b      	lsls	r3, r3, #1
 8001328:	54c2      	strb	r2, [r0, r3]

   if(address == 0U) 
 800132a:	2900      	cmp	r1, #0
 800132c:	d10a      	bne.n	8001344 <HAL_PCD_SetAddress+0x2c>
   {
     /* set device address and enable function */
     hpcd->Instance->DADDR = USB_DADDR_EF;
 800132e:	327f      	adds	r2, #127	; 0x7f
 8001330:	3b9d      	subs	r3, #157	; 0x9d
 8001332:	3bff      	subs	r3, #255	; 0xff
 8001334:	6801      	ldr	r1, [r0, #0]
 8001336:	52ca      	strh	r2, [r1, r3]
   else /* USB Address will be applied later */
   {
     hpcd->USB_Address = address;
   }

  __HAL_UNLOCK(hpcd);   
 8001338:	2200      	movs	r2, #0
 800133a:	23f4      	movs	r3, #244	; 0xf4
 800133c:	005b      	lsls	r3, r3, #1
 800133e:	54c2      	strb	r2, [r0, r3]
  return HAL_OK;
 8001340:	2000      	movs	r0, #0
}
 8001342:	4770      	bx	lr
     hpcd->USB_Address = address;
 8001344:	2324      	movs	r3, #36	; 0x24
 8001346:	54c1      	strb	r1, [r0, r3]
 8001348:	e7f6      	b.n	8001338 <HAL_PCD_SetAddress+0x20>
   __HAL_LOCK(hpcd); 
 800134a:	2002      	movs	r0, #2
 800134c:	e7f9      	b.n	8001342 <HAL_PCD_SetAddress+0x2a>
	...

08001350 <HAL_PCD_EP_Open>:
  * @param  ep_mps endpoint max packert size
  * @param  ep_type endpoint type   
  * @retval HAL status
  */
HAL_StatusTypeDef HAL_PCD_EP_Open(PCD_HandleTypeDef *hpcd, uint8_t ep_addr, uint16_t ep_mps, uint8_t ep_type)
{
 8001350:	b570      	push	{r4, r5, r6, lr}
  HAL_StatusTypeDef  ret = HAL_OK;
  PCD_EPTypeDef *ep;
  
  if ((ep_addr & 0x80U) == 0x80U)
 8001352:	b24e      	sxtb	r6, r1
 8001354:	2e00      	cmp	r6, #0
 8001356:	db65      	blt.n	8001424 <HAL_PCD_EP_Open+0xd4>
  {
    ep = &hpcd->IN_ep[ep_addr & 0x7FU];
  }
  else
  {
    ep = &hpcd->OUT_ep[ep_addr & 0x7FU];
 8001358:	247f      	movs	r4, #127	; 0x7f
 800135a:	400c      	ands	r4, r1
 800135c:	00e5      	lsls	r5, r4, #3
 800135e:	1b2d      	subs	r5, r5, r4
 8001360:	00ac      	lsls	r4, r5, #2
 8001362:	3409      	adds	r4, #9
 8001364:	34ff      	adds	r4, #255	; 0xff
 8001366:	1904      	adds	r4, r0, r4
  }
  ep->num   = ep_addr & 0x7FU;
 8001368:	257f      	movs	r5, #127	; 0x7f
 800136a:	400d      	ands	r5, r1
 800136c:	7025      	strb	r5, [r4, #0]
  
  ep->is_in = (0x80U & ep_addr) != 0U;
 800136e:	0ff6      	lsrs	r6, r6, #31
 8001370:	7066      	strb	r6, [r4, #1]
  ep->maxpacket = ep_mps;
 8001372:	60e2      	str	r2, [r4, #12]
  ep->type = ep_type;
 8001374:	70e3      	strb	r3, [r4, #3]
  
  __HAL_LOCK(hpcd); 
 8001376:	23f4      	movs	r3, #244	; 0xf4
 8001378:	005b      	lsls	r3, r3, #1
 800137a:	5cc3      	ldrb	r3, [r0, r3]
 800137c:	2b01      	cmp	r3, #1
 800137e:	d100      	bne.n	8001382 <HAL_PCD_EP_Open+0x32>
 8001380:	e175      	b.n	800166e <HAL_PCD_EP_Open+0x31e>
 8001382:	2201      	movs	r2, #1
 8001384:	23f4      	movs	r3, #244	; 0xf4
 8001386:	005b      	lsls	r3, r3, #1
 8001388:	54c2      	strb	r2, [r0, r3]

  /* initialize Endpoint */
  switch (ep->type)
 800138a:	78e3      	ldrb	r3, [r4, #3]
 800138c:	2b01      	cmp	r3, #1
 800138e:	d100      	bne.n	8001392 <HAL_PCD_EP_Open+0x42>
 8001390:	e074      	b.n	800147c <HAL_PCD_EP_Open+0x12c>
 8001392:	2b00      	cmp	r3, #0
 8001394:	d04e      	beq.n	8001434 <HAL_PCD_EP_Open+0xe4>
 8001396:	2b02      	cmp	r3, #2
 8001398:	d059      	beq.n	800144e <HAL_PCD_EP_Open+0xfe>
 800139a:	2b03      	cmp	r3, #3
 800139c:	d061      	beq.n	8001462 <HAL_PCD_EP_Open+0x112>
    break;
  default:
    break;
  } 
  
  PCD_SET_EP_ADDRESS(hpcd->Instance, ep->num, ep->num);
 800139e:	7822      	ldrb	r2, [r4, #0]
 80013a0:	0093      	lsls	r3, r2, #2
 80013a2:	6801      	ldr	r1, [r0, #0]
 80013a4:	468c      	mov	ip, r1
 80013a6:	4463      	add	r3, ip
 80013a8:	8819      	ldrh	r1, [r3, #0]
 80013aa:	4db2      	ldr	r5, [pc, #712]	; (8001674 <HAL_PCD_EP_Open+0x324>)
 80013ac:	4029      	ands	r1, r5
 80013ae:	430a      	orrs	r2, r1
 80013b0:	49b1      	ldr	r1, [pc, #708]	; (8001678 <HAL_PCD_EP_Open+0x328>)
 80013b2:	430a      	orrs	r2, r1
 80013b4:	801a      	strh	r2, [r3, #0]
  
  if (ep->doublebuffer == 0U) 
 80013b6:	7aa3      	ldrb	r3, [r4, #10]
 80013b8:	2b00      	cmp	r3, #0
 80013ba:	d000      	beq.n	80013be <HAL_PCD_EP_Open+0x6e>
 80013bc:	e0b5      	b.n	800152a <HAL_PCD_EP_Open+0x1da>
  {
    if (ep->is_in)
 80013be:	7863      	ldrb	r3, [r4, #1]
 80013c0:	2b00      	cmp	r3, #0
 80013c2:	d100      	bne.n	80013c6 <HAL_PCD_EP_Open+0x76>
 80013c4:	e067      	b.n	8001496 <HAL_PCD_EP_Open+0x146>
    {
      /*Set the endpoint Transmit buffer address */
      PCD_SET_EP_TX_ADDRESS(hpcd->Instance, ep->num, ep->pmaadress);
 80013c6:	6801      	ldr	r1, [r0, #0]
 80013c8:	2350      	movs	r3, #80	; 0x50
 80013ca:	5acb      	ldrh	r3, [r1, r3]
 80013cc:	7822      	ldrb	r2, [r4, #0]
 80013ce:	00d2      	lsls	r2, r2, #3
 80013d0:	189b      	adds	r3, r3, r2
 80013d2:	185b      	adds	r3, r3, r1
 80013d4:	2280      	movs	r2, #128	; 0x80
 80013d6:	00d2      	lsls	r2, r2, #3
 80013d8:	4694      	mov	ip, r2
 80013da:	4463      	add	r3, ip
 80013dc:	88a2      	ldrh	r2, [r4, #4]
 80013de:	2101      	movs	r1, #1
 80013e0:	438a      	bics	r2, r1
 80013e2:	801a      	strh	r2, [r3, #0]
      PCD_CLEAR_TX_DTOG(hpcd->Instance, ep->num)
 80013e4:	7823      	ldrb	r3, [r4, #0]
 80013e6:	009b      	lsls	r3, r3, #2
 80013e8:	6802      	ldr	r2, [r0, #0]
 80013ea:	4694      	mov	ip, r2
 80013ec:	4463      	add	r3, ip
 80013ee:	881a      	ldrh	r2, [r3, #0]
 80013f0:	0651      	lsls	r1, r2, #25
 80013f2:	d503      	bpl.n	80013fc <HAL_PCD_EP_Open+0xac>
 80013f4:	402a      	ands	r2, r5
 80013f6:	49a1      	ldr	r1, [pc, #644]	; (800167c <HAL_PCD_EP_Open+0x32c>)
 80013f8:	430a      	orrs	r2, r1
 80013fa:	801a      	strh	r2, [r3, #0]
      /* Configure NAK status for the Endpoint*/
      PCD_SET_EP_TX_STATUS(hpcd->Instance, ep->num, USB_EP_TX_NAK) 
 80013fc:	7822      	ldrb	r2, [r4, #0]
 80013fe:	0092      	lsls	r2, r2, #2
 8001400:	6803      	ldr	r3, [r0, #0]
 8001402:	469c      	mov	ip, r3
 8001404:	4462      	add	r2, ip
 8001406:	8813      	ldrh	r3, [r2, #0]
 8001408:	499d      	ldr	r1, [pc, #628]	; (8001680 <HAL_PCD_EP_Open+0x330>)
 800140a:	400b      	ands	r3, r1
 800140c:	2120      	movs	r1, #32
 800140e:	404b      	eors	r3, r1
 8001410:	b29b      	uxth	r3, r3
 8001412:	4999      	ldr	r1, [pc, #612]	; (8001678 <HAL_PCD_EP_Open+0x328>)
 8001414:	430b      	orrs	r3, r1
 8001416:	8013      	strh	r3, [r2, #0]
      PCD_SET_EP_TX_STATUS(hpcd->Instance, ep->num, USB_EP_TX_DIS)
      PCD_SET_EP_RX_STATUS(hpcd->Instance, ep->num, USB_EP_RX_DIS)
    }
  } 
  
  __HAL_UNLOCK(hpcd);   
 8001418:	2200      	movs	r2, #0
 800141a:	23f4      	movs	r3, #244	; 0xf4
 800141c:	005b      	lsls	r3, r3, #1
 800141e:	54c2      	strb	r2, [r0, r3]
  return ret;
 8001420:	2000      	movs	r0, #0
}
 8001422:	bd70      	pop	{r4, r5, r6, pc}
    ep = &hpcd->IN_ep[ep_addr & 0x7FU];
 8001424:	247f      	movs	r4, #127	; 0x7f
 8001426:	400c      	ands	r4, r1
 8001428:	00e5      	lsls	r5, r4, #3
 800142a:	1b2d      	subs	r5, r5, r4
 800142c:	00ac      	lsls	r4, r5, #2
 800142e:	3428      	adds	r4, #40	; 0x28
 8001430:	1904      	adds	r4, r0, r4
 8001432:	e799      	b.n	8001368 <HAL_PCD_EP_Open+0x18>
    PCD_SET_EPTYPE(hpcd->Instance, ep->num, USB_EP_CONTROL);
 8001434:	7823      	ldrb	r3, [r4, #0]
 8001436:	009b      	lsls	r3, r3, #2
 8001438:	6802      	ldr	r2, [r0, #0]
 800143a:	4694      	mov	ip, r2
 800143c:	4463      	add	r3, ip
 800143e:	881a      	ldrh	r2, [r3, #0]
 8001440:	4990      	ldr	r1, [pc, #576]	; (8001684 <HAL_PCD_EP_Open+0x334>)
 8001442:	4011      	ands	r1, r2
 8001444:	2280      	movs	r2, #128	; 0x80
 8001446:	0092      	lsls	r2, r2, #2
 8001448:	430a      	orrs	r2, r1
 800144a:	801a      	strh	r2, [r3, #0]
    break;
 800144c:	e7a7      	b.n	800139e <HAL_PCD_EP_Open+0x4e>
    PCD_SET_EPTYPE(hpcd->Instance, ep->num, USB_EP_BULK);
 800144e:	7823      	ldrb	r3, [r4, #0]
 8001450:	009b      	lsls	r3, r3, #2
 8001452:	6802      	ldr	r2, [r0, #0]
 8001454:	4694      	mov	ip, r2
 8001456:	4463      	add	r3, ip
 8001458:	881a      	ldrh	r2, [r3, #0]
 800145a:	498a      	ldr	r1, [pc, #552]	; (8001684 <HAL_PCD_EP_Open+0x334>)
 800145c:	400a      	ands	r2, r1
 800145e:	801a      	strh	r2, [r3, #0]
    break;
 8001460:	e79d      	b.n	800139e <HAL_PCD_EP_Open+0x4e>
    PCD_SET_EPTYPE(hpcd->Instance, ep->num, USB_EP_INTERRUPT);
 8001462:	7823      	ldrb	r3, [r4, #0]
 8001464:	009b      	lsls	r3, r3, #2
 8001466:	6802      	ldr	r2, [r0, #0]
 8001468:	4694      	mov	ip, r2
 800146a:	4463      	add	r3, ip
 800146c:	881a      	ldrh	r2, [r3, #0]
 800146e:	4985      	ldr	r1, [pc, #532]	; (8001684 <HAL_PCD_EP_Open+0x334>)
 8001470:	4011      	ands	r1, r2
 8001472:	22c0      	movs	r2, #192	; 0xc0
 8001474:	00d2      	lsls	r2, r2, #3
 8001476:	430a      	orrs	r2, r1
 8001478:	801a      	strh	r2, [r3, #0]
    break;
 800147a:	e790      	b.n	800139e <HAL_PCD_EP_Open+0x4e>
    PCD_SET_EPTYPE(hpcd->Instance, ep->num, USB_EP_ISOCHRONOUS);
 800147c:	7823      	ldrb	r3, [r4, #0]
 800147e:	009b      	lsls	r3, r3, #2
 8001480:	6802      	ldr	r2, [r0, #0]
 8001482:	4694      	mov	ip, r2
 8001484:	4463      	add	r3, ip
 8001486:	881a      	ldrh	r2, [r3, #0]
 8001488:	497e      	ldr	r1, [pc, #504]	; (8001684 <HAL_PCD_EP_Open+0x334>)
 800148a:	4011      	ands	r1, r2
 800148c:	2280      	movs	r2, #128	; 0x80
 800148e:	00d2      	lsls	r2, r2, #3
 8001490:	430a      	orrs	r2, r1
 8001492:	801a      	strh	r2, [r3, #0]
    break;
 8001494:	e783      	b.n	800139e <HAL_PCD_EP_Open+0x4e>
      PCD_SET_EP_RX_ADDRESS(hpcd->Instance, ep->num, ep->pmaadress);
 8001496:	6801      	ldr	r1, [r0, #0]
 8001498:	2550      	movs	r5, #80	; 0x50
 800149a:	5b4b      	ldrh	r3, [r1, r5]
 800149c:	7822      	ldrb	r2, [r4, #0]
 800149e:	00d2      	lsls	r2, r2, #3
 80014a0:	189b      	adds	r3, r3, r2
 80014a2:	185b      	adds	r3, r3, r1
 80014a4:	4a78      	ldr	r2, [pc, #480]	; (8001688 <HAL_PCD_EP_Open+0x338>)
 80014a6:	4694      	mov	ip, r2
 80014a8:	4463      	add	r3, ip
 80014aa:	88a2      	ldrh	r2, [r4, #4]
 80014ac:	2101      	movs	r1, #1
 80014ae:	438a      	bics	r2, r1
 80014b0:	801a      	strh	r2, [r3, #0]
      PCD_SET_EP_RX_CNT(hpcd->Instance, ep->num, ep->maxpacket)
 80014b2:	6801      	ldr	r1, [r0, #0]
 80014b4:	5b4b      	ldrh	r3, [r1, r5]
 80014b6:	7822      	ldrb	r2, [r4, #0]
 80014b8:	00d2      	lsls	r2, r2, #3
 80014ba:	189b      	adds	r3, r3, r2
 80014bc:	185b      	adds	r3, r3, r1
 80014be:	4a73      	ldr	r2, [pc, #460]	; (800168c <HAL_PCD_EP_Open+0x33c>)
 80014c0:	4694      	mov	ip, r2
 80014c2:	4463      	add	r3, ip
 80014c4:	68e1      	ldr	r1, [r4, #12]
 80014c6:	293e      	cmp	r1, #62	; 0x3e
 80014c8:	d926      	bls.n	8001518 <HAL_PCD_EP_Open+0x1c8>
 80014ca:	094a      	lsrs	r2, r1, #5
 80014cc:	b292      	uxth	r2, r2
 80014ce:	06c9      	lsls	r1, r1, #27
 80014d0:	d101      	bne.n	80014d6 <HAL_PCD_EP_Open+0x186>
 80014d2:	3a01      	subs	r2, #1
 80014d4:	b292      	uxth	r2, r2
 80014d6:	0292      	lsls	r2, r2, #10
 80014d8:	b292      	uxth	r2, r2
 80014da:	496d      	ldr	r1, [pc, #436]	; (8001690 <HAL_PCD_EP_Open+0x340>)
 80014dc:	430a      	orrs	r2, r1
 80014de:	801a      	strh	r2, [r3, #0]
      PCD_CLEAR_RX_DTOG(hpcd->Instance, ep->num)
 80014e0:	7823      	ldrb	r3, [r4, #0]
 80014e2:	009b      	lsls	r3, r3, #2
 80014e4:	6802      	ldr	r2, [r0, #0]
 80014e6:	4694      	mov	ip, r2
 80014e8:	4463      	add	r3, ip
 80014ea:	881a      	ldrh	r2, [r3, #0]
 80014ec:	0451      	lsls	r1, r2, #17
 80014ee:	d504      	bpl.n	80014fa <HAL_PCD_EP_Open+0x1aa>
 80014f0:	4960      	ldr	r1, [pc, #384]	; (8001674 <HAL_PCD_EP_Open+0x324>)
 80014f2:	400a      	ands	r2, r1
 80014f4:	4967      	ldr	r1, [pc, #412]	; (8001694 <HAL_PCD_EP_Open+0x344>)
 80014f6:	430a      	orrs	r2, r1
 80014f8:	801a      	strh	r2, [r3, #0]
      PCD_SET_EP_RX_STATUS(hpcd->Instance, ep->num, USB_EP_RX_VALID)
 80014fa:	7823      	ldrb	r3, [r4, #0]
 80014fc:	009b      	lsls	r3, r3, #2
 80014fe:	6802      	ldr	r2, [r0, #0]
 8001500:	4694      	mov	ip, r2
 8001502:	4463      	add	r3, ip
 8001504:	8819      	ldrh	r1, [r3, #0]
 8001506:	4a64      	ldr	r2, [pc, #400]	; (8001698 <HAL_PCD_EP_Open+0x348>)
 8001508:	4011      	ands	r1, r2
 800150a:	22c0      	movs	r2, #192	; 0xc0
 800150c:	0192      	lsls	r2, r2, #6
 800150e:	4051      	eors	r1, r2
 8001510:	4a59      	ldr	r2, [pc, #356]	; (8001678 <HAL_PCD_EP_Open+0x328>)
 8001512:	430a      	orrs	r2, r1
 8001514:	801a      	strh	r2, [r3, #0]
 8001516:	e77f      	b.n	8001418 <HAL_PCD_EP_Open+0xc8>
      PCD_SET_EP_RX_CNT(hpcd->Instance, ep->num, ep->maxpacket)
 8001518:	084a      	lsrs	r2, r1, #1
 800151a:	b292      	uxth	r2, r2
 800151c:	07c9      	lsls	r1, r1, #31
 800151e:	d501      	bpl.n	8001524 <HAL_PCD_EP_Open+0x1d4>
 8001520:	3201      	adds	r2, #1
 8001522:	b292      	uxth	r2, r2
 8001524:	0292      	lsls	r2, r2, #10
 8001526:	801a      	strh	r2, [r3, #0]
 8001528:	e7da      	b.n	80014e0 <HAL_PCD_EP_Open+0x190>
    PCD_SET_EP_DBUF(hpcd->Instance, ep->num);
 800152a:	7823      	ldrb	r3, [r4, #0]
 800152c:	009b      	lsls	r3, r3, #2
 800152e:	6802      	ldr	r2, [r0, #0]
 8001530:	4694      	mov	ip, r2
 8001532:	4463      	add	r3, ip
 8001534:	881a      	ldrh	r2, [r3, #0]
 8001536:	4959      	ldr	r1, [pc, #356]	; (800169c <HAL_PCD_EP_Open+0x34c>)
 8001538:	4011      	ands	r1, r2
 800153a:	4a59      	ldr	r2, [pc, #356]	; (80016a0 <HAL_PCD_EP_Open+0x350>)
 800153c:	430a      	orrs	r2, r1
 800153e:	801a      	strh	r2, [r3, #0]
    PCD_SET_EP_DBUF_ADDR(hpcd->Instance, ep->num,ep->pmaaddr0, ep->pmaaddr1)
 8001540:	6801      	ldr	r1, [r0, #0]
 8001542:	2650      	movs	r6, #80	; 0x50
 8001544:	5b8b      	ldrh	r3, [r1, r6]
 8001546:	7822      	ldrb	r2, [r4, #0]
 8001548:	00d2      	lsls	r2, r2, #3
 800154a:	189b      	adds	r3, r3, r2
 800154c:	185b      	adds	r3, r3, r1
 800154e:	2280      	movs	r2, #128	; 0x80
 8001550:	00d2      	lsls	r2, r2, #3
 8001552:	4694      	mov	ip, r2
 8001554:	4463      	add	r3, ip
 8001556:	88e2      	ldrh	r2, [r4, #6]
 8001558:	2101      	movs	r1, #1
 800155a:	438a      	bics	r2, r1
 800155c:	801a      	strh	r2, [r3, #0]
 800155e:	6805      	ldr	r5, [r0, #0]
 8001560:	5bab      	ldrh	r3, [r5, r6]
 8001562:	7822      	ldrb	r2, [r4, #0]
 8001564:	00d2      	lsls	r2, r2, #3
 8001566:	189b      	adds	r3, r3, r2
 8001568:	195b      	adds	r3, r3, r5
 800156a:	4a47      	ldr	r2, [pc, #284]	; (8001688 <HAL_PCD_EP_Open+0x338>)
 800156c:	4694      	mov	ip, r2
 800156e:	4463      	add	r3, ip
 8001570:	8922      	ldrh	r2, [r4, #8]
 8001572:	438a      	bics	r2, r1
 8001574:	801a      	strh	r2, [r3, #0]
    if (ep->is_in==0U)
 8001576:	7863      	ldrb	r3, [r4, #1]
 8001578:	2b00      	cmp	r3, #0
 800157a:	d13d      	bne.n	80015f8 <HAL_PCD_EP_Open+0x2a8>
      PCD_CLEAR_RX_DTOG(hpcd->Instance, ep->num)
 800157c:	7823      	ldrb	r3, [r4, #0]
 800157e:	009b      	lsls	r3, r3, #2
 8001580:	6802      	ldr	r2, [r0, #0]
 8001582:	4694      	mov	ip, r2
 8001584:	4463      	add	r3, ip
 8001586:	881a      	ldrh	r2, [r3, #0]
 8001588:	0451      	lsls	r1, r2, #17
 800158a:	d504      	bpl.n	8001596 <HAL_PCD_EP_Open+0x246>
 800158c:	4939      	ldr	r1, [pc, #228]	; (8001674 <HAL_PCD_EP_Open+0x324>)
 800158e:	400a      	ands	r2, r1
 8001590:	4940      	ldr	r1, [pc, #256]	; (8001694 <HAL_PCD_EP_Open+0x344>)
 8001592:	430a      	orrs	r2, r1
 8001594:	801a      	strh	r2, [r3, #0]
      PCD_CLEAR_TX_DTOG(hpcd->Instance, ep->num)
 8001596:	7823      	ldrb	r3, [r4, #0]
 8001598:	009b      	lsls	r3, r3, #2
 800159a:	6802      	ldr	r2, [r0, #0]
 800159c:	4694      	mov	ip, r2
 800159e:	4463      	add	r3, ip
 80015a0:	881a      	ldrh	r2, [r3, #0]
 80015a2:	0651      	lsls	r1, r2, #25
 80015a4:	d504      	bpl.n	80015b0 <HAL_PCD_EP_Open+0x260>
 80015a6:	4933      	ldr	r1, [pc, #204]	; (8001674 <HAL_PCD_EP_Open+0x324>)
 80015a8:	400a      	ands	r2, r1
 80015aa:	4934      	ldr	r1, [pc, #208]	; (800167c <HAL_PCD_EP_Open+0x32c>)
 80015ac:	430a      	orrs	r2, r1
 80015ae:	801a      	strh	r2, [r3, #0]
      PCD_TX_DTOG(hpcd->Instance, ep->num);
 80015b0:	7823      	ldrb	r3, [r4, #0]
 80015b2:	009b      	lsls	r3, r3, #2
 80015b4:	6802      	ldr	r2, [r0, #0]
 80015b6:	4694      	mov	ip, r2
 80015b8:	4463      	add	r3, ip
 80015ba:	881a      	ldrh	r2, [r3, #0]
 80015bc:	492d      	ldr	r1, [pc, #180]	; (8001674 <HAL_PCD_EP_Open+0x324>)
 80015be:	4011      	ands	r1, r2
 80015c0:	4a2e      	ldr	r2, [pc, #184]	; (800167c <HAL_PCD_EP_Open+0x32c>)
 80015c2:	430a      	orrs	r2, r1
 80015c4:	801a      	strh	r2, [r3, #0]
      PCD_SET_EP_RX_STATUS(hpcd->Instance, ep->num, USB_EP_RX_VALID)
 80015c6:	7821      	ldrb	r1, [r4, #0]
 80015c8:	0089      	lsls	r1, r1, #2
 80015ca:	6803      	ldr	r3, [r0, #0]
 80015cc:	469c      	mov	ip, r3
 80015ce:	4461      	add	r1, ip
 80015d0:	880b      	ldrh	r3, [r1, #0]
 80015d2:	4a31      	ldr	r2, [pc, #196]	; (8001698 <HAL_PCD_EP_Open+0x348>)
 80015d4:	401a      	ands	r2, r3
 80015d6:	23c0      	movs	r3, #192	; 0xc0
 80015d8:	019b      	lsls	r3, r3, #6
 80015da:	4053      	eors	r3, r2
 80015dc:	4a26      	ldr	r2, [pc, #152]	; (8001678 <HAL_PCD_EP_Open+0x328>)
 80015de:	4313      	orrs	r3, r2
 80015e0:	800b      	strh	r3, [r1, #0]
      PCD_SET_EP_TX_STATUS(hpcd->Instance, ep->num, USB_EP_TX_DIS)
 80015e2:	7823      	ldrb	r3, [r4, #0]
 80015e4:	009b      	lsls	r3, r3, #2
 80015e6:	6801      	ldr	r1, [r0, #0]
 80015e8:	468c      	mov	ip, r1
 80015ea:	4463      	add	r3, ip
 80015ec:	8819      	ldrh	r1, [r3, #0]
 80015ee:	4c24      	ldr	r4, [pc, #144]	; (8001680 <HAL_PCD_EP_Open+0x330>)
 80015f0:	4021      	ands	r1, r4
 80015f2:	430a      	orrs	r2, r1
 80015f4:	801a      	strh	r2, [r3, #0]
 80015f6:	e70f      	b.n	8001418 <HAL_PCD_EP_Open+0xc8>
      PCD_CLEAR_RX_DTOG(hpcd->Instance, ep->num)
 80015f8:	7823      	ldrb	r3, [r4, #0]
 80015fa:	009b      	lsls	r3, r3, #2
 80015fc:	6802      	ldr	r2, [r0, #0]
 80015fe:	4694      	mov	ip, r2
 8001600:	4463      	add	r3, ip
 8001602:	881a      	ldrh	r2, [r3, #0]
 8001604:	0451      	lsls	r1, r2, #17
 8001606:	d504      	bpl.n	8001612 <HAL_PCD_EP_Open+0x2c2>
 8001608:	491a      	ldr	r1, [pc, #104]	; (8001674 <HAL_PCD_EP_Open+0x324>)
 800160a:	400a      	ands	r2, r1
 800160c:	4921      	ldr	r1, [pc, #132]	; (8001694 <HAL_PCD_EP_Open+0x344>)
 800160e:	430a      	orrs	r2, r1
 8001610:	801a      	strh	r2, [r3, #0]
      PCD_CLEAR_TX_DTOG(hpcd->Instance, ep->num)
 8001612:	7823      	ldrb	r3, [r4, #0]
 8001614:	009b      	lsls	r3, r3, #2
 8001616:	6802      	ldr	r2, [r0, #0]
 8001618:	4694      	mov	ip, r2
 800161a:	4463      	add	r3, ip
 800161c:	881a      	ldrh	r2, [r3, #0]
 800161e:	0651      	lsls	r1, r2, #25
 8001620:	d504      	bpl.n	800162c <HAL_PCD_EP_Open+0x2dc>
 8001622:	4914      	ldr	r1, [pc, #80]	; (8001674 <HAL_PCD_EP_Open+0x324>)
 8001624:	400a      	ands	r2, r1
 8001626:	4915      	ldr	r1, [pc, #84]	; (800167c <HAL_PCD_EP_Open+0x32c>)
 8001628:	430a      	orrs	r2, r1
 800162a:	801a      	strh	r2, [r3, #0]
      PCD_RX_DTOG(hpcd->Instance, ep->num);
 800162c:	7823      	ldrb	r3, [r4, #0]
 800162e:	009b      	lsls	r3, r3, #2
 8001630:	6802      	ldr	r2, [r0, #0]
 8001632:	4694      	mov	ip, r2
 8001634:	4463      	add	r3, ip
 8001636:	881a      	ldrh	r2, [r3, #0]
 8001638:	490e      	ldr	r1, [pc, #56]	; (8001674 <HAL_PCD_EP_Open+0x324>)
 800163a:	4011      	ands	r1, r2
 800163c:	4a15      	ldr	r2, [pc, #84]	; (8001694 <HAL_PCD_EP_Open+0x344>)
 800163e:	430a      	orrs	r2, r1
 8001640:	801a      	strh	r2, [r3, #0]
      PCD_SET_EP_TX_STATUS(hpcd->Instance, ep->num, USB_EP_TX_DIS)
 8001642:	7821      	ldrb	r1, [r4, #0]
 8001644:	0089      	lsls	r1, r1, #2
 8001646:	6803      	ldr	r3, [r0, #0]
 8001648:	469c      	mov	ip, r3
 800164a:	4461      	add	r1, ip
 800164c:	880b      	ldrh	r3, [r1, #0]
 800164e:	4a0c      	ldr	r2, [pc, #48]	; (8001680 <HAL_PCD_EP_Open+0x330>)
 8001650:	4013      	ands	r3, r2
 8001652:	4a09      	ldr	r2, [pc, #36]	; (8001678 <HAL_PCD_EP_Open+0x328>)
 8001654:	4313      	orrs	r3, r2
 8001656:	800b      	strh	r3, [r1, #0]
      PCD_SET_EP_RX_STATUS(hpcd->Instance, ep->num, USB_EP_RX_DIS)
 8001658:	7823      	ldrb	r3, [r4, #0]
 800165a:	009b      	lsls	r3, r3, #2
 800165c:	6801      	ldr	r1, [r0, #0]
 800165e:	468c      	mov	ip, r1
 8001660:	4463      	add	r3, ip
 8001662:	8819      	ldrh	r1, [r3, #0]
 8001664:	4c0c      	ldr	r4, [pc, #48]	; (8001698 <HAL_PCD_EP_Open+0x348>)
 8001666:	4021      	ands	r1, r4
 8001668:	430a      	orrs	r2, r1
 800166a:	801a      	strh	r2, [r3, #0]
 800166c:	e6d4      	b.n	8001418 <HAL_PCD_EP_Open+0xc8>
  __HAL_LOCK(hpcd); 
 800166e:	2002      	movs	r0, #2
 8001670:	e6d7      	b.n	8001422 <HAL_PCD_EP_Open+0xd2>
 8001672:	46c0      	nop			; (mov r8, r8)
 8001674:	00000f0f 	.word	0x00000f0f
 8001678:	ffff8080 	.word	0xffff8080
 800167c:	ffff80c0 	.word	0xffff80c0
 8001680:	ffff8fbf 	.word	0xffff8fbf
 8001684:	ffff898f 	.word	0xffff898f
 8001688:	00000404 	.word	0x00000404
 800168c:	00000406 	.word	0x00000406
 8001690:	ffff8000 	.word	0xffff8000
 8001694:	ffffc080 	.word	0xffffc080
 8001698:	ffffbf8f 	.word	0xffffbf8f
 800169c:	00000e0f 	.word	0x00000e0f
 80016a0:	ffff8180 	.word	0xffff8180

080016a4 <HAL_PCD_EP_Close>:
  * @param  hpcd PCD handle
  * @param  ep_addr endpoint address
  * @retval HAL status
  */
HAL_StatusTypeDef HAL_PCD_EP_Close(PCD_HandleTypeDef *hpcd, uint8_t ep_addr)
{  
 80016a4:	b510      	push	{r4, lr}
  PCD_EPTypeDef *ep;
  
  if ((ep_addr & 0x80U) == 0x80U)
 80016a6:	b24a      	sxtb	r2, r1
 80016a8:	2a00      	cmp	r2, #0
 80016aa:	db3a      	blt.n	8001722 <HAL_PCD_EP_Close+0x7e>
  {
    ep = &hpcd->IN_ep[ep_addr & 0x7FU];
  }
  else
  {
    ep = &hpcd->OUT_ep[ep_addr & 0x7FU];
 80016ac:	237f      	movs	r3, #127	; 0x7f
 80016ae:	400b      	ands	r3, r1
 80016b0:	00dc      	lsls	r4, r3, #3
 80016b2:	1ae4      	subs	r4, r4, r3
 80016b4:	00a3      	lsls	r3, r4, #2
 80016b6:	3309      	adds	r3, #9
 80016b8:	33ff      	adds	r3, #255	; 0xff
 80016ba:	18c3      	adds	r3, r0, r3
  }
  ep->num   = ep_addr & 0x7FU;
 80016bc:	247f      	movs	r4, #127	; 0x7f
 80016be:	4021      	ands	r1, r4
 80016c0:	7019      	strb	r1, [r3, #0]
  
  ep->is_in = (0x80U & ep_addr) != 0U;
 80016c2:	0fd2      	lsrs	r2, r2, #31
 80016c4:	705a      	strb	r2, [r3, #1]
  
  __HAL_LOCK(hpcd); 
 80016c6:	22f4      	movs	r2, #244	; 0xf4
 80016c8:	0052      	lsls	r2, r2, #1
 80016ca:	5c82      	ldrb	r2, [r0, r2]
 80016cc:	2a01      	cmp	r2, #1
 80016ce:	d100      	bne.n	80016d2 <HAL_PCD_EP_Close+0x2e>
 80016d0:	e0c1      	b.n	8001856 <HAL_PCD_EP_Close+0x1b2>
 80016d2:	2101      	movs	r1, #1
 80016d4:	22f4      	movs	r2, #244	; 0xf4
 80016d6:	0052      	lsls	r2, r2, #1
 80016d8:	5481      	strb	r1, [r0, r2]

  if (ep->doublebuffer == 0U) 
 80016da:	7a9a      	ldrb	r2, [r3, #10]
 80016dc:	2a00      	cmp	r2, #0
 80016de:	d141      	bne.n	8001764 <HAL_PCD_EP_Close+0xc0>
  {
    if (ep->is_in)
 80016e0:	785a      	ldrb	r2, [r3, #1]
 80016e2:	2a00      	cmp	r2, #0
 80016e4:	d025      	beq.n	8001732 <HAL_PCD_EP_Close+0x8e>
    {
      PCD_CLEAR_TX_DTOG(hpcd->Instance, ep->num)
 80016e6:	781a      	ldrb	r2, [r3, #0]
 80016e8:	0092      	lsls	r2, r2, #2
 80016ea:	6801      	ldr	r1, [r0, #0]
 80016ec:	468c      	mov	ip, r1
 80016ee:	4462      	add	r2, ip
 80016f0:	8811      	ldrh	r1, [r2, #0]
 80016f2:	064c      	lsls	r4, r1, #25
 80016f4:	d504      	bpl.n	8001700 <HAL_PCD_EP_Close+0x5c>
 80016f6:	4c59      	ldr	r4, [pc, #356]	; (800185c <HAL_PCD_EP_Close+0x1b8>)
 80016f8:	4021      	ands	r1, r4
 80016fa:	4c59      	ldr	r4, [pc, #356]	; (8001860 <HAL_PCD_EP_Close+0x1bc>)
 80016fc:	4321      	orrs	r1, r4
 80016fe:	8011      	strh	r1, [r2, #0]
      /* Configure DISABLE status for the Endpoint*/
      PCD_SET_EP_TX_STATUS(hpcd->Instance, ep->num, USB_EP_TX_DIS)
 8001700:	781b      	ldrb	r3, [r3, #0]
 8001702:	009b      	lsls	r3, r3, #2
 8001704:	6802      	ldr	r2, [r0, #0]
 8001706:	4694      	mov	ip, r2
 8001708:	4463      	add	r3, ip
 800170a:	881a      	ldrh	r2, [r3, #0]
 800170c:	4955      	ldr	r1, [pc, #340]	; (8001864 <HAL_PCD_EP_Close+0x1c0>)
 800170e:	4011      	ands	r1, r2
 8001710:	4a55      	ldr	r2, [pc, #340]	; (8001868 <HAL_PCD_EP_Close+0x1c4>)
 8001712:	430a      	orrs	r2, r1
 8001714:	801a      	strh	r2, [r3, #0]
      PCD_SET_EP_TX_STATUS(hpcd->Instance, ep->num, USB_EP_TX_DIS)
      PCD_SET_EP_RX_STATUS(hpcd->Instance, ep->num, USB_EP_RX_DIS)
    }
  } 
  
  __HAL_UNLOCK(hpcd);   
 8001716:	2200      	movs	r2, #0
 8001718:	23f4      	movs	r3, #244	; 0xf4
 800171a:	005b      	lsls	r3, r3, #1
 800171c:	54c2      	strb	r2, [r0, r3]
  return HAL_OK;
 800171e:	2000      	movs	r0, #0
}
 8001720:	bd10      	pop	{r4, pc}
    ep = &hpcd->IN_ep[ep_addr & 0x7FU];
 8001722:	237f      	movs	r3, #127	; 0x7f
 8001724:	400b      	ands	r3, r1
 8001726:	00dc      	lsls	r4, r3, #3
 8001728:	1ae4      	subs	r4, r4, r3
 800172a:	00a3      	lsls	r3, r4, #2
 800172c:	3328      	adds	r3, #40	; 0x28
 800172e:	18c3      	adds	r3, r0, r3
 8001730:	e7c4      	b.n	80016bc <HAL_PCD_EP_Close+0x18>
      PCD_CLEAR_RX_DTOG(hpcd->Instance, ep->num)
 8001732:	781a      	ldrb	r2, [r3, #0]
 8001734:	0092      	lsls	r2, r2, #2
 8001736:	6801      	ldr	r1, [r0, #0]
 8001738:	468c      	mov	ip, r1
 800173a:	4462      	add	r2, ip
 800173c:	8811      	ldrh	r1, [r2, #0]
 800173e:	044c      	lsls	r4, r1, #17
 8001740:	d504      	bpl.n	800174c <HAL_PCD_EP_Close+0xa8>
 8001742:	4c46      	ldr	r4, [pc, #280]	; (800185c <HAL_PCD_EP_Close+0x1b8>)
 8001744:	4021      	ands	r1, r4
 8001746:	4c49      	ldr	r4, [pc, #292]	; (800186c <HAL_PCD_EP_Close+0x1c8>)
 8001748:	4321      	orrs	r1, r4
 800174a:	8011      	strh	r1, [r2, #0]
      PCD_SET_EP_RX_STATUS(hpcd->Instance, ep->num, USB_EP_RX_DIS)
 800174c:	781b      	ldrb	r3, [r3, #0]
 800174e:	009b      	lsls	r3, r3, #2
 8001750:	6802      	ldr	r2, [r0, #0]
 8001752:	4694      	mov	ip, r2
 8001754:	4463      	add	r3, ip
 8001756:	881a      	ldrh	r2, [r3, #0]
 8001758:	4945      	ldr	r1, [pc, #276]	; (8001870 <HAL_PCD_EP_Close+0x1cc>)
 800175a:	4011      	ands	r1, r2
 800175c:	4a42      	ldr	r2, [pc, #264]	; (8001868 <HAL_PCD_EP_Close+0x1c4>)
 800175e:	430a      	orrs	r2, r1
 8001760:	801a      	strh	r2, [r3, #0]
 8001762:	e7d8      	b.n	8001716 <HAL_PCD_EP_Close+0x72>
    if (ep->is_in==0U)
 8001764:	785a      	ldrb	r2, [r3, #1]
 8001766:	2a00      	cmp	r2, #0
 8001768:	d13a      	bne.n	80017e0 <HAL_PCD_EP_Close+0x13c>
      PCD_CLEAR_RX_DTOG(hpcd->Instance, ep->num)
 800176a:	781a      	ldrb	r2, [r3, #0]
 800176c:	0092      	lsls	r2, r2, #2
 800176e:	6801      	ldr	r1, [r0, #0]
 8001770:	468c      	mov	ip, r1
 8001772:	4462      	add	r2, ip
 8001774:	8811      	ldrh	r1, [r2, #0]
 8001776:	044c      	lsls	r4, r1, #17
 8001778:	d504      	bpl.n	8001784 <HAL_PCD_EP_Close+0xe0>
 800177a:	4c38      	ldr	r4, [pc, #224]	; (800185c <HAL_PCD_EP_Close+0x1b8>)
 800177c:	4021      	ands	r1, r4
 800177e:	4c3b      	ldr	r4, [pc, #236]	; (800186c <HAL_PCD_EP_Close+0x1c8>)
 8001780:	4321      	orrs	r1, r4
 8001782:	8011      	strh	r1, [r2, #0]
      PCD_CLEAR_TX_DTOG(hpcd->Instance, ep->num)
 8001784:	781a      	ldrb	r2, [r3, #0]
 8001786:	0092      	lsls	r2, r2, #2
 8001788:	6801      	ldr	r1, [r0, #0]
 800178a:	468c      	mov	ip, r1
 800178c:	4462      	add	r2, ip
 800178e:	8811      	ldrh	r1, [r2, #0]
 8001790:	064c      	lsls	r4, r1, #25
 8001792:	d504      	bpl.n	800179e <HAL_PCD_EP_Close+0xfa>
 8001794:	4c31      	ldr	r4, [pc, #196]	; (800185c <HAL_PCD_EP_Close+0x1b8>)
 8001796:	4021      	ands	r1, r4
 8001798:	4c31      	ldr	r4, [pc, #196]	; (8001860 <HAL_PCD_EP_Close+0x1bc>)
 800179a:	4321      	orrs	r1, r4
 800179c:	8011      	strh	r1, [r2, #0]
      PCD_TX_DTOG(hpcd->Instance, ep->num);
 800179e:	781a      	ldrb	r2, [r3, #0]
 80017a0:	0092      	lsls	r2, r2, #2
 80017a2:	6801      	ldr	r1, [r0, #0]
 80017a4:	468c      	mov	ip, r1
 80017a6:	4462      	add	r2, ip
 80017a8:	8811      	ldrh	r1, [r2, #0]
 80017aa:	4c2c      	ldr	r4, [pc, #176]	; (800185c <HAL_PCD_EP_Close+0x1b8>)
 80017ac:	400c      	ands	r4, r1
 80017ae:	492c      	ldr	r1, [pc, #176]	; (8001860 <HAL_PCD_EP_Close+0x1bc>)
 80017b0:	4321      	orrs	r1, r4
 80017b2:	8011      	strh	r1, [r2, #0]
      PCD_SET_EP_RX_STATUS(hpcd->Instance, ep->num, USB_EP_RX_DIS)
 80017b4:	781c      	ldrb	r4, [r3, #0]
 80017b6:	00a4      	lsls	r4, r4, #2
 80017b8:	6802      	ldr	r2, [r0, #0]
 80017ba:	4694      	mov	ip, r2
 80017bc:	4464      	add	r4, ip
 80017be:	8822      	ldrh	r2, [r4, #0]
 80017c0:	492b      	ldr	r1, [pc, #172]	; (8001870 <HAL_PCD_EP_Close+0x1cc>)
 80017c2:	400a      	ands	r2, r1
 80017c4:	4928      	ldr	r1, [pc, #160]	; (8001868 <HAL_PCD_EP_Close+0x1c4>)
 80017c6:	430a      	orrs	r2, r1
 80017c8:	8022      	strh	r2, [r4, #0]
      PCD_SET_EP_TX_STATUS(hpcd->Instance, ep->num, USB_EP_TX_DIS)
 80017ca:	781b      	ldrb	r3, [r3, #0]
 80017cc:	009b      	lsls	r3, r3, #2
 80017ce:	6802      	ldr	r2, [r0, #0]
 80017d0:	4694      	mov	ip, r2
 80017d2:	4463      	add	r3, ip
 80017d4:	881a      	ldrh	r2, [r3, #0]
 80017d6:	4c23      	ldr	r4, [pc, #140]	; (8001864 <HAL_PCD_EP_Close+0x1c0>)
 80017d8:	4022      	ands	r2, r4
 80017da:	4311      	orrs	r1, r2
 80017dc:	8019      	strh	r1, [r3, #0]
 80017de:	e79a      	b.n	8001716 <HAL_PCD_EP_Close+0x72>
      PCD_CLEAR_RX_DTOG(hpcd->Instance, ep->num)
 80017e0:	781a      	ldrb	r2, [r3, #0]
 80017e2:	0092      	lsls	r2, r2, #2
 80017e4:	6801      	ldr	r1, [r0, #0]
 80017e6:	468c      	mov	ip, r1
 80017e8:	4462      	add	r2, ip
 80017ea:	8811      	ldrh	r1, [r2, #0]
 80017ec:	044c      	lsls	r4, r1, #17
 80017ee:	d504      	bpl.n	80017fa <HAL_PCD_EP_Close+0x156>
 80017f0:	4c1a      	ldr	r4, [pc, #104]	; (800185c <HAL_PCD_EP_Close+0x1b8>)
 80017f2:	4021      	ands	r1, r4
 80017f4:	4c1d      	ldr	r4, [pc, #116]	; (800186c <HAL_PCD_EP_Close+0x1c8>)
 80017f6:	4321      	orrs	r1, r4
 80017f8:	8011      	strh	r1, [r2, #0]
      PCD_CLEAR_TX_DTOG(hpcd->Instance, ep->num)
 80017fa:	781a      	ldrb	r2, [r3, #0]
 80017fc:	0092      	lsls	r2, r2, #2
 80017fe:	6801      	ldr	r1, [r0, #0]
 8001800:	468c      	mov	ip, r1
 8001802:	4462      	add	r2, ip
 8001804:	8811      	ldrh	r1, [r2, #0]
 8001806:	064c      	lsls	r4, r1, #25
 8001808:	d504      	bpl.n	8001814 <HAL_PCD_EP_Close+0x170>
 800180a:	4c14      	ldr	r4, [pc, #80]	; (800185c <HAL_PCD_EP_Close+0x1b8>)
 800180c:	4021      	ands	r1, r4
 800180e:	4c14      	ldr	r4, [pc, #80]	; (8001860 <HAL_PCD_EP_Close+0x1bc>)
 8001810:	4321      	orrs	r1, r4
 8001812:	8011      	strh	r1, [r2, #0]
      PCD_RX_DTOG(hpcd->Instance, ep->num);
 8001814:	781a      	ldrb	r2, [r3, #0]
 8001816:	0092      	lsls	r2, r2, #2
 8001818:	6801      	ldr	r1, [r0, #0]
 800181a:	468c      	mov	ip, r1
 800181c:	4462      	add	r2, ip
 800181e:	8811      	ldrh	r1, [r2, #0]
 8001820:	4c0e      	ldr	r4, [pc, #56]	; (800185c <HAL_PCD_EP_Close+0x1b8>)
 8001822:	400c      	ands	r4, r1
 8001824:	4911      	ldr	r1, [pc, #68]	; (800186c <HAL_PCD_EP_Close+0x1c8>)
 8001826:	4321      	orrs	r1, r4
 8001828:	8011      	strh	r1, [r2, #0]
      PCD_SET_EP_TX_STATUS(hpcd->Instance, ep->num, USB_EP_TX_DIS)
 800182a:	781c      	ldrb	r4, [r3, #0]
 800182c:	00a4      	lsls	r4, r4, #2
 800182e:	6802      	ldr	r2, [r0, #0]
 8001830:	4694      	mov	ip, r2
 8001832:	4464      	add	r4, ip
 8001834:	8822      	ldrh	r2, [r4, #0]
 8001836:	490b      	ldr	r1, [pc, #44]	; (8001864 <HAL_PCD_EP_Close+0x1c0>)
 8001838:	400a      	ands	r2, r1
 800183a:	490b      	ldr	r1, [pc, #44]	; (8001868 <HAL_PCD_EP_Close+0x1c4>)
 800183c:	430a      	orrs	r2, r1
 800183e:	8022      	strh	r2, [r4, #0]
      PCD_SET_EP_RX_STATUS(hpcd->Instance, ep->num, USB_EP_RX_DIS)
 8001840:	781b      	ldrb	r3, [r3, #0]
 8001842:	009b      	lsls	r3, r3, #2
 8001844:	6802      	ldr	r2, [r0, #0]
 8001846:	4694      	mov	ip, r2
 8001848:	4463      	add	r3, ip
 800184a:	881a      	ldrh	r2, [r3, #0]
 800184c:	4c08      	ldr	r4, [pc, #32]	; (8001870 <HAL_PCD_EP_Close+0x1cc>)
 800184e:	4022      	ands	r2, r4
 8001850:	4311      	orrs	r1, r2
 8001852:	8019      	strh	r1, [r3, #0]
 8001854:	e75f      	b.n	8001716 <HAL_PCD_EP_Close+0x72>
  __HAL_LOCK(hpcd); 
 8001856:	2002      	movs	r0, #2
 8001858:	e762      	b.n	8001720 <HAL_PCD_EP_Close+0x7c>
 800185a:	46c0      	nop			; (mov r8, r8)
 800185c:	00000f0f 	.word	0x00000f0f
 8001860:	ffff80c0 	.word	0xffff80c0
 8001864:	ffff8fbf 	.word	0xffff8fbf
 8001868:	ffff8080 	.word	0xffff8080
 800186c:	ffffc080 	.word	0xffffc080
 8001870:	ffffbf8f 	.word	0xffffbf8f

08001874 <HAL_PCD_EP_Receive>:
  * @param  pBuf pointer to the reception buffer   
  * @param  len amount of data to be received
  * @retval HAL status
  */
HAL_StatusTypeDef HAL_PCD_EP_Receive(PCD_HandleTypeDef *hpcd, uint8_t ep_addr, uint8_t *pBuf, uint32_t len)
{
 8001874:	b570      	push	{r4, r5, r6, lr}
 8001876:	247f      	movs	r4, #127	; 0x7f
 8001878:	4021      	ands	r1, r4
 PCD_EPTypeDef *ep;
  
  ep = &hpcd->OUT_ep[ep_addr & 0x7FU];
  
  /*setup and start the Xfer */
  ep->xfer_buff = pBuf;  
 800187a:	00cd      	lsls	r5, r1, #3
 800187c:	1a6d      	subs	r5, r5, r1
 800187e:	00ac      	lsls	r4, r5, #2
 8001880:	1904      	adds	r4, r0, r4
 8001882:	0025      	movs	r5, r4
 8001884:	3519      	adds	r5, #25
 8001886:	35ff      	adds	r5, #255	; 0xff
 8001888:	602a      	str	r2, [r5, #0]
  ep->xfer_len = len;
 800188a:	0022      	movs	r2, r4
 800188c:	321d      	adds	r2, #29
 800188e:	32ff      	adds	r2, #255	; 0xff
 8001890:	6013      	str	r3, [r2, #0]
  ep->xfer_count = 0U;
 8001892:	3508      	adds	r5, #8
 8001894:	2200      	movs	r2, #0
 8001896:	602a      	str	r2, [r5, #0]
  ep->is_in = 0U;
 8001898:	3d17      	subs	r5, #23
 800189a:	702a      	strb	r2, [r5, #0]
  ep->num = ep_addr & 0x7FU;
 800189c:	0022      	movs	r2, r4
 800189e:	3209      	adds	r2, #9
 80018a0:	32ff      	adds	r2, #255	; 0xff
 80018a2:	7011      	strb	r1, [r2, #0]
   
  /* Multi packet transfer*/
  if (ep->xfer_len > ep->maxpacket)
 80018a4:	3415      	adds	r4, #21
 80018a6:	34ff      	adds	r4, #255	; 0xff
 80018a8:	6822      	ldr	r2, [r4, #0]
 80018aa:	4293      	cmp	r3, r2
 80018ac:	d940      	bls.n	8001930 <HAL_PCD_EP_Receive+0xbc>
  {
    len=ep->maxpacket;
    ep->xfer_len-=len; 
 80018ae:	00cd      	lsls	r5, r1, #3
 80018b0:	1a6d      	subs	r5, r5, r1
 80018b2:	00ac      	lsls	r4, r5, #2
 80018b4:	1904      	adds	r4, r0, r4
 80018b6:	341d      	adds	r4, #29
 80018b8:	34ff      	adds	r4, #255	; 0xff
 80018ba:	1a9b      	subs	r3, r3, r2
 80018bc:	6023      	str	r3, [r4, #0]
    len=ep->xfer_len;
    ep->xfer_len =0U;
  }
  
  /* configure and validate Rx endpoint */
  if (ep->doublebuffer == 0) 
 80018be:	00cc      	lsls	r4, r1, #3
 80018c0:	1a64      	subs	r4, r4, r1
 80018c2:	00a3      	lsls	r3, r4, #2
 80018c4:	001c      	movs	r4, r3
 80018c6:	18c3      	adds	r3, r0, r3
 80018c8:	3313      	adds	r3, #19
 80018ca:	33ff      	adds	r3, #255	; 0xff
 80018cc:	781b      	ldrb	r3, [r3, #0]
 80018ce:	2b00      	cmp	r3, #0
 80018d0:	d141      	bne.n	8001956 <HAL_PCD_EP_Receive+0xe2>
  {
    /*Set RX buffer count*/
    PCD_SET_EP_RX_CNT(hpcd->Instance, ep->num, len)
 80018d2:	6805      	ldr	r5, [r0, #0]
 80018d4:	3350      	adds	r3, #80	; 0x50
 80018d6:	5aeb      	ldrh	r3, [r5, r3]
 80018d8:	1904      	adds	r4, r0, r4
 80018da:	3409      	adds	r4, #9
 80018dc:	34ff      	adds	r4, #255	; 0xff
 80018de:	7824      	ldrb	r4, [r4, #0]
 80018e0:	00e4      	lsls	r4, r4, #3
 80018e2:	191b      	adds	r3, r3, r4
 80018e4:	195b      	adds	r3, r3, r5
 80018e6:	4c5e      	ldr	r4, [pc, #376]	; (8001a60 <HAL_PCD_EP_Receive+0x1ec>)
 80018e8:	46a4      	mov	ip, r4
 80018ea:	4463      	add	r3, ip
 80018ec:	2a3e      	cmp	r2, #62	; 0x3e
 80018ee:	d929      	bls.n	8001944 <HAL_PCD_EP_Receive+0xd0>
 80018f0:	0954      	lsrs	r4, r2, #5
 80018f2:	b2a4      	uxth	r4, r4
 80018f4:	06d2      	lsls	r2, r2, #27
 80018f6:	d101      	bne.n	80018fc <HAL_PCD_EP_Receive+0x88>
 80018f8:	3c01      	subs	r4, #1
 80018fa:	b2a4      	uxth	r4, r4
 80018fc:	02a4      	lsls	r4, r4, #10
 80018fe:	b2a4      	uxth	r4, r4
 8001900:	4a58      	ldr	r2, [pc, #352]	; (8001a64 <HAL_PCD_EP_Receive+0x1f0>)
 8001902:	4314      	orrs	r4, r2
 8001904:	801c      	strh	r4, [r3, #0]
  {
    /*Set the Double buffer counter*/
    PCD_SET_EP_DBUF_CNT(hpcd->Instance, ep->num, ep->is_in, len)
  } 
  
  PCD_SET_EP_RX_STATUS(hpcd->Instance, ep->num, USB_EP_RX_VALID)
 8001906:	6803      	ldr	r3, [r0, #0]
 8001908:	00ca      	lsls	r2, r1, #3
 800190a:	1a51      	subs	r1, r2, r1
 800190c:	008a      	lsls	r2, r1, #2
 800190e:	1880      	adds	r0, r0, r2
 8001910:	3009      	adds	r0, #9
 8001912:	30ff      	adds	r0, #255	; 0xff
 8001914:	7802      	ldrb	r2, [r0, #0]
 8001916:	0092      	lsls	r2, r2, #2
 8001918:	189b      	adds	r3, r3, r2
 800191a:	8819      	ldrh	r1, [r3, #0]
 800191c:	4a52      	ldr	r2, [pc, #328]	; (8001a68 <HAL_PCD_EP_Receive+0x1f4>)
 800191e:	4011      	ands	r1, r2
 8001920:	22c0      	movs	r2, #192	; 0xc0
 8001922:	0192      	lsls	r2, r2, #6
 8001924:	4051      	eors	r1, r2
 8001926:	4a51      	ldr	r2, [pc, #324]	; (8001a6c <HAL_PCD_EP_Receive+0x1f8>)
 8001928:	430a      	orrs	r2, r1
 800192a:	801a      	strh	r2, [r3, #0]
  
  return HAL_OK;
}
 800192c:	2000      	movs	r0, #0
 800192e:	bd70      	pop	{r4, r5, r6, pc}
    ep->xfer_len =0U;
 8001930:	00cc      	lsls	r4, r1, #3
 8001932:	1a64      	subs	r4, r4, r1
 8001934:	00a2      	lsls	r2, r4, #2
 8001936:	1882      	adds	r2, r0, r2
 8001938:	321d      	adds	r2, #29
 800193a:	32ff      	adds	r2, #255	; 0xff
 800193c:	2400      	movs	r4, #0
 800193e:	6014      	str	r4, [r2, #0]
    len=ep->xfer_len;
 8001940:	001a      	movs	r2, r3
 8001942:	e7bc      	b.n	80018be <HAL_PCD_EP_Receive+0x4a>
    PCD_SET_EP_RX_CNT(hpcd->Instance, ep->num, len)
 8001944:	0854      	lsrs	r4, r2, #1
 8001946:	b2a4      	uxth	r4, r4
 8001948:	07d2      	lsls	r2, r2, #31
 800194a:	d501      	bpl.n	8001950 <HAL_PCD_EP_Receive+0xdc>
 800194c:	3401      	adds	r4, #1
 800194e:	b2a4      	uxth	r4, r4
 8001950:	02a4      	lsls	r4, r4, #10
 8001952:	801c      	strh	r4, [r3, #0]
 8001954:	e7d7      	b.n	8001906 <HAL_PCD_EP_Receive+0x92>
    PCD_SET_EP_DBUF_CNT(hpcd->Instance, ep->num, ep->is_in, len)
 8001956:	00cc      	lsls	r4, r1, #3
 8001958:	1a64      	subs	r4, r4, r1
 800195a:	00a3      	lsls	r3, r4, #2
 800195c:	001c      	movs	r4, r3
 800195e:	18c3      	adds	r3, r0, r3
 8001960:	330a      	adds	r3, #10
 8001962:	33ff      	adds	r3, #255	; 0xff
 8001964:	781b      	ldrb	r3, [r3, #0]
 8001966:	2b00      	cmp	r3, #0
 8001968:	d123      	bne.n	80019b2 <HAL_PCD_EP_Receive+0x13e>
 800196a:	6805      	ldr	r5, [r0, #0]
 800196c:	3350      	adds	r3, #80	; 0x50
 800196e:	5aeb      	ldrh	r3, [r5, r3]
 8001970:	1904      	adds	r4, r0, r4
 8001972:	3409      	adds	r4, #9
 8001974:	34ff      	adds	r4, #255	; 0xff
 8001976:	7824      	ldrb	r4, [r4, #0]
 8001978:	00e4      	lsls	r4, r4, #3
 800197a:	191b      	adds	r3, r3, r4
 800197c:	195b      	adds	r3, r3, r5
 800197e:	4c3c      	ldr	r4, [pc, #240]	; (8001a70 <HAL_PCD_EP_Receive+0x1fc>)
 8001980:	46a4      	mov	ip, r4
 8001982:	4463      	add	r3, ip
 8001984:	2a3e      	cmp	r2, #62	; 0x3e
 8001986:	d90b      	bls.n	80019a0 <HAL_PCD_EP_Receive+0x12c>
 8001988:	0954      	lsrs	r4, r2, #5
 800198a:	b2a4      	uxth	r4, r4
 800198c:	06d5      	lsls	r5, r2, #27
 800198e:	d101      	bne.n	8001994 <HAL_PCD_EP_Receive+0x120>
 8001990:	3c01      	subs	r4, #1
 8001992:	b2a4      	uxth	r4, r4
 8001994:	02a4      	lsls	r4, r4, #10
 8001996:	b2a4      	uxth	r4, r4
 8001998:	4d32      	ldr	r5, [pc, #200]	; (8001a64 <HAL_PCD_EP_Receive+0x1f0>)
 800199a:	432c      	orrs	r4, r5
 800199c:	801c      	strh	r4, [r3, #0]
 800199e:	e00a      	b.n	80019b6 <HAL_PCD_EP_Receive+0x142>
 80019a0:	0854      	lsrs	r4, r2, #1
 80019a2:	b2a4      	uxth	r4, r4
 80019a4:	07d5      	lsls	r5, r2, #31
 80019a6:	d501      	bpl.n	80019ac <HAL_PCD_EP_Receive+0x138>
 80019a8:	3401      	adds	r4, #1
 80019aa:	b2a4      	uxth	r4, r4
 80019ac:	02a4      	lsls	r4, r4, #10
 80019ae:	801c      	strh	r4, [r3, #0]
 80019b0:	e001      	b.n	80019b6 <HAL_PCD_EP_Receive+0x142>
 80019b2:	2b01      	cmp	r3, #1
 80019b4:	d024      	beq.n	8001a00 <HAL_PCD_EP_Receive+0x18c>
 80019b6:	00cc      	lsls	r4, r1, #3
 80019b8:	1a64      	subs	r4, r4, r1
 80019ba:	00a3      	lsls	r3, r4, #2
 80019bc:	001c      	movs	r4, r3
 80019be:	18c3      	adds	r3, r0, r3
 80019c0:	330a      	adds	r3, #10
 80019c2:	33ff      	adds	r3, #255	; 0xff
 80019c4:	781b      	ldrb	r3, [r3, #0]
 80019c6:	2b00      	cmp	r3, #0
 80019c8:	d135      	bne.n	8001a36 <HAL_PCD_EP_Receive+0x1c2>
 80019ca:	6805      	ldr	r5, [r0, #0]
 80019cc:	3350      	adds	r3, #80	; 0x50
 80019ce:	5aeb      	ldrh	r3, [r5, r3]
 80019d0:	1904      	adds	r4, r0, r4
 80019d2:	3409      	adds	r4, #9
 80019d4:	34ff      	adds	r4, #255	; 0xff
 80019d6:	7824      	ldrb	r4, [r4, #0]
 80019d8:	00e4      	lsls	r4, r4, #3
 80019da:	191b      	adds	r3, r3, r4
 80019dc:	195b      	adds	r3, r3, r5
 80019de:	4c20      	ldr	r4, [pc, #128]	; (8001a60 <HAL_PCD_EP_Receive+0x1ec>)
 80019e0:	46a4      	mov	ip, r4
 80019e2:	4463      	add	r3, ip
 80019e4:	2a3e      	cmp	r2, #62	; 0x3e
 80019e6:	d91d      	bls.n	8001a24 <HAL_PCD_EP_Receive+0x1b0>
 80019e8:	0954      	lsrs	r4, r2, #5
 80019ea:	b2a4      	uxth	r4, r4
 80019ec:	06d2      	lsls	r2, r2, #27
 80019ee:	d101      	bne.n	80019f4 <HAL_PCD_EP_Receive+0x180>
 80019f0:	3c01      	subs	r4, #1
 80019f2:	b2a4      	uxth	r4, r4
 80019f4:	02a4      	lsls	r4, r4, #10
 80019f6:	b2a4      	uxth	r4, r4
 80019f8:	4a1a      	ldr	r2, [pc, #104]	; (8001a64 <HAL_PCD_EP_Receive+0x1f0>)
 80019fa:	4314      	orrs	r4, r2
 80019fc:	801c      	strh	r4, [r3, #0]
 80019fe:	e782      	b.n	8001906 <HAL_PCD_EP_Receive+0x92>
 8001a00:	6805      	ldr	r5, [r0, #0]
 8001a02:	334f      	adds	r3, #79	; 0x4f
 8001a04:	5aeb      	ldrh	r3, [r5, r3]
 8001a06:	00ce      	lsls	r6, r1, #3
 8001a08:	1a76      	subs	r6, r6, r1
 8001a0a:	00b4      	lsls	r4, r6, #2
 8001a0c:	1904      	adds	r4, r0, r4
 8001a0e:	3409      	adds	r4, #9
 8001a10:	34ff      	adds	r4, #255	; 0xff
 8001a12:	7824      	ldrb	r4, [r4, #0]
 8001a14:	00e4      	lsls	r4, r4, #3
 8001a16:	191b      	adds	r3, r3, r4
 8001a18:	195b      	adds	r3, r3, r5
 8001a1a:	4c15      	ldr	r4, [pc, #84]	; (8001a70 <HAL_PCD_EP_Receive+0x1fc>)
 8001a1c:	46a4      	mov	ip, r4
 8001a1e:	4463      	add	r3, ip
 8001a20:	801a      	strh	r2, [r3, #0]
 8001a22:	e7c8      	b.n	80019b6 <HAL_PCD_EP_Receive+0x142>
 8001a24:	0854      	lsrs	r4, r2, #1
 8001a26:	b2a4      	uxth	r4, r4
 8001a28:	07d2      	lsls	r2, r2, #31
 8001a2a:	d501      	bpl.n	8001a30 <HAL_PCD_EP_Receive+0x1bc>
 8001a2c:	3401      	adds	r4, #1
 8001a2e:	b2a4      	uxth	r4, r4
 8001a30:	02a4      	lsls	r4, r4, #10
 8001a32:	801c      	strh	r4, [r3, #0]
 8001a34:	e767      	b.n	8001906 <HAL_PCD_EP_Receive+0x92>
 8001a36:	2b01      	cmp	r3, #1
 8001a38:	d000      	beq.n	8001a3c <HAL_PCD_EP_Receive+0x1c8>
 8001a3a:	e764      	b.n	8001906 <HAL_PCD_EP_Receive+0x92>
 8001a3c:	6805      	ldr	r5, [r0, #0]
 8001a3e:	334f      	adds	r3, #79	; 0x4f
 8001a40:	5aeb      	ldrh	r3, [r5, r3]
 8001a42:	00ce      	lsls	r6, r1, #3
 8001a44:	1a76      	subs	r6, r6, r1
 8001a46:	00b4      	lsls	r4, r6, #2
 8001a48:	1904      	adds	r4, r0, r4
 8001a4a:	3409      	adds	r4, #9
 8001a4c:	34ff      	adds	r4, #255	; 0xff
 8001a4e:	7824      	ldrb	r4, [r4, #0]
 8001a50:	00e4      	lsls	r4, r4, #3
 8001a52:	191b      	adds	r3, r3, r4
 8001a54:	195b      	adds	r3, r3, r5
 8001a56:	4c02      	ldr	r4, [pc, #8]	; (8001a60 <HAL_PCD_EP_Receive+0x1ec>)
 8001a58:	46a4      	mov	ip, r4
 8001a5a:	4463      	add	r3, ip
 8001a5c:	801a      	strh	r2, [r3, #0]
 8001a5e:	e752      	b.n	8001906 <HAL_PCD_EP_Receive+0x92>
 8001a60:	00000406 	.word	0x00000406
 8001a64:	ffff8000 	.word	0xffff8000
 8001a68:	ffffbf8f 	.word	0xffffbf8f
 8001a6c:	ffff8080 	.word	0xffff8080
 8001a70:	00000402 	.word	0x00000402

08001a74 <HAL_PCD_EP_GetRxCount>:
  * @param  ep_addr endpoint address
  * @retval Data Size
  */
uint16_t HAL_PCD_EP_GetRxCount(PCD_HandleTypeDef *hpcd, uint8_t ep_addr)
{
  return hpcd->OUT_ep[ep_addr & 0x7FU].xfer_count;
 8001a74:	237f      	movs	r3, #127	; 0x7f
 8001a76:	4019      	ands	r1, r3
 8001a78:	00cb      	lsls	r3, r1, #3
 8001a7a:	1a59      	subs	r1, r3, r1
 8001a7c:	008b      	lsls	r3, r1, #2
 8001a7e:	18c0      	adds	r0, r0, r3
 8001a80:	3021      	adds	r0, #33	; 0x21
 8001a82:	30ff      	adds	r0, #255	; 0xff
 8001a84:	8800      	ldrh	r0, [r0, #0]
}
 8001a86:	4770      	bx	lr

08001a88 <HAL_PCD_EP_SetStall>:
  * @param  hpcd PCD handle
  * @param  ep_addr endpoint address
  * @retval HAL status
  */
HAL_StatusTypeDef HAL_PCD_EP_SetStall(PCD_HandleTypeDef *hpcd, uint8_t ep_addr)
{
 8001a88:	b510      	push	{r4, lr}
  PCD_EPTypeDef *ep;
   
  __HAL_LOCK(hpcd); 
 8001a8a:	23f4      	movs	r3, #244	; 0xf4
 8001a8c:	005b      	lsls	r3, r3, #1
 8001a8e:	5cc3      	ldrb	r3, [r0, r3]
 8001a90:	2b01      	cmp	r3, #1
 8001a92:	d04e      	beq.n	8001b32 <HAL_PCD_EP_SetStall+0xaa>
 8001a94:	2201      	movs	r2, #1
 8001a96:	23f4      	movs	r3, #244	; 0xf4
 8001a98:	005b      	lsls	r3, r3, #1
 8001a9a:	54c2      	strb	r2, [r0, r3]
   
  if ((0x80U & ep_addr) == 0x80U)
 8001a9c:	b24c      	sxtb	r4, r1
 8001a9e:	2c00      	cmp	r4, #0
 8001aa0:	db20      	blt.n	8001ae4 <HAL_PCD_EP_SetStall+0x5c>
  {
    ep = &hpcd->IN_ep[ep_addr & 0x7FU];
  }
  else
  {
    ep = &hpcd->OUT_ep[ep_addr];
 8001aa2:	00ca      	lsls	r2, r1, #3
 8001aa4:	1a52      	subs	r2, r2, r1
 8001aa6:	0093      	lsls	r3, r2, #2
 8001aa8:	3309      	adds	r3, #9
 8001aaa:	33ff      	adds	r3, #255	; 0xff
 8001aac:	18c3      	adds	r3, r0, r3
  }
  
  ep->is_stall = 1;
 8001aae:	2201      	movs	r2, #1
 8001ab0:	709a      	strb	r2, [r3, #2]
  ep->num   = ep_addr & 0x7FU;
 8001ab2:	327e      	adds	r2, #126	; 0x7e
 8001ab4:	4011      	ands	r1, r2
 8001ab6:	7019      	strb	r1, [r3, #0]
  ep->is_in = ((ep_addr & 0x80U) == 0x80U);
 8001ab8:	0fe4      	lsrs	r4, r4, #31
 8001aba:	705c      	strb	r4, [r3, #1]
  
  if (ep->num == 0U)
 8001abc:	2900      	cmp	r1, #0
 8001abe:	d11a      	bne.n	8001af6 <HAL_PCD_EP_SetStall+0x6e>
  {
    /* This macro sets STALL status for RX & TX*/ 
    PCD_SET_EP_TXRX_STATUS(hpcd->Instance, ep->num, USB_EP_RX_STALL, USB_EP_TX_STALL)
 8001ac0:	0089      	lsls	r1, r1, #2
 8001ac2:	6803      	ldr	r3, [r0, #0]
 8001ac4:	469c      	mov	ip, r3
 8001ac6:	4461      	add	r1, ip
 8001ac8:	880a      	ldrh	r2, [r1, #0]
 8001aca:	4b1b      	ldr	r3, [pc, #108]	; (8001b38 <HAL_PCD_EP_SetStall+0xb0>)
 8001acc:	401a      	ands	r2, r3
 8001ace:	4b1b      	ldr	r3, [pc, #108]	; (8001b3c <HAL_PCD_EP_SetStall+0xb4>)
 8001ad0:	405a      	eors	r2, r3
 8001ad2:	4b1b      	ldr	r3, [pc, #108]	; (8001b40 <HAL_PCD_EP_SetStall+0xb8>)
 8001ad4:	4313      	orrs	r3, r2
 8001ad6:	800b      	strh	r3, [r1, #0]
    else
    {
      PCD_SET_EP_RX_STATUS(hpcd->Instance, ep->num , USB_EP_RX_STALL)
    }
  }
  __HAL_UNLOCK(hpcd); 
 8001ad8:	2200      	movs	r2, #0
 8001ada:	23f4      	movs	r3, #244	; 0xf4
 8001adc:	005b      	lsls	r3, r3, #1
 8001ade:	54c2      	strb	r2, [r0, r3]
  
  return HAL_OK;
 8001ae0:	2000      	movs	r0, #0
}
 8001ae2:	bd10      	pop	{r4, pc}
    ep = &hpcd->IN_ep[ep_addr & 0x7FU];
 8001ae4:	3b6a      	subs	r3, #106	; 0x6a
 8001ae6:	3bff      	subs	r3, #255	; 0xff
 8001ae8:	400b      	ands	r3, r1
 8001aea:	00da      	lsls	r2, r3, #3
 8001aec:	1ad2      	subs	r2, r2, r3
 8001aee:	0093      	lsls	r3, r2, #2
 8001af0:	3328      	adds	r3, #40	; 0x28
 8001af2:	18c3      	adds	r3, r0, r3
 8001af4:	e7db      	b.n	8001aae <HAL_PCD_EP_SetStall+0x26>
    if (ep->is_in)
 8001af6:	2c00      	cmp	r4, #0
 8001af8:	d00d      	beq.n	8001b16 <HAL_PCD_EP_SetStall+0x8e>
      PCD_SET_EP_TX_STATUS(hpcd->Instance, ep->num , USB_EP_TX_STALL)
 8001afa:	0089      	lsls	r1, r1, #2
 8001afc:	6803      	ldr	r3, [r0, #0]
 8001afe:	469c      	mov	ip, r3
 8001b00:	4461      	add	r1, ip
 8001b02:	880b      	ldrh	r3, [r1, #0]
 8001b04:	4a0f      	ldr	r2, [pc, #60]	; (8001b44 <HAL_PCD_EP_SetStall+0xbc>)
 8001b06:	4013      	ands	r3, r2
 8001b08:	2210      	movs	r2, #16
 8001b0a:	4053      	eors	r3, r2
 8001b0c:	b29b      	uxth	r3, r3
 8001b0e:	4a0c      	ldr	r2, [pc, #48]	; (8001b40 <HAL_PCD_EP_SetStall+0xb8>)
 8001b10:	4313      	orrs	r3, r2
 8001b12:	800b      	strh	r3, [r1, #0]
 8001b14:	e7e0      	b.n	8001ad8 <HAL_PCD_EP_SetStall+0x50>
      PCD_SET_EP_RX_STATUS(hpcd->Instance, ep->num , USB_EP_RX_STALL)
 8001b16:	0089      	lsls	r1, r1, #2
 8001b18:	6803      	ldr	r3, [r0, #0]
 8001b1a:	469c      	mov	ip, r3
 8001b1c:	4461      	add	r1, ip
 8001b1e:	880a      	ldrh	r2, [r1, #0]
 8001b20:	4b09      	ldr	r3, [pc, #36]	; (8001b48 <HAL_PCD_EP_SetStall+0xc0>)
 8001b22:	401a      	ands	r2, r3
 8001b24:	2380      	movs	r3, #128	; 0x80
 8001b26:	015b      	lsls	r3, r3, #5
 8001b28:	405a      	eors	r2, r3
 8001b2a:	4b05      	ldr	r3, [pc, #20]	; (8001b40 <HAL_PCD_EP_SetStall+0xb8>)
 8001b2c:	4313      	orrs	r3, r2
 8001b2e:	800b      	strh	r3, [r1, #0]
 8001b30:	e7d2      	b.n	8001ad8 <HAL_PCD_EP_SetStall+0x50>
  __HAL_LOCK(hpcd); 
 8001b32:	2002      	movs	r0, #2
 8001b34:	e7d5      	b.n	8001ae2 <HAL_PCD_EP_SetStall+0x5a>
 8001b36:	46c0      	nop			; (mov r8, r8)
 8001b38:	ffffbfbf 	.word	0xffffbfbf
 8001b3c:	00001010 	.word	0x00001010
 8001b40:	ffff8080 	.word	0xffff8080
 8001b44:	ffff8fbf 	.word	0xffff8fbf
 8001b48:	ffffbf8f 	.word	0xffffbf8f

08001b4c <HAL_PCD_EP_ClrStall>:
  * @param  hpcd PCD handle
  * @param  ep_addr endpoint address
  * @retval HAL status
  */
HAL_StatusTypeDef HAL_PCD_EP_ClrStall(PCD_HandleTypeDef *hpcd, uint8_t ep_addr)
{
 8001b4c:	b510      	push	{r4, lr}
  PCD_EPTypeDef *ep;
  
  if ((0x80U & ep_addr) == 0x80U)
 8001b4e:	b24a      	sxtb	r2, r1
 8001b50:	2a00      	cmp	r2, #0
 8001b52:	db39      	blt.n	8001bc8 <HAL_PCD_EP_ClrStall+0x7c>
  {
    ep = &hpcd->IN_ep[ep_addr & 0x7FU];
  }
  else
  {
    ep = &hpcd->OUT_ep[ep_addr];
 8001b54:	00cc      	lsls	r4, r1, #3
 8001b56:	1a64      	subs	r4, r4, r1
 8001b58:	00a3      	lsls	r3, r4, #2
 8001b5a:	3309      	adds	r3, #9
 8001b5c:	33ff      	adds	r3, #255	; 0xff
 8001b5e:	18c3      	adds	r3, r0, r3
  }
  
  ep->is_stall = 0U;
 8001b60:	2400      	movs	r4, #0
 8001b62:	709c      	strb	r4, [r3, #2]
  ep->num   = ep_addr & 0x7FU;
 8001b64:	347f      	adds	r4, #127	; 0x7f
 8001b66:	4021      	ands	r1, r4
 8001b68:	7019      	strb	r1, [r3, #0]
  ep->is_in = ((ep_addr & 0x80U) == 0x80U);
 8001b6a:	0fd2      	lsrs	r2, r2, #31
 8001b6c:	705a      	strb	r2, [r3, #1]
  
  __HAL_LOCK(hpcd); 
 8001b6e:	22f4      	movs	r2, #244	; 0xf4
 8001b70:	0052      	lsls	r2, r2, #1
 8001b72:	5c82      	ldrb	r2, [r0, r2]
 8001b74:	2a01      	cmp	r2, #1
 8001b76:	d04b      	beq.n	8001c10 <HAL_PCD_EP_ClrStall+0xc4>
 8001b78:	2101      	movs	r1, #1
 8001b7a:	22f4      	movs	r2, #244	; 0xf4
 8001b7c:	0052      	lsls	r2, r2, #1
 8001b7e:	5481      	strb	r1, [r0, r2]
  
  if (ep->is_in)
 8001b80:	785a      	ldrb	r2, [r3, #1]
 8001b82:	2a00      	cmp	r2, #0
 8001b84:	d028      	beq.n	8001bd8 <HAL_PCD_EP_ClrStall+0x8c>
  {
    PCD_CLEAR_TX_DTOG(hpcd->Instance, ep->num)
 8001b86:	781a      	ldrb	r2, [r3, #0]
 8001b88:	0092      	lsls	r2, r2, #2
 8001b8a:	6801      	ldr	r1, [r0, #0]
 8001b8c:	468c      	mov	ip, r1
 8001b8e:	4462      	add	r2, ip
 8001b90:	8811      	ldrh	r1, [r2, #0]
 8001b92:	064c      	lsls	r4, r1, #25
 8001b94:	d504      	bpl.n	8001ba0 <HAL_PCD_EP_ClrStall+0x54>
 8001b96:	4c1f      	ldr	r4, [pc, #124]	; (8001c14 <HAL_PCD_EP_ClrStall+0xc8>)
 8001b98:	4021      	ands	r1, r4
 8001b9a:	4c1f      	ldr	r4, [pc, #124]	; (8001c18 <HAL_PCD_EP_ClrStall+0xcc>)
 8001b9c:	4321      	orrs	r1, r4
 8001b9e:	8011      	strh	r1, [r2, #0]
    PCD_SET_EP_TX_STATUS(hpcd->Instance, ep->num, USB_EP_TX_VALID)
 8001ba0:	781a      	ldrb	r2, [r3, #0]
 8001ba2:	0092      	lsls	r2, r2, #2
 8001ba4:	6803      	ldr	r3, [r0, #0]
 8001ba6:	469c      	mov	ip, r3
 8001ba8:	4462      	add	r2, ip
 8001baa:	8813      	ldrh	r3, [r2, #0]
 8001bac:	491b      	ldr	r1, [pc, #108]	; (8001c1c <HAL_PCD_EP_ClrStall+0xd0>)
 8001bae:	400b      	ands	r3, r1
 8001bb0:	2130      	movs	r1, #48	; 0x30
 8001bb2:	404b      	eors	r3, r1
 8001bb4:	b29b      	uxth	r3, r3
 8001bb6:	491a      	ldr	r1, [pc, #104]	; (8001c20 <HAL_PCD_EP_ClrStall+0xd4>)
 8001bb8:	430b      	orrs	r3, r1
 8001bba:	8013      	strh	r3, [r2, #0]
  else
  {
    PCD_CLEAR_RX_DTOG(hpcd->Instance, ep->num)
    PCD_SET_EP_RX_STATUS(hpcd->Instance, ep->num, USB_EP_RX_VALID)
  }
  __HAL_UNLOCK(hpcd); 
 8001bbc:	2200      	movs	r2, #0
 8001bbe:	23f4      	movs	r3, #244	; 0xf4
 8001bc0:	005b      	lsls	r3, r3, #1
 8001bc2:	54c2      	strb	r2, [r0, r3]
    
  return HAL_OK;
 8001bc4:	2000      	movs	r0, #0
}
 8001bc6:	bd10      	pop	{r4, pc}
    ep = &hpcd->IN_ep[ep_addr & 0x7FU];
 8001bc8:	237f      	movs	r3, #127	; 0x7f
 8001bca:	400b      	ands	r3, r1
 8001bcc:	00dc      	lsls	r4, r3, #3
 8001bce:	1ae4      	subs	r4, r4, r3
 8001bd0:	00a3      	lsls	r3, r4, #2
 8001bd2:	3328      	adds	r3, #40	; 0x28
 8001bd4:	18c3      	adds	r3, r0, r3
 8001bd6:	e7c3      	b.n	8001b60 <HAL_PCD_EP_ClrStall+0x14>
    PCD_CLEAR_RX_DTOG(hpcd->Instance, ep->num)
 8001bd8:	781a      	ldrb	r2, [r3, #0]
 8001bda:	0092      	lsls	r2, r2, #2
 8001bdc:	6801      	ldr	r1, [r0, #0]
 8001bde:	468c      	mov	ip, r1
 8001be0:	4462      	add	r2, ip
 8001be2:	8811      	ldrh	r1, [r2, #0]
 8001be4:	044c      	lsls	r4, r1, #17
 8001be6:	d504      	bpl.n	8001bf2 <HAL_PCD_EP_ClrStall+0xa6>
 8001be8:	4c0a      	ldr	r4, [pc, #40]	; (8001c14 <HAL_PCD_EP_ClrStall+0xc8>)
 8001bea:	4021      	ands	r1, r4
 8001bec:	4c0d      	ldr	r4, [pc, #52]	; (8001c24 <HAL_PCD_EP_ClrStall+0xd8>)
 8001bee:	4321      	orrs	r1, r4
 8001bf0:	8011      	strh	r1, [r2, #0]
    PCD_SET_EP_RX_STATUS(hpcd->Instance, ep->num, USB_EP_RX_VALID)
 8001bf2:	781b      	ldrb	r3, [r3, #0]
 8001bf4:	009b      	lsls	r3, r3, #2
 8001bf6:	6802      	ldr	r2, [r0, #0]
 8001bf8:	4694      	mov	ip, r2
 8001bfa:	4463      	add	r3, ip
 8001bfc:	8819      	ldrh	r1, [r3, #0]
 8001bfe:	4a0a      	ldr	r2, [pc, #40]	; (8001c28 <HAL_PCD_EP_ClrStall+0xdc>)
 8001c00:	4011      	ands	r1, r2
 8001c02:	22c0      	movs	r2, #192	; 0xc0
 8001c04:	0192      	lsls	r2, r2, #6
 8001c06:	4051      	eors	r1, r2
 8001c08:	4a05      	ldr	r2, [pc, #20]	; (8001c20 <HAL_PCD_EP_ClrStall+0xd4>)
 8001c0a:	430a      	orrs	r2, r1
 8001c0c:	801a      	strh	r2, [r3, #0]
 8001c0e:	e7d5      	b.n	8001bbc <HAL_PCD_EP_ClrStall+0x70>
  __HAL_LOCK(hpcd); 
 8001c10:	2002      	movs	r0, #2
 8001c12:	e7d8      	b.n	8001bc6 <HAL_PCD_EP_ClrStall+0x7a>
 8001c14:	00000f0f 	.word	0x00000f0f
 8001c18:	ffff80c0 	.word	0xffff80c0
 8001c1c:	ffff8fbf 	.word	0xffff8fbf
 8001c20:	ffff8080 	.word	0xffff8080
 8001c24:	ffffc080 	.word	0xffffc080
 8001c28:	ffffbf8f 	.word	0xffffbf8f

08001c2c <PCD_WritePMA>:
  * @param   wPMABufAddr address into PMA.
  * @param   wNBytes no. of bytes to be copied.
  * @retval None
  */
void PCD_WritePMA(USB_TypeDef  *USBx, uint8_t *pbUsrBuf, uint16_t wPMABufAddr, uint16_t wNBytes)
{
 8001c2c:	b510      	push	{r4, lr}
  uint32_t n =  ((uint32_t)((uint32_t)wNBytes + 1U)) >> 1U;
 8001c2e:	3301      	adds	r3, #1
 8001c30:	085b      	lsrs	r3, r3, #1
  uint32_t i;
  uint16_t temp1, temp2;
  uint16_t *pdwVal;
  pdwVal = (uint16_t *)((uint32_t)(wPMABufAddr + (uint32_t)USBx + 0x400U));
 8001c32:	1812      	adds	r2, r2, r0
 8001c34:	2080      	movs	r0, #128	; 0x80
 8001c36:	00c0      	lsls	r0, r0, #3
 8001c38:	1814      	adds	r4, r2, r0
  
  for (i = n; i != 0; i--)
 8001c3a:	e007      	b.n	8001c4c <PCD_WritePMA+0x20>
  {
    temp1 = (uint16_t) * pbUsrBuf;
 8001c3c:	780a      	ldrb	r2, [r1, #0]
    pbUsrBuf++;
    temp2 = temp1 | ((uint16_t)((uint16_t)  * pbUsrBuf << 8U)) ;
 8001c3e:	7848      	ldrb	r0, [r1, #1]
 8001c40:	0200      	lsls	r0, r0, #8
 8001c42:	4302      	orrs	r2, r0
    *pdwVal++ = temp2;
 8001c44:	8022      	strh	r2, [r4, #0]
    pbUsrBuf++;
 8001c46:	3102      	adds	r1, #2
  for (i = n; i != 0; i--)
 8001c48:	3b01      	subs	r3, #1
    *pdwVal++ = temp2;
 8001c4a:	3402      	adds	r4, #2
  for (i = n; i != 0; i--)
 8001c4c:	2b00      	cmp	r3, #0
 8001c4e:	d1f5      	bne.n	8001c3c <PCD_WritePMA+0x10>
  }
}
 8001c50:	bd10      	pop	{r4, pc}
	...

08001c54 <HAL_PCD_EP_Transmit>:
{
 8001c54:	b5f8      	push	{r3, r4, r5, r6, r7, lr}
 8001c56:	0005      	movs	r5, r0
 8001c58:	247f      	movs	r4, #127	; 0x7f
 8001c5a:	400c      	ands	r4, r1
  ep->xfer_buff = pBuf;  
 8001c5c:	00e0      	lsls	r0, r4, #3
 8001c5e:	1b00      	subs	r0, r0, r4
 8001c60:	0081      	lsls	r1, r0, #2
 8001c62:	1869      	adds	r1, r5, r1
 8001c64:	638a      	str	r2, [r1, #56]	; 0x38
  ep->xfer_len = len;
 8001c66:	63cb      	str	r3, [r1, #60]	; 0x3c
  ep->xfer_count = 0U;
 8001c68:	2200      	movs	r2, #0
 8001c6a:	640a      	str	r2, [r1, #64]	; 0x40
  ep->is_in = 1U;
 8001c6c:	000a      	movs	r2, r1
 8001c6e:	3229      	adds	r2, #41	; 0x29
 8001c70:	2001      	movs	r0, #1
 8001c72:	7010      	strb	r0, [r2, #0]
  ep->num = ep_addr & 0x7FU;
 8001c74:	3a01      	subs	r2, #1
 8001c76:	7014      	strb	r4, [r2, #0]
  if (ep->xfer_len > ep->maxpacket)
 8001c78:	6b4f      	ldr	r7, [r1, #52]	; 0x34
 8001c7a:	42bb      	cmp	r3, r7
 8001c7c:	d933      	bls.n	8001ce6 <HAL_PCD_EP_Transmit+0x92>
    ep->xfer_len-=len; 
 8001c7e:	1bdb      	subs	r3, r3, r7
 8001c80:	63cb      	str	r3, [r1, #60]	; 0x3c
  if (ep->doublebuffer == 0U) 
 8001c82:	00e2      	lsls	r2, r4, #3
 8001c84:	1b12      	subs	r2, r2, r4
 8001c86:	0093      	lsls	r3, r2, #2
 8001c88:	001a      	movs	r2, r3
 8001c8a:	18eb      	adds	r3, r5, r3
 8001c8c:	3332      	adds	r3, #50	; 0x32
 8001c8e:	781b      	ldrb	r3, [r3, #0]
 8001c90:	2b00      	cmp	r3, #0
 8001c92:	d030      	beq.n	8001cf6 <HAL_PCD_EP_Transmit+0xa2>
    if ((PCD_GET_ENDPOINT(hpcd->Instance, ep->num)& USB_EP_DTOG_TX) == USB_EP_DTOG_TX)
 8001c94:	6828      	ldr	r0, [r5, #0]
 8001c96:	00e2      	lsls	r2, r4, #3
 8001c98:	1b12      	subs	r2, r2, r4
 8001c9a:	0093      	lsls	r3, r2, #2
 8001c9c:	18eb      	adds	r3, r5, r3
 8001c9e:	3328      	adds	r3, #40	; 0x28
 8001ca0:	781b      	ldrb	r3, [r3, #0]
 8001ca2:	009a      	lsls	r2, r3, #2
 8001ca4:	5a82      	ldrh	r2, [r0, r2]
 8001ca6:	0652      	lsls	r2, r2, #25
 8001ca8:	d574      	bpl.n	8001d94 <HAL_PCD_EP_Transmit+0x140>
      PCD_SET_EP_DBUF1_CNT(hpcd->Instance, ep->num, ep->is_in, len)
 8001caa:	00e6      	lsls	r6, r4, #3
 8001cac:	1b36      	subs	r6, r6, r4
 8001cae:	00b2      	lsls	r2, r6, #2
 8001cb0:	18aa      	adds	r2, r5, r2
 8001cb2:	3229      	adds	r2, #41	; 0x29
 8001cb4:	7812      	ldrb	r2, [r2, #0]
 8001cb6:	2a00      	cmp	r2, #0
 8001cb8:	d13b      	bne.n	8001d32 <HAL_PCD_EP_Transmit+0xde>
 8001cba:	3250      	adds	r2, #80	; 0x50
 8001cbc:	5a82      	ldrh	r2, [r0, r2]
 8001cbe:	00db      	lsls	r3, r3, #3
 8001cc0:	18d3      	adds	r3, r2, r3
 8001cc2:	1818      	adds	r0, r3, r0
 8001cc4:	4b62      	ldr	r3, [pc, #392]	; (8001e50 <HAL_PCD_EP_Transmit+0x1fc>)
 8001cc6:	469c      	mov	ip, r3
 8001cc8:	4460      	add	r0, ip
 8001cca:	2f3e      	cmp	r7, #62	; 0x3e
 8001ccc:	d928      	bls.n	8001d20 <HAL_PCD_EP_Transmit+0xcc>
 8001cce:	097b      	lsrs	r3, r7, #5
 8001cd0:	b29b      	uxth	r3, r3
 8001cd2:	06fa      	lsls	r2, r7, #27
 8001cd4:	d101      	bne.n	8001cda <HAL_PCD_EP_Transmit+0x86>
 8001cd6:	3b01      	subs	r3, #1
 8001cd8:	b29b      	uxth	r3, r3
 8001cda:	029b      	lsls	r3, r3, #10
 8001cdc:	b29b      	uxth	r3, r3
 8001cde:	4a5d      	ldr	r2, [pc, #372]	; (8001e54 <HAL_PCD_EP_Transmit+0x200>)
 8001ce0:	4313      	orrs	r3, r2
 8001ce2:	8003      	strh	r3, [r0, #0]
 8001ce4:	e027      	b.n	8001d36 <HAL_PCD_EP_Transmit+0xe2>
    ep->xfer_len =0U;
 8001ce6:	00e1      	lsls	r1, r4, #3
 8001ce8:	1b09      	subs	r1, r1, r4
 8001cea:	008a      	lsls	r2, r1, #2
 8001cec:	18aa      	adds	r2, r5, r2
 8001cee:	2100      	movs	r1, #0
 8001cf0:	63d1      	str	r1, [r2, #60]	; 0x3c
    len=ep->xfer_len;
 8001cf2:	001f      	movs	r7, r3
 8001cf4:	e7c5      	b.n	8001c82 <HAL_PCD_EP_Transmit+0x2e>
    PCD_WritePMA(hpcd->Instance, ep->xfer_buff, ep->pmaadress, len);
 8001cf6:	b2bf      	uxth	r7, r7
 8001cf8:	18ae      	adds	r6, r5, r2
 8001cfa:	8db2      	ldrh	r2, [r6, #44]	; 0x2c
 8001cfc:	003b      	movs	r3, r7
 8001cfe:	6bb1      	ldr	r1, [r6, #56]	; 0x38
 8001d00:	6828      	ldr	r0, [r5, #0]
 8001d02:	f7ff ff93 	bl	8001c2c <PCD_WritePMA>
    PCD_SET_EP_TX_CNT(hpcd->Instance, ep->num, len);
 8001d06:	682a      	ldr	r2, [r5, #0]
 8001d08:	2350      	movs	r3, #80	; 0x50
 8001d0a:	5ad3      	ldrh	r3, [r2, r3]
 8001d0c:	3628      	adds	r6, #40	; 0x28
 8001d0e:	7831      	ldrb	r1, [r6, #0]
 8001d10:	00c9      	lsls	r1, r1, #3
 8001d12:	185b      	adds	r3, r3, r1
 8001d14:	189b      	adds	r3, r3, r2
 8001d16:	4a50      	ldr	r2, [pc, #320]	; (8001e58 <HAL_PCD_EP_Transmit+0x204>)
 8001d18:	4694      	mov	ip, r2
 8001d1a:	4463      	add	r3, ip
 8001d1c:	801f      	strh	r7, [r3, #0]
 8001d1e:	e082      	b.n	8001e26 <HAL_PCD_EP_Transmit+0x1d2>
      PCD_SET_EP_DBUF1_CNT(hpcd->Instance, ep->num, ep->is_in, len)
 8001d20:	087b      	lsrs	r3, r7, #1
 8001d22:	b29b      	uxth	r3, r3
 8001d24:	07fa      	lsls	r2, r7, #31
 8001d26:	d501      	bpl.n	8001d2c <HAL_PCD_EP_Transmit+0xd8>
 8001d28:	3301      	adds	r3, #1
 8001d2a:	b29b      	uxth	r3, r3
 8001d2c:	029b      	lsls	r3, r3, #10
 8001d2e:	8003      	strh	r3, [r0, #0]
 8001d30:	e001      	b.n	8001d36 <HAL_PCD_EP_Transmit+0xe2>
 8001d32:	2a01      	cmp	r2, #1
 8001d34:	d024      	beq.n	8001d80 <HAL_PCD_EP_Transmit+0x12c>
      pmabuffer = ep->pmaaddr1;
 8001d36:	00e2      	lsls	r2, r4, #3
 8001d38:	1b12      	subs	r2, r2, r4
 8001d3a:	0093      	lsls	r3, r2, #2
 8001d3c:	18eb      	adds	r3, r5, r3
 8001d3e:	8e1a      	ldrh	r2, [r3, #48]	; 0x30
    PCD_WritePMA(hpcd->Instance, ep->xfer_buff, pmabuffer, len);
 8001d40:	b2bb      	uxth	r3, r7
 8001d42:	00e1      	lsls	r1, r4, #3
 8001d44:	1b09      	subs	r1, r1, r4
 8001d46:	008e      	lsls	r6, r1, #2
 8001d48:	19ae      	adds	r6, r5, r6
 8001d4a:	6bb1      	ldr	r1, [r6, #56]	; 0x38
 8001d4c:	6828      	ldr	r0, [r5, #0]
 8001d4e:	f7ff ff6d 	bl	8001c2c <PCD_WritePMA>
    PCD_FreeUserBuffer(hpcd->Instance, ep->num, ep->is_in)
 8001d52:	3629      	adds	r6, #41	; 0x29
 8001d54:	7833      	ldrb	r3, [r6, #0]
 8001d56:	2b00      	cmp	r3, #0
 8001d58:	d055      	beq.n	8001e06 <HAL_PCD_EP_Transmit+0x1b2>
 8001d5a:	2b01      	cmp	r3, #1
 8001d5c:	d163      	bne.n	8001e26 <HAL_PCD_EP_Transmit+0x1d2>
 8001d5e:	00e2      	lsls	r2, r4, #3
 8001d60:	1b12      	subs	r2, r2, r4
 8001d62:	0093      	lsls	r3, r2, #2
 8001d64:	18eb      	adds	r3, r5, r3
 8001d66:	3328      	adds	r3, #40	; 0x28
 8001d68:	781b      	ldrb	r3, [r3, #0]
 8001d6a:	009b      	lsls	r3, r3, #2
 8001d6c:	682a      	ldr	r2, [r5, #0]
 8001d6e:	4694      	mov	ip, r2
 8001d70:	4463      	add	r3, ip
 8001d72:	881a      	ldrh	r2, [r3, #0]
 8001d74:	4939      	ldr	r1, [pc, #228]	; (8001e5c <HAL_PCD_EP_Transmit+0x208>)
 8001d76:	4011      	ands	r1, r2
 8001d78:	4a39      	ldr	r2, [pc, #228]	; (8001e60 <HAL_PCD_EP_Transmit+0x20c>)
 8001d7a:	430a      	orrs	r2, r1
 8001d7c:	801a      	strh	r2, [r3, #0]
 8001d7e:	e052      	b.n	8001e26 <HAL_PCD_EP_Transmit+0x1d2>
      PCD_SET_EP_DBUF1_CNT(hpcd->Instance, ep->num, ep->is_in, len)
 8001d80:	324f      	adds	r2, #79	; 0x4f
 8001d82:	5a82      	ldrh	r2, [r0, r2]
 8001d84:	00db      	lsls	r3, r3, #3
 8001d86:	18d3      	adds	r3, r2, r3
 8001d88:	1818      	adds	r0, r3, r0
 8001d8a:	4b31      	ldr	r3, [pc, #196]	; (8001e50 <HAL_PCD_EP_Transmit+0x1fc>)
 8001d8c:	469c      	mov	ip, r3
 8001d8e:	4460      	add	r0, ip
 8001d90:	8007      	strh	r7, [r0, #0]
 8001d92:	e7d0      	b.n	8001d36 <HAL_PCD_EP_Transmit+0xe2>
      PCD_SET_EP_DBUF0_CNT(hpcd->Instance, ep->num, ep->is_in, len)
 8001d94:	00e6      	lsls	r6, r4, #3
 8001d96:	1b36      	subs	r6, r6, r4
 8001d98:	00b2      	lsls	r2, r6, #2
 8001d9a:	18aa      	adds	r2, r5, r2
 8001d9c:	3229      	adds	r2, #41	; 0x29
 8001d9e:	7812      	ldrb	r2, [r2, #0]
 8001da0:	2a00      	cmp	r2, #0
 8001da2:	d11e      	bne.n	8001de2 <HAL_PCD_EP_Transmit+0x18e>
 8001da4:	3250      	adds	r2, #80	; 0x50
 8001da6:	5a82      	ldrh	r2, [r0, r2]
 8001da8:	00db      	lsls	r3, r3, #3
 8001daa:	18d3      	adds	r3, r2, r3
 8001dac:	1818      	adds	r0, r3, r0
 8001dae:	4b2a      	ldr	r3, [pc, #168]	; (8001e58 <HAL_PCD_EP_Transmit+0x204>)
 8001db0:	469c      	mov	ip, r3
 8001db2:	4460      	add	r0, ip
 8001db4:	2f3e      	cmp	r7, #62	; 0x3e
 8001db6:	d90b      	bls.n	8001dd0 <HAL_PCD_EP_Transmit+0x17c>
 8001db8:	097b      	lsrs	r3, r7, #5
 8001dba:	b29b      	uxth	r3, r3
 8001dbc:	06fa      	lsls	r2, r7, #27
 8001dbe:	d101      	bne.n	8001dc4 <HAL_PCD_EP_Transmit+0x170>
 8001dc0:	3b01      	subs	r3, #1
 8001dc2:	b29b      	uxth	r3, r3
 8001dc4:	029b      	lsls	r3, r3, #10
 8001dc6:	b29b      	uxth	r3, r3
 8001dc8:	4a22      	ldr	r2, [pc, #136]	; (8001e54 <HAL_PCD_EP_Transmit+0x200>)
 8001dca:	4313      	orrs	r3, r2
 8001dcc:	8003      	strh	r3, [r0, #0]
 8001dce:	e00a      	b.n	8001de6 <HAL_PCD_EP_Transmit+0x192>
 8001dd0:	087b      	lsrs	r3, r7, #1
 8001dd2:	b29b      	uxth	r3, r3
 8001dd4:	07fa      	lsls	r2, r7, #31
 8001dd6:	d501      	bpl.n	8001ddc <HAL_PCD_EP_Transmit+0x188>
 8001dd8:	3301      	adds	r3, #1
 8001dda:	b29b      	uxth	r3, r3
 8001ddc:	029b      	lsls	r3, r3, #10
 8001dde:	8003      	strh	r3, [r0, #0]
 8001de0:	e001      	b.n	8001de6 <HAL_PCD_EP_Transmit+0x192>
 8001de2:	2a01      	cmp	r2, #1
 8001de4:	d005      	beq.n	8001df2 <HAL_PCD_EP_Transmit+0x19e>
      pmabuffer = ep->pmaaddr0;
 8001de6:	00e2      	lsls	r2, r4, #3
 8001de8:	1b12      	subs	r2, r2, r4
 8001dea:	0093      	lsls	r3, r2, #2
 8001dec:	18eb      	adds	r3, r5, r3
 8001dee:	8dda      	ldrh	r2, [r3, #46]	; 0x2e
 8001df0:	e7a6      	b.n	8001d40 <HAL_PCD_EP_Transmit+0xec>
      PCD_SET_EP_DBUF0_CNT(hpcd->Instance, ep->num, ep->is_in, len)
 8001df2:	324f      	adds	r2, #79	; 0x4f
 8001df4:	5a82      	ldrh	r2, [r0, r2]
 8001df6:	00db      	lsls	r3, r3, #3
 8001df8:	18d3      	adds	r3, r2, r3
 8001dfa:	1818      	adds	r0, r3, r0
 8001dfc:	4b16      	ldr	r3, [pc, #88]	; (8001e58 <HAL_PCD_EP_Transmit+0x204>)
 8001dfe:	469c      	mov	ip, r3
 8001e00:	4460      	add	r0, ip
 8001e02:	8007      	strh	r7, [r0, #0]
 8001e04:	e7ef      	b.n	8001de6 <HAL_PCD_EP_Transmit+0x192>
    PCD_FreeUserBuffer(hpcd->Instance, ep->num, ep->is_in)
 8001e06:	00e2      	lsls	r2, r4, #3
 8001e08:	1b12      	subs	r2, r2, r4
 8001e0a:	0093      	lsls	r3, r2, #2
 8001e0c:	18eb      	adds	r3, r5, r3
 8001e0e:	3328      	adds	r3, #40	; 0x28
 8001e10:	781b      	ldrb	r3, [r3, #0]
 8001e12:	009b      	lsls	r3, r3, #2
 8001e14:	682a      	ldr	r2, [r5, #0]
 8001e16:	4694      	mov	ip, r2
 8001e18:	4463      	add	r3, ip
 8001e1a:	881a      	ldrh	r2, [r3, #0]
 8001e1c:	490f      	ldr	r1, [pc, #60]	; (8001e5c <HAL_PCD_EP_Transmit+0x208>)
 8001e1e:	4011      	ands	r1, r2
 8001e20:	4a10      	ldr	r2, [pc, #64]	; (8001e64 <HAL_PCD_EP_Transmit+0x210>)
 8001e22:	430a      	orrs	r2, r1
 8001e24:	801a      	strh	r2, [r3, #0]
  PCD_SET_EP_TX_STATUS(hpcd->Instance, ep->num, USB_EP_TX_VALID)
 8001e26:	682a      	ldr	r2, [r5, #0]
 8001e28:	00e1      	lsls	r1, r4, #3
 8001e2a:	1b0c      	subs	r4, r1, r4
 8001e2c:	00a3      	lsls	r3, r4, #2
 8001e2e:	18ed      	adds	r5, r5, r3
 8001e30:	3528      	adds	r5, #40	; 0x28
 8001e32:	782b      	ldrb	r3, [r5, #0]
 8001e34:	009b      	lsls	r3, r3, #2
 8001e36:	18d2      	adds	r2, r2, r3
 8001e38:	8813      	ldrh	r3, [r2, #0]
 8001e3a:	490b      	ldr	r1, [pc, #44]	; (8001e68 <HAL_PCD_EP_Transmit+0x214>)
 8001e3c:	400b      	ands	r3, r1
 8001e3e:	2130      	movs	r1, #48	; 0x30
 8001e40:	404b      	eors	r3, r1
 8001e42:	b29b      	uxth	r3, r3
 8001e44:	4909      	ldr	r1, [pc, #36]	; (8001e6c <HAL_PCD_EP_Transmit+0x218>)
 8001e46:	430b      	orrs	r3, r1
 8001e48:	8013      	strh	r3, [r2, #0]
}
 8001e4a:	2000      	movs	r0, #0
 8001e4c:	bdf8      	pop	{r3, r4, r5, r6, r7, pc}
 8001e4e:	46c0      	nop			; (mov r8, r8)
 8001e50:	00000406 	.word	0x00000406
 8001e54:	ffff8000 	.word	0xffff8000
 8001e58:	00000402 	.word	0x00000402
 8001e5c:	00000f0f 	.word	0x00000f0f
 8001e60:	ffffc080 	.word	0xffffc080
 8001e64:	ffff80c0 	.word	0xffff80c0
 8001e68:	ffff8fbf 	.word	0xffff8fbf
 8001e6c:	ffff8080 	.word	0xffff8080

08001e70 <PCD_ReadPMA>:
  * @param   wPMABufAddr address into PMA.
  * @param   wNBytes no. of bytes to be copied.
  * @retval None
  */
void PCD_ReadPMA(USB_TypeDef  *USBx, uint8_t *pbUsrBuf, uint16_t wPMABufAddr, uint16_t wNBytes)
{
 8001e70:	b510      	push	{r4, lr}
  uint32_t n = (uint32_t)wNBytes >> 1U;
 8001e72:	085c      	lsrs	r4, r3, #1
  uint32_t i;
  uint16_t *pdwVal;
  uint32_t temp;
  pdwVal = (uint16_t *)((uint32_t)(wPMABufAddr + (uint32_t)USBx + 0x400U));
 8001e74:	1810      	adds	r0, r2, r0
 8001e76:	2280      	movs	r2, #128	; 0x80
 8001e78:	00d2      	lsls	r2, r2, #3
 8001e7a:	4694      	mov	ip, r2
 8001e7c:	4460      	add	r0, ip
  
  for (i = n; i != 0U; i--)
 8001e7e:	e006      	b.n	8001e8e <PCD_ReadPMA+0x1e>
  {
    temp = *pdwVal++;
 8001e80:	8802      	ldrh	r2, [r0, #0]
    *pbUsrBuf++ = ((temp >> 0) & 0xFF);
 8001e82:	700a      	strb	r2, [r1, #0]
    *pbUsrBuf++ = ((temp >> 8) & 0xFF);
 8001e84:	0a12      	lsrs	r2, r2, #8
 8001e86:	704a      	strb	r2, [r1, #1]
  for (i = n; i != 0U; i--)
 8001e88:	3c01      	subs	r4, #1
    temp = *pdwVal++;
 8001e8a:	3002      	adds	r0, #2
    *pbUsrBuf++ = ((temp >> 8) & 0xFF);
 8001e8c:	3102      	adds	r1, #2
  for (i = n; i != 0U; i--)
 8001e8e:	2c00      	cmp	r4, #0
 8001e90:	d1f6      	bne.n	8001e80 <PCD_ReadPMA+0x10>
  }
  
  if (wNBytes % 2)
 8001e92:	07db      	lsls	r3, r3, #31
 8001e94:	d501      	bpl.n	8001e9a <PCD_ReadPMA+0x2a>
  {
    temp = *pdwVal++;
 8001e96:	8803      	ldrh	r3, [r0, #0]
    *pbUsrBuf++ = ((temp >> 0) & 0xFF);
 8001e98:	700b      	strb	r3, [r1, #0]
  }
}
 8001e9a:	bd10      	pop	{r4, pc}

08001e9c <PCD_EP_ISR_Handler>:
  * @brief  This function handles PCD Endpoint interrupt request.
  * @param  hpcd PCD handle
  * @retval HAL status
  */
static HAL_StatusTypeDef PCD_EP_ISR_Handler(PCD_HandleTypeDef *hpcd)
{
 8001e9c:	b5f0      	push	{r4, r5, r6, r7, lr}
 8001e9e:	b083      	sub	sp, #12
 8001ea0:	0005      	movs	r5, r0
  PCD_EPTypeDef *ep;
  uint16_t count=0U;
  uint8_t EPindex;
  __IO uint16_t wIstr;  
  __IO uint16_t wEPVal = 0U;
 8001ea2:	2200      	movs	r2, #0
 8001ea4:	ab01      	add	r3, sp, #4
 8001ea6:	801a      	strh	r2, [r3, #0]
  
  /* stay in loop while pending interrupts */
  while (((wIstr = hpcd->Instance->ISTR) & USB_ISTR_CTR) != 0U)
 8001ea8:	e1b5      	b.n	8002216 <PCD_EP_ISR_Handler+0x37a>
      {
        /* DIR = 0 */
        
        /* DIR = 0      => IN  int */
        /* DIR = 0 implies that (EP_CTR_TX = 1) always  */
        PCD_CLEAR_TX_EP_CTR(hpcd->Instance, PCD_ENDP0);
 8001eaa:	8803      	ldrh	r3, [r0, #0]
 8001eac:	4aa9      	ldr	r2, [pc, #676]	; (8002154 <PCD_EP_ISR_Handler+0x2b8>)
 8001eae:	4013      	ands	r3, r2
 8001eb0:	8003      	strh	r3, [r0, #0]
        ep = &hpcd->IN_ep[0];
        
        ep->xfer_count = PCD_GET_EP_TX_CNT(hpcd->Instance, ep->num);
 8001eb2:	6829      	ldr	r1, [r5, #0]
 8001eb4:	2350      	movs	r3, #80	; 0x50
 8001eb6:	5acb      	ldrh	r3, [r1, r3]
 8001eb8:	2228      	movs	r2, #40	; 0x28
 8001eba:	5caa      	ldrb	r2, [r5, r2]
 8001ebc:	00d2      	lsls	r2, r2, #3
 8001ebe:	189b      	adds	r3, r3, r2
 8001ec0:	185b      	adds	r3, r3, r1
 8001ec2:	4aa5      	ldr	r2, [pc, #660]	; (8002158 <PCD_EP_ISR_Handler+0x2bc>)
 8001ec4:	4694      	mov	ip, r2
 8001ec6:	4463      	add	r3, ip
 8001ec8:	881b      	ldrh	r3, [r3, #0]
 8001eca:	059b      	lsls	r3, r3, #22
 8001ecc:	0d9b      	lsrs	r3, r3, #22
 8001ece:	642b      	str	r3, [r5, #64]	; 0x40
        ep->xfer_buff += ep->xfer_count;
 8001ed0:	6baa      	ldr	r2, [r5, #56]	; 0x38
 8001ed2:	4694      	mov	ip, r2
 8001ed4:	4463      	add	r3, ip
 8001ed6:	63ab      	str	r3, [r5, #56]	; 0x38
 
        /* TX COMPLETE */
        HAL_PCD_DataInStageCallback(hpcd, 0U);
 8001ed8:	2100      	movs	r1, #0
 8001eda:	0028      	movs	r0, r5
 8001edc:	f002 fcef 	bl	80048be <HAL_PCD_DataInStageCallback>
        
        
        if((hpcd->USB_Address > 0U)&& ( ep->xfer_len == 0U))
 8001ee0:	2324      	movs	r3, #36	; 0x24
 8001ee2:	5ceb      	ldrb	r3, [r5, r3]
 8001ee4:	2b00      	cmp	r3, #0
 8001ee6:	d100      	bne.n	8001eea <PCD_EP_ISR_Handler+0x4e>
 8001ee8:	e195      	b.n	8002216 <PCD_EP_ISR_Handler+0x37a>
 8001eea:	6beb      	ldr	r3, [r5, #60]	; 0x3c
 8001eec:	2b00      	cmp	r3, #0
 8001eee:	d000      	beq.n	8001ef2 <PCD_EP_ISR_Handler+0x56>
 8001ef0:	e191      	b.n	8002216 <PCD_EP_ISR_Handler+0x37a>
        {
          hpcd->Instance->DADDR = (hpcd->USB_Address | USB_DADDR_EF);
 8001ef2:	2224      	movs	r2, #36	; 0x24
 8001ef4:	5cab      	ldrb	r3, [r5, r2]
 8001ef6:	2180      	movs	r1, #128	; 0x80
 8001ef8:	4249      	negs	r1, r1
 8001efa:	430b      	orrs	r3, r1
 8001efc:	b2db      	uxtb	r3, r3
 8001efe:	31cc      	adds	r1, #204	; 0xcc
 8001f00:	6828      	ldr	r0, [r5, #0]
 8001f02:	5243      	strh	r3, [r0, r1]
          hpcd->USB_Address = 0U;
 8001f04:	2300      	movs	r3, #0
 8001f06:	54ab      	strb	r3, [r5, r2]
 8001f08:	e185      	b.n	8002216 <PCD_EP_ISR_Handler+0x37a>
        wEPVal = PCD_GET_ENDPOINT(hpcd->Instance, PCD_ENDP0);
        
        if ((wEPVal & USB_EP_SETUP) != 0U)
        {
          /* Get SETUP Packet*/
          ep->xfer_count = PCD_GET_EP_RX_CNT(hpcd->Instance, ep->num);
 8001f0a:	2350      	movs	r3, #80	; 0x50
 8001f0c:	5ac3      	ldrh	r3, [r0, r3]
 8001f0e:	2284      	movs	r2, #132	; 0x84
 8001f10:	0052      	lsls	r2, r2, #1
 8001f12:	5caa      	ldrb	r2, [r5, r2]
 8001f14:	00d2      	lsls	r2, r2, #3
 8001f16:	189b      	adds	r3, r3, r2
 8001f18:	181b      	adds	r3, r3, r0
 8001f1a:	4a90      	ldr	r2, [pc, #576]	; (800215c <PCD_EP_ISR_Handler+0x2c0>)
 8001f1c:	4694      	mov	ip, r2
 8001f1e:	4463      	add	r3, ip
 8001f20:	881b      	ldrh	r3, [r3, #0]
 8001f22:	059b      	lsls	r3, r3, #22
 8001f24:	0d9b      	lsrs	r3, r3, #22
 8001f26:	002a      	movs	r2, r5
 8001f28:	3209      	adds	r2, #9
 8001f2a:	32ff      	adds	r2, #255	; 0xff
 8001f2c:	6193      	str	r3, [r2, #24]
          PCD_ReadPMA(hpcd->Instance, (uint8_t*)(void*)hpcd->Setup ,ep->pmaadress , ep->xfer_count);
 8001f2e:	0029      	movs	r1, r5
 8001f30:	31ed      	adds	r1, #237	; 0xed
 8001f32:	31ff      	adds	r1, #255	; 0xff
 8001f34:	8892      	ldrh	r2, [r2, #4]
 8001f36:	f7ff ff9b 	bl	8001e70 <PCD_ReadPMA>
          /* SETUP bit kept frozen while CTR_RX = 1*/ 
          PCD_CLEAR_RX_EP_CTR(hpcd->Instance, PCD_ENDP0); 
 8001f3a:	682a      	ldr	r2, [r5, #0]
 8001f3c:	8813      	ldrh	r3, [r2, #0]
 8001f3e:	4988      	ldr	r1, [pc, #544]	; (8002160 <PCD_EP_ISR_Handler+0x2c4>)
 8001f40:	400b      	ands	r3, r1
 8001f42:	8013      	strh	r3, [r2, #0]
          
          /* Process SETUP Packet*/
          HAL_PCD_SetupStageCallback(hpcd);
 8001f44:	0028      	movs	r0, r5
 8001f46:	f002 fca1 	bl	800488c <HAL_PCD_SetupStageCallback>
 8001f4a:	e164      	b.n	8002216 <PCD_EP_ISR_Handler+0x37a>
          /* Get Control Data OUT Packet*/
          ep->xfer_count = PCD_GET_EP_RX_CNT(hpcd->Instance, ep->num);
          
          if (ep->xfer_count != 0U)
          {
            PCD_ReadPMA(hpcd->Instance, ep->xfer_buff, ep->pmaadress, ep->xfer_count);
 8001f4c:	0014      	movs	r4, r2
 8001f4e:	8892      	ldrh	r2, [r2, #4]
 8001f50:	6921      	ldr	r1, [r4, #16]
 8001f52:	f7ff ff8d 	bl	8001e70 <PCD_ReadPMA>
            ep->xfer_buff+=ep->xfer_count;
 8001f56:	6923      	ldr	r3, [r4, #16]
 8001f58:	69a2      	ldr	r2, [r4, #24]
 8001f5a:	4694      	mov	ip, r2
 8001f5c:	4463      	add	r3, ip
 8001f5e:	6123      	str	r3, [r4, #16]
 8001f60:	e195      	b.n	800228e <PCD_EP_ISR_Handler+0x3f2>
          }
          
          /* Process Control Data OUT Packet*/
           HAL_PCD_DataOutStageCallback(hpcd, 0U);
          
          PCD_SET_EP_RX_CNT(hpcd->Instance, PCD_ENDP0, ep->maxpacket)
 8001f62:	084b      	lsrs	r3, r1, #1
 8001f64:	b29b      	uxth	r3, r3
 8001f66:	07c9      	lsls	r1, r1, #31
 8001f68:	d501      	bpl.n	8001f6e <PCD_EP_ISR_Handler+0xd2>
 8001f6a:	3301      	adds	r3, #1
 8001f6c:	b29b      	uxth	r3, r3
 8001f6e:	029b      	lsls	r3, r3, #10
 8001f70:	8013      	strh	r3, [r2, #0]
 8001f72:	e1a9      	b.n	80022c8 <PCD_EP_ISR_Handler+0x42c>
    {
      
      /* Decode and service non control endpoints interrupt  */
      
      /* process related endpoint register */
      wEPVal = PCD_GET_ENDPOINT(hpcd->Instance, EPindex);
 8001f74:	00a6      	lsls	r6, r4, #2
 8001f76:	1980      	adds	r0, r0, r6
 8001f78:	8802      	ldrh	r2, [r0, #0]
 8001f7a:	ab01      	add	r3, sp, #4
 8001f7c:	801a      	strh	r2, [r3, #0]
      if ((wEPVal & USB_EP_CTR_RX) != 0U)
 8001f7e:	881b      	ldrh	r3, [r3, #0]
 8001f80:	b21b      	sxth	r3, r3
 8001f82:	2b00      	cmp	r3, #0
 8001f84:	db31      	blt.n	8001fea <PCD_EP_ISR_Handler+0x14e>
          HAL_PCD_EP_Receive(hpcd, ep->num, ep->xfer_buff, ep->xfer_len);
        }
        
      } /* if((wEPVal & EP_CTR_RX) */
      
      if ((wEPVal & USB_EP_CTR_TX) != 0U)
 8001f86:	ab01      	add	r3, sp, #4
 8001f88:	881b      	ldrh	r3, [r3, #0]
 8001f8a:	061b      	lsls	r3, r3, #24
 8001f8c:	d400      	bmi.n	8001f90 <PCD_EP_ISR_Handler+0xf4>
 8001f8e:	e142      	b.n	8002216 <PCD_EP_ISR_Handler+0x37a>
      {
        ep = &hpcd->IN_ep[EPindex];
        
        /* clear int flag */
        PCD_CLEAR_TX_EP_CTR(hpcd->Instance, EPindex);
 8001f90:	682b      	ldr	r3, [r5, #0]
 8001f92:	469c      	mov	ip, r3
 8001f94:	4466      	add	r6, ip
 8001f96:	8833      	ldrh	r3, [r6, #0]
 8001f98:	4a6e      	ldr	r2, [pc, #440]	; (8002154 <PCD_EP_ISR_Handler+0x2b8>)
 8001f9a:	4013      	ands	r3, r2
 8001f9c:	8033      	strh	r3, [r6, #0]
        
        /* IN double Buffering*/
        if (ep->doublebuffer == 0U)
 8001f9e:	00e2      	lsls	r2, r4, #3
 8001fa0:	1b12      	subs	r2, r2, r4
 8001fa2:	0093      	lsls	r3, r2, #2
 8001fa4:	001a      	movs	r2, r3
 8001fa6:	18eb      	adds	r3, r5, r3
 8001fa8:	3332      	adds	r3, #50	; 0x32
 8001faa:	781b      	ldrb	r3, [r3, #0]
 8001fac:	2b00      	cmp	r3, #0
 8001fae:	d000      	beq.n	8001fb2 <PCD_EP_ISR_Handler+0x116>
 8001fb0:	e0dc      	b.n	800216c <PCD_EP_ISR_Handler+0x2d0>
        {
          ep->xfer_count = PCD_GET_EP_TX_CNT(hpcd->Instance, ep->num);
 8001fb2:	6828      	ldr	r0, [r5, #0]
 8001fb4:	3350      	adds	r3, #80	; 0x50
 8001fb6:	5ac3      	ldrh	r3, [r0, r3]
 8001fb8:	18aa      	adds	r2, r5, r2
 8001fba:	0011      	movs	r1, r2
 8001fbc:	3128      	adds	r1, #40	; 0x28
 8001fbe:	7809      	ldrb	r1, [r1, #0]
 8001fc0:	00c9      	lsls	r1, r1, #3
 8001fc2:	185b      	adds	r3, r3, r1
 8001fc4:	181b      	adds	r3, r3, r0
 8001fc6:	4964      	ldr	r1, [pc, #400]	; (8002158 <PCD_EP_ISR_Handler+0x2bc>)
 8001fc8:	468c      	mov	ip, r1
 8001fca:	4463      	add	r3, ip
 8001fcc:	881b      	ldrh	r3, [r3, #0]
 8001fce:	059b      	lsls	r3, r3, #22
 8001fd0:	0d9b      	lsrs	r3, r3, #22
 8001fd2:	6413      	str	r3, [r2, #64]	; 0x40
          if (ep->xfer_count != 0)
 8001fd4:	d100      	bne.n	8001fd8 <PCD_EP_ISR_Handler+0x13c>
 8001fd6:	e0f9      	b.n	80021cc <PCD_EP_ISR_Handler+0x330>
          {
            PCD_WritePMA(hpcd->Instance, ep->xfer_buff, ep->pmaadress, ep->xfer_count);
 8001fd8:	00e2      	lsls	r2, r4, #3
 8001fda:	1b12      	subs	r2, r2, r4
 8001fdc:	0091      	lsls	r1, r2, #2
 8001fde:	1869      	adds	r1, r5, r1
 8001fe0:	8d8a      	ldrh	r2, [r1, #44]	; 0x2c
 8001fe2:	6b89      	ldr	r1, [r1, #56]	; 0x38
 8001fe4:	f7ff fe22 	bl	8001c2c <PCD_WritePMA>
 8001fe8:	e0f0      	b.n	80021cc <PCD_EP_ISR_Handler+0x330>
        PCD_CLEAR_RX_EP_CTR(hpcd->Instance, EPindex);
 8001fea:	4b5d      	ldr	r3, [pc, #372]	; (8002160 <PCD_EP_ISR_Handler+0x2c4>)
 8001fec:	401a      	ands	r2, r3
 8001fee:	8002      	strh	r2, [r0, #0]
        if (ep->doublebuffer == 0U)
 8001ff0:	00e2      	lsls	r2, r4, #3
 8001ff2:	1b12      	subs	r2, r2, r4
 8001ff4:	0093      	lsls	r3, r2, #2
 8001ff6:	001a      	movs	r2, r3
 8001ff8:	18eb      	adds	r3, r5, r3
 8001ffa:	3313      	adds	r3, #19
 8001ffc:	33ff      	adds	r3, #255	; 0xff
 8001ffe:	781b      	ldrb	r3, [r3, #0]
 8002000:	2b00      	cmp	r3, #0
 8002002:	d11d      	bne.n	8002040 <PCD_EP_ISR_Handler+0x1a4>
          count = PCD_GET_EP_RX_CNT(hpcd->Instance, ep->num);
 8002004:	6828      	ldr	r0, [r5, #0]
 8002006:	3350      	adds	r3, #80	; 0x50
 8002008:	5ac3      	ldrh	r3, [r0, r3]
 800200a:	0011      	movs	r1, r2
 800200c:	18aa      	adds	r2, r5, r2
 800200e:	3209      	adds	r2, #9
 8002010:	32ff      	adds	r2, #255	; 0xff
 8002012:	7812      	ldrb	r2, [r2, #0]
 8002014:	00d2      	lsls	r2, r2, #3
 8002016:	189b      	adds	r3, r3, r2
 8002018:	181b      	adds	r3, r3, r0
 800201a:	4a50      	ldr	r2, [pc, #320]	; (800215c <PCD_EP_ISR_Handler+0x2c0>)
 800201c:	4694      	mov	ip, r2
 800201e:	4463      	add	r3, ip
 8002020:	881f      	ldrh	r7, [r3, #0]
 8002022:	05bf      	lsls	r7, r7, #22
 8002024:	0dbf      	lsrs	r7, r7, #22
          if (count != 0U)
 8002026:	d034      	beq.n	8002092 <PCD_EP_ISR_Handler+0x1f6>
            PCD_ReadPMA(hpcd->Instance, ep->xfer_buff, ep->pmaadress, count);
 8002028:	186b      	adds	r3, r5, r1
 800202a:	001a      	movs	r2, r3
 800202c:	320d      	adds	r2, #13
 800202e:	32ff      	adds	r2, #255	; 0xff
 8002030:	8812      	ldrh	r2, [r2, #0]
 8002032:	3319      	adds	r3, #25
 8002034:	33ff      	adds	r3, #255	; 0xff
 8002036:	6819      	ldr	r1, [r3, #0]
 8002038:	003b      	movs	r3, r7
 800203a:	f7ff ff19 	bl	8001e70 <PCD_ReadPMA>
 800203e:	e028      	b.n	8002092 <PCD_EP_ISR_Handler+0x1f6>
          if ((PCD_GET_ENDPOINT(hpcd->Instance, ep->num)& USB_EP_DTOG_RX) == USB_EP_DTOG_RX)
 8002040:	6828      	ldr	r0, [r5, #0]
 8002042:	00e2      	lsls	r2, r4, #3
 8002044:	1b12      	subs	r2, r2, r4
 8002046:	0093      	lsls	r3, r2, #2
 8002048:	18eb      	adds	r3, r5, r3
 800204a:	3309      	adds	r3, #9
 800204c:	33ff      	adds	r3, #255	; 0xff
 800204e:	781b      	ldrb	r3, [r3, #0]
 8002050:	009a      	lsls	r2, r3, #2
 8002052:	5a82      	ldrh	r2, [r0, r2]
 8002054:	0452      	lsls	r2, r2, #17
 8002056:	d556      	bpl.n	8002106 <PCD_EP_ISR_Handler+0x26a>
            count = PCD_GET_EP_DBUF0_CNT(hpcd->Instance, ep->num);
 8002058:	2250      	movs	r2, #80	; 0x50
 800205a:	5a82      	ldrh	r2, [r0, r2]
 800205c:	00db      	lsls	r3, r3, #3
 800205e:	18d3      	adds	r3, r2, r3
 8002060:	181b      	adds	r3, r3, r0
 8002062:	4a3d      	ldr	r2, [pc, #244]	; (8002158 <PCD_EP_ISR_Handler+0x2bc>)
 8002064:	4694      	mov	ip, r2
 8002066:	4463      	add	r3, ip
 8002068:	881f      	ldrh	r7, [r3, #0]
 800206a:	05bf      	lsls	r7, r7, #22
 800206c:	0dbf      	lsrs	r7, r7, #22
            if (count != 0U)
 800206e:	d13b      	bne.n	80020e8 <PCD_EP_ISR_Handler+0x24c>
          PCD_FreeUserBuffer(hpcd->Instance, ep->num, PCD_EP_DBUF_OUT)  
 8002070:	00e2      	lsls	r2, r4, #3
 8002072:	1b12      	subs	r2, r2, r4
 8002074:	0093      	lsls	r3, r2, #2
 8002076:	18eb      	adds	r3, r5, r3
 8002078:	3309      	adds	r3, #9
 800207a:	33ff      	adds	r3, #255	; 0xff
 800207c:	781b      	ldrb	r3, [r3, #0]
 800207e:	009b      	lsls	r3, r3, #2
 8002080:	682a      	ldr	r2, [r5, #0]
 8002082:	4694      	mov	ip, r2
 8002084:	4463      	add	r3, ip
 8002086:	881a      	ldrh	r2, [r3, #0]
 8002088:	4936      	ldr	r1, [pc, #216]	; (8002164 <PCD_EP_ISR_Handler+0x2c8>)
 800208a:	4011      	ands	r1, r2
 800208c:	4a36      	ldr	r2, [pc, #216]	; (8002168 <PCD_EP_ISR_Handler+0x2cc>)
 800208e:	430a      	orrs	r2, r1
 8002090:	801a      	strh	r2, [r3, #0]
        ep->xfer_count+=count;
 8002092:	0039      	movs	r1, r7
 8002094:	00e2      	lsls	r2, r4, #3
 8002096:	1b12      	subs	r2, r2, r4
 8002098:	0093      	lsls	r3, r2, #2
 800209a:	18eb      	adds	r3, r5, r3
 800209c:	0018      	movs	r0, r3
 800209e:	3021      	adds	r0, #33	; 0x21
 80020a0:	30ff      	adds	r0, #255	; 0xff
 80020a2:	6802      	ldr	r2, [r0, #0]
 80020a4:	19d2      	adds	r2, r2, r7
 80020a6:	6002      	str	r2, [r0, #0]
        ep->xfer_buff+=count;
 80020a8:	001a      	movs	r2, r3
 80020aa:	3219      	adds	r2, #25
 80020ac:	32ff      	adds	r2, #255	; 0xff
 80020ae:	6810      	ldr	r0, [r2, #0]
 80020b0:	4684      	mov	ip, r0
 80020b2:	4467      	add	r7, ip
 80020b4:	6017      	str	r7, [r2, #0]
        if ((ep->xfer_len == 0U) || (count < ep->maxpacket))
 80020b6:	331d      	adds	r3, #29
 80020b8:	33ff      	adds	r3, #255	; 0xff
 80020ba:	681b      	ldr	r3, [r3, #0]
 80020bc:	2b00      	cmp	r3, #0
 80020be:	d008      	beq.n	80020d2 <PCD_EP_ISR_Handler+0x236>
 80020c0:	00e2      	lsls	r2, r4, #3
 80020c2:	1b12      	subs	r2, r2, r4
 80020c4:	0090      	lsls	r0, r2, #2
 80020c6:	1828      	adds	r0, r5, r0
 80020c8:	3015      	adds	r0, #21
 80020ca:	30ff      	adds	r0, #255	; 0xff
 80020cc:	6802      	ldr	r2, [r0, #0]
 80020ce:	4291      	cmp	r1, r2
 80020d0:	d234      	bcs.n	800213c <PCD_EP_ISR_Handler+0x2a0>
          HAL_PCD_DataOutStageCallback(hpcd, ep->num);
 80020d2:	00e2      	lsls	r2, r4, #3
 80020d4:	1b12      	subs	r2, r2, r4
 80020d6:	0093      	lsls	r3, r2, #2
 80020d8:	18eb      	adds	r3, r5, r3
 80020da:	3309      	adds	r3, #9
 80020dc:	33ff      	adds	r3, #255	; 0xff
 80020de:	7819      	ldrb	r1, [r3, #0]
 80020e0:	0028      	movs	r0, r5
 80020e2:	f002 fbdd 	bl	80048a0 <HAL_PCD_DataOutStageCallback>
 80020e6:	e74e      	b.n	8001f86 <PCD_EP_ISR_Handler+0xea>
              PCD_ReadPMA(hpcd->Instance, ep->xfer_buff, ep->pmaaddr0, count);
 80020e8:	00e2      	lsls	r2, r4, #3
 80020ea:	1b12      	subs	r2, r2, r4
 80020ec:	0093      	lsls	r3, r2, #2
 80020ee:	18eb      	adds	r3, r5, r3
 80020f0:	001a      	movs	r2, r3
 80020f2:	320f      	adds	r2, #15
 80020f4:	32ff      	adds	r2, #255	; 0xff
 80020f6:	8812      	ldrh	r2, [r2, #0]
 80020f8:	3319      	adds	r3, #25
 80020fa:	33ff      	adds	r3, #255	; 0xff
 80020fc:	6819      	ldr	r1, [r3, #0]
 80020fe:	003b      	movs	r3, r7
 8002100:	f7ff feb6 	bl	8001e70 <PCD_ReadPMA>
 8002104:	e7b4      	b.n	8002070 <PCD_EP_ISR_Handler+0x1d4>
            count = PCD_GET_EP_DBUF1_CNT(hpcd->Instance, ep->num);
 8002106:	2250      	movs	r2, #80	; 0x50
 8002108:	5a82      	ldrh	r2, [r0, r2]
 800210a:	00db      	lsls	r3, r3, #3
 800210c:	18d3      	adds	r3, r2, r3
 800210e:	181b      	adds	r3, r3, r0
 8002110:	4a12      	ldr	r2, [pc, #72]	; (800215c <PCD_EP_ISR_Handler+0x2c0>)
 8002112:	4694      	mov	ip, r2
 8002114:	4463      	add	r3, ip
 8002116:	881f      	ldrh	r7, [r3, #0]
 8002118:	05bf      	lsls	r7, r7, #22
 800211a:	0dbf      	lsrs	r7, r7, #22
            if (count != 0U)
 800211c:	d0a8      	beq.n	8002070 <PCD_EP_ISR_Handler+0x1d4>
              PCD_ReadPMA(hpcd->Instance, ep->xfer_buff, ep->pmaaddr1, count);
 800211e:	00e2      	lsls	r2, r4, #3
 8002120:	1b12      	subs	r2, r2, r4
 8002122:	0093      	lsls	r3, r2, #2
 8002124:	18eb      	adds	r3, r5, r3
 8002126:	001a      	movs	r2, r3
 8002128:	3211      	adds	r2, #17
 800212a:	32ff      	adds	r2, #255	; 0xff
 800212c:	8812      	ldrh	r2, [r2, #0]
 800212e:	3319      	adds	r3, #25
 8002130:	33ff      	adds	r3, #255	; 0xff
 8002132:	6819      	ldr	r1, [r3, #0]
 8002134:	003b      	movs	r3, r7
 8002136:	f7ff fe9b 	bl	8001e70 <PCD_ReadPMA>
 800213a:	e799      	b.n	8002070 <PCD_EP_ISR_Handler+0x1d4>
          HAL_PCD_EP_Receive(hpcd, ep->num, ep->xfer_buff, ep->xfer_len);
 800213c:	00e1      	lsls	r1, r4, #3
 800213e:	1b09      	subs	r1, r1, r4
 8002140:	008a      	lsls	r2, r1, #2
 8002142:	18aa      	adds	r2, r5, r2
 8002144:	3209      	adds	r2, #9
 8002146:	32ff      	adds	r2, #255	; 0xff
 8002148:	7811      	ldrb	r1, [r2, #0]
 800214a:	003a      	movs	r2, r7
 800214c:	0028      	movs	r0, r5
 800214e:	f7ff fb91 	bl	8001874 <HAL_PCD_EP_Receive>
 8002152:	e718      	b.n	8001f86 <PCD_EP_ISR_Handler+0xea>
 8002154:	ffff8f0f 	.word	0xffff8f0f
 8002158:	00000402 	.word	0x00000402
 800215c:	00000406 	.word	0x00000406
 8002160:	00000f8f 	.word	0x00000f8f
 8002164:	00000f0f 	.word	0x00000f0f
 8002168:	ffff80c0 	.word	0xffff80c0
          }
        }
        else
        {
          if ((PCD_GET_ENDPOINT(hpcd->Instance, ep->num)& USB_EP_DTOG_TX) == USB_EP_DTOG_TX)
 800216c:	6828      	ldr	r0, [r5, #0]
 800216e:	00e2      	lsls	r2, r4, #3
 8002170:	1b12      	subs	r2, r2, r4
 8002172:	0093      	lsls	r3, r2, #2
 8002174:	18eb      	adds	r3, r5, r3
 8002176:	3328      	adds	r3, #40	; 0x28
 8002178:	781b      	ldrb	r3, [r3, #0]
 800217a:	009a      	lsls	r2, r3, #2
 800217c:	5a82      	ldrh	r2, [r0, r2]
 800217e:	0652      	lsls	r2, r2, #25
 8002180:	d400      	bmi.n	8002184 <PCD_EP_ISR_Handler+0x2e8>
 8002182:	e0b2      	b.n	80022ea <PCD_EP_ISR_Handler+0x44e>
          {
            /*read from endpoint BUF0Addr buffer*/
            ep->xfer_count = PCD_GET_EP_DBUF0_CNT(hpcd->Instance, ep->num);
 8002184:	2250      	movs	r2, #80	; 0x50
 8002186:	5a82      	ldrh	r2, [r0, r2]
 8002188:	00db      	lsls	r3, r3, #3
 800218a:	18d3      	adds	r3, r2, r3
 800218c:	181b      	adds	r3, r3, r0
 800218e:	4a6a      	ldr	r2, [pc, #424]	; (8002338 <PCD_EP_ISR_Handler+0x49c>)
 8002190:	4694      	mov	ip, r2
 8002192:	4463      	add	r3, ip
 8002194:	881b      	ldrh	r3, [r3, #0]
 8002196:	059b      	lsls	r3, r3, #22
 8002198:	0d9b      	lsrs	r3, r3, #22
 800219a:	00e1      	lsls	r1, r4, #3
 800219c:	1b09      	subs	r1, r1, r4
 800219e:	008a      	lsls	r2, r1, #2
 80021a0:	0011      	movs	r1, r2
 80021a2:	18aa      	adds	r2, r5, r2
 80021a4:	6413      	str	r3, [r2, #64]	; 0x40
            if (ep->xfer_count != 0U)
 80021a6:	2b00      	cmp	r3, #0
 80021a8:	d000      	beq.n	80021ac <PCD_EP_ISR_Handler+0x310>
 80021aa:	e098      	b.n	80022de <PCD_EP_ISR_Handler+0x442>
            if (ep->xfer_count != 0U)
            {
              PCD_WritePMA(hpcd->Instance, ep->xfer_buff, ep->pmaaddr1, ep->xfer_count);
            }
          }
          PCD_FreeUserBuffer(hpcd->Instance, ep->num, PCD_EP_DBUF_IN) 
 80021ac:	00e2      	lsls	r2, r4, #3
 80021ae:	1b12      	subs	r2, r2, r4
 80021b0:	0093      	lsls	r3, r2, #2
 80021b2:	18eb      	adds	r3, r5, r3
 80021b4:	3328      	adds	r3, #40	; 0x28
 80021b6:	781b      	ldrb	r3, [r3, #0]
 80021b8:	009b      	lsls	r3, r3, #2
 80021ba:	682a      	ldr	r2, [r5, #0]
 80021bc:	4694      	mov	ip, r2
 80021be:	4463      	add	r3, ip
 80021c0:	881a      	ldrh	r2, [r3, #0]
 80021c2:	495e      	ldr	r1, [pc, #376]	; (800233c <PCD_EP_ISR_Handler+0x4a0>)
 80021c4:	4011      	ands	r1, r2
 80021c6:	4a5e      	ldr	r2, [pc, #376]	; (8002340 <PCD_EP_ISR_Handler+0x4a4>)
 80021c8:	430a      	orrs	r2, r1
 80021ca:	801a      	strh	r2, [r3, #0]
        }
        /*multi-packet on the NON control IN endpoint*/
        ep->xfer_count = PCD_GET_EP_TX_CNT(hpcd->Instance, ep->num);
 80021cc:	6828      	ldr	r0, [r5, #0]
 80021ce:	2350      	movs	r3, #80	; 0x50
 80021d0:	5ac2      	ldrh	r2, [r0, r3]
 80021d2:	00e1      	lsls	r1, r4, #3
 80021d4:	1b09      	subs	r1, r1, r4
 80021d6:	008b      	lsls	r3, r1, #2
 80021d8:	18eb      	adds	r3, r5, r3
 80021da:	0019      	movs	r1, r3
 80021dc:	3128      	adds	r1, #40	; 0x28
 80021de:	7809      	ldrb	r1, [r1, #0]
 80021e0:	00c9      	lsls	r1, r1, #3
 80021e2:	1852      	adds	r2, r2, r1
 80021e4:	1812      	adds	r2, r2, r0
 80021e6:	4954      	ldr	r1, [pc, #336]	; (8002338 <PCD_EP_ISR_Handler+0x49c>)
 80021e8:	468c      	mov	ip, r1
 80021ea:	4462      	add	r2, ip
 80021ec:	8812      	ldrh	r2, [r2, #0]
 80021ee:	0592      	lsls	r2, r2, #22
 80021f0:	0d92      	lsrs	r2, r2, #22
 80021f2:	641a      	str	r2, [r3, #64]	; 0x40
        ep->xfer_buff+=ep->xfer_count;
 80021f4:	6b99      	ldr	r1, [r3, #56]	; 0x38
 80021f6:	468c      	mov	ip, r1
 80021f8:	4462      	add	r2, ip
 80021fa:	639a      	str	r2, [r3, #56]	; 0x38
       
        /* Zero Length Packet? */
        if (ep->xfer_len == 0U)
 80021fc:	6bdb      	ldr	r3, [r3, #60]	; 0x3c
 80021fe:	2b00      	cmp	r3, #0
 8002200:	d000      	beq.n	8002204 <PCD_EP_ISR_Handler+0x368>
 8002202:	e08c      	b.n	800231e <PCD_EP_ISR_Handler+0x482>
        {
          /* TX COMPLETE */
          HAL_PCD_DataInStageCallback(hpcd, ep->num);
 8002204:	00e3      	lsls	r3, r4, #3
 8002206:	1b1c      	subs	r4, r3, r4
 8002208:	00a3      	lsls	r3, r4, #2
 800220a:	18eb      	adds	r3, r5, r3
 800220c:	3328      	adds	r3, #40	; 0x28
 800220e:	7819      	ldrb	r1, [r3, #0]
 8002210:	0028      	movs	r0, r5
 8002212:	f002 fb54 	bl	80048be <HAL_PCD_DataInStageCallback>
  while (((wIstr = hpcd->Instance->ISTR) & USB_ISTR_CTR) != 0U)
 8002216:	6828      	ldr	r0, [r5, #0]
 8002218:	2344      	movs	r3, #68	; 0x44
 800221a:	5ac3      	ldrh	r3, [r0, r3]
 800221c:	b29b      	uxth	r3, r3
 800221e:	466a      	mov	r2, sp
 8002220:	80d3      	strh	r3, [r2, #6]
 8002222:	b21b      	sxth	r3, r3
 8002224:	2b00      	cmp	r3, #0
 8002226:	db00      	blt.n	800222a <PCD_EP_ISR_Handler+0x38e>
 8002228:	e083      	b.n	8002332 <PCD_EP_ISR_Handler+0x496>
    EPindex = (uint8_t)(wIstr & USB_ISTR_EP_ID);
 800222a:	466b      	mov	r3, sp
 800222c:	88dc      	ldrh	r4, [r3, #6]
 800222e:	230f      	movs	r3, #15
 8002230:	401c      	ands	r4, r3
    if (EPindex == 0U)
 8002232:	d000      	beq.n	8002236 <PCD_EP_ISR_Handler+0x39a>
 8002234:	e69e      	b.n	8001f74 <PCD_EP_ISR_Handler+0xd8>
      if ((wIstr & USB_ISTR_DIR) == 0U)
 8002236:	466b      	mov	r3, sp
 8002238:	3306      	adds	r3, #6
 800223a:	881b      	ldrh	r3, [r3, #0]
 800223c:	06db      	lsls	r3, r3, #27
 800223e:	d400      	bmi.n	8002242 <PCD_EP_ISR_Handler+0x3a6>
 8002240:	e633      	b.n	8001eaa <PCD_EP_ISR_Handler+0xe>
        wEPVal = PCD_GET_ENDPOINT(hpcd->Instance, PCD_ENDP0);
 8002242:	8802      	ldrh	r2, [r0, #0]
 8002244:	ab01      	add	r3, sp, #4
 8002246:	801a      	strh	r2, [r3, #0]
        if ((wEPVal & USB_EP_SETUP) != 0U)
 8002248:	881b      	ldrh	r3, [r3, #0]
 800224a:	051b      	lsls	r3, r3, #20
 800224c:	d500      	bpl.n	8002250 <PCD_EP_ISR_Handler+0x3b4>
 800224e:	e65c      	b.n	8001f0a <PCD_EP_ISR_Handler+0x6e>
        else if ((wEPVal & USB_EP_CTR_RX) != 0U)
 8002250:	ab01      	add	r3, sp, #4
 8002252:	881b      	ldrh	r3, [r3, #0]
 8002254:	b21b      	sxth	r3, r3
 8002256:	2b00      	cmp	r3, #0
 8002258:	dadd      	bge.n	8002216 <PCD_EP_ISR_Handler+0x37a>
          PCD_CLEAR_RX_EP_CTR(hpcd->Instance, PCD_ENDP0);
 800225a:	8803      	ldrh	r3, [r0, #0]
 800225c:	4a39      	ldr	r2, [pc, #228]	; (8002344 <PCD_EP_ISR_Handler+0x4a8>)
 800225e:	4013      	ands	r3, r2
 8002260:	8003      	strh	r3, [r0, #0]
          ep->xfer_count = PCD_GET_EP_RX_CNT(hpcd->Instance, ep->num);
 8002262:	6828      	ldr	r0, [r5, #0]
 8002264:	2350      	movs	r3, #80	; 0x50
 8002266:	5ac3      	ldrh	r3, [r0, r3]
 8002268:	2284      	movs	r2, #132	; 0x84
 800226a:	0052      	lsls	r2, r2, #1
 800226c:	5caa      	ldrb	r2, [r5, r2]
 800226e:	00d2      	lsls	r2, r2, #3
 8002270:	189b      	adds	r3, r3, r2
 8002272:	181b      	adds	r3, r3, r0
 8002274:	4a34      	ldr	r2, [pc, #208]	; (8002348 <PCD_EP_ISR_Handler+0x4ac>)
 8002276:	4694      	mov	ip, r2
 8002278:	4463      	add	r3, ip
 800227a:	881b      	ldrh	r3, [r3, #0]
 800227c:	059b      	lsls	r3, r3, #22
 800227e:	0d9b      	lsrs	r3, r3, #22
 8002280:	002a      	movs	r2, r5
 8002282:	3209      	adds	r2, #9
 8002284:	32ff      	adds	r2, #255	; 0xff
 8002286:	6193      	str	r3, [r2, #24]
          if (ep->xfer_count != 0U)
 8002288:	2b00      	cmp	r3, #0
 800228a:	d000      	beq.n	800228e <PCD_EP_ISR_Handler+0x3f2>
 800228c:	e65e      	b.n	8001f4c <PCD_EP_ISR_Handler+0xb0>
           HAL_PCD_DataOutStageCallback(hpcd, 0U);
 800228e:	2100      	movs	r1, #0
 8002290:	0028      	movs	r0, r5
 8002292:	f002 fb05 	bl	80048a0 <HAL_PCD_DataOutStageCallback>
          PCD_SET_EP_RX_CNT(hpcd->Instance, PCD_ENDP0, ep->maxpacket)
 8002296:	682b      	ldr	r3, [r5, #0]
 8002298:	2250      	movs	r2, #80	; 0x50
 800229a:	5a9a      	ldrh	r2, [r3, r2]
 800229c:	189a      	adds	r2, r3, r2
 800229e:	4b2a      	ldr	r3, [pc, #168]	; (8002348 <PCD_EP_ISR_Handler+0x4ac>)
 80022a0:	469c      	mov	ip, r3
 80022a2:	4462      	add	r2, ip
 80022a4:	002b      	movs	r3, r5
 80022a6:	3309      	adds	r3, #9
 80022a8:	33ff      	adds	r3, #255	; 0xff
 80022aa:	68d9      	ldr	r1, [r3, #12]
 80022ac:	293e      	cmp	r1, #62	; 0x3e
 80022ae:	d800      	bhi.n	80022b2 <PCD_EP_ISR_Handler+0x416>
 80022b0:	e657      	b.n	8001f62 <PCD_EP_ISR_Handler+0xc6>
 80022b2:	094b      	lsrs	r3, r1, #5
 80022b4:	b29b      	uxth	r3, r3
 80022b6:	06c9      	lsls	r1, r1, #27
 80022b8:	d101      	bne.n	80022be <PCD_EP_ISR_Handler+0x422>
 80022ba:	3b01      	subs	r3, #1
 80022bc:	b29b      	uxth	r3, r3
 80022be:	029b      	lsls	r3, r3, #10
 80022c0:	b29b      	uxth	r3, r3
 80022c2:	4922      	ldr	r1, [pc, #136]	; (800234c <PCD_EP_ISR_Handler+0x4b0>)
 80022c4:	430b      	orrs	r3, r1
 80022c6:	8013      	strh	r3, [r2, #0]
          PCD_SET_EP_RX_STATUS(hpcd->Instance, PCD_ENDP0, USB_EP_RX_VALID)
 80022c8:	6829      	ldr	r1, [r5, #0]
 80022ca:	880a      	ldrh	r2, [r1, #0]
 80022cc:	4b20      	ldr	r3, [pc, #128]	; (8002350 <PCD_EP_ISR_Handler+0x4b4>)
 80022ce:	401a      	ands	r2, r3
 80022d0:	23c0      	movs	r3, #192	; 0xc0
 80022d2:	019b      	lsls	r3, r3, #6
 80022d4:	405a      	eors	r2, r3
 80022d6:	4b1f      	ldr	r3, [pc, #124]	; (8002354 <PCD_EP_ISR_Handler+0x4b8>)
 80022d8:	4313      	orrs	r3, r2
 80022da:	800b      	strh	r3, [r1, #0]
 80022dc:	e79b      	b.n	8002216 <PCD_EP_ISR_Handler+0x37a>
              PCD_WritePMA(hpcd->Instance, ep->xfer_buff, ep->pmaaddr0, ep->xfer_count);
 80022de:	1869      	adds	r1, r5, r1
 80022e0:	8dca      	ldrh	r2, [r1, #46]	; 0x2e
 80022e2:	6b89      	ldr	r1, [r1, #56]	; 0x38
 80022e4:	f7ff fca2 	bl	8001c2c <PCD_WritePMA>
 80022e8:	e760      	b.n	80021ac <PCD_EP_ISR_Handler+0x310>
            ep->xfer_count = PCD_GET_EP_DBUF1_CNT(hpcd->Instance, ep->num);
 80022ea:	2250      	movs	r2, #80	; 0x50
 80022ec:	5a82      	ldrh	r2, [r0, r2]
 80022ee:	00db      	lsls	r3, r3, #3
 80022f0:	18d3      	adds	r3, r2, r3
 80022f2:	181b      	adds	r3, r3, r0
 80022f4:	4a14      	ldr	r2, [pc, #80]	; (8002348 <PCD_EP_ISR_Handler+0x4ac>)
 80022f6:	4694      	mov	ip, r2
 80022f8:	4463      	add	r3, ip
 80022fa:	881b      	ldrh	r3, [r3, #0]
 80022fc:	059b      	lsls	r3, r3, #22
 80022fe:	0d9b      	lsrs	r3, r3, #22
 8002300:	00e1      	lsls	r1, r4, #3
 8002302:	1b09      	subs	r1, r1, r4
 8002304:	008a      	lsls	r2, r1, #2
 8002306:	0011      	movs	r1, r2
 8002308:	18aa      	adds	r2, r5, r2
 800230a:	6413      	str	r3, [r2, #64]	; 0x40
            if (ep->xfer_count != 0U)
 800230c:	2b00      	cmp	r3, #0
 800230e:	d100      	bne.n	8002312 <PCD_EP_ISR_Handler+0x476>
 8002310:	e74c      	b.n	80021ac <PCD_EP_ISR_Handler+0x310>
              PCD_WritePMA(hpcd->Instance, ep->xfer_buff, ep->pmaaddr1, ep->xfer_count);
 8002312:	1869      	adds	r1, r5, r1
 8002314:	8e0a      	ldrh	r2, [r1, #48]	; 0x30
 8002316:	6b89      	ldr	r1, [r1, #56]	; 0x38
 8002318:	f7ff fc88 	bl	8001c2c <PCD_WritePMA>
 800231c:	e746      	b.n	80021ac <PCD_EP_ISR_Handler+0x310>
        }
        else
        {
          HAL_PCD_EP_Transmit(hpcd, ep->num, ep->xfer_buff, ep->xfer_len);
 800231e:	00e1      	lsls	r1, r4, #3
 8002320:	1b0c      	subs	r4, r1, r4
 8002322:	00a1      	lsls	r1, r4, #2
 8002324:	1869      	adds	r1, r5, r1
 8002326:	3128      	adds	r1, #40	; 0x28
 8002328:	7809      	ldrb	r1, [r1, #0]
 800232a:	0028      	movs	r0, r5
 800232c:	f7ff fc92 	bl	8001c54 <HAL_PCD_EP_Transmit>
 8002330:	e771      	b.n	8002216 <PCD_EP_ISR_Handler+0x37a>
        }
      } 
    }
  }
  return HAL_OK;
}
 8002332:	2000      	movs	r0, #0
 8002334:	b003      	add	sp, #12
 8002336:	bdf0      	pop	{r4, r5, r6, r7, pc}
 8002338:	00000402 	.word	0x00000402
 800233c:	00000f0f 	.word	0x00000f0f
 8002340:	ffffc080 	.word	0xffffc080
 8002344:	00000f8f 	.word	0x00000f8f
 8002348:	00000406 	.word	0x00000406
 800234c:	ffff8000 	.word	0xffff8000
 8002350:	ffffbf8f 	.word	0xffffbf8f
 8002354:	ffff8080 	.word	0xffff8080

08002358 <HAL_PCD_IRQHandler>:
{
 8002358:	b570      	push	{r4, r5, r6, lr}
 800235a:	0004      	movs	r4, r0
  if (__HAL_PCD_GET_FLAG (hpcd, USB_ISTR_CTR))
 800235c:	2344      	movs	r3, #68	; 0x44
 800235e:	6802      	ldr	r2, [r0, #0]
 8002360:	5ad3      	ldrh	r3, [r2, r3]
 8002362:	b21b      	sxth	r3, r3
 8002364:	2b00      	cmp	r3, #0
 8002366:	db48      	blt.n	80023fa <HAL_PCD_IRQHandler+0xa2>
  if (__HAL_PCD_GET_FLAG (hpcd, USB_ISTR_RESET))
 8002368:	6823      	ldr	r3, [r4, #0]
 800236a:	2244      	movs	r2, #68	; 0x44
 800236c:	5a9a      	ldrh	r2, [r3, r2]
 800236e:	0552      	lsls	r2, r2, #21
 8002370:	d446      	bmi.n	8002400 <HAL_PCD_IRQHandler+0xa8>
  if (__HAL_PCD_GET_FLAG (hpcd, USB_ISTR_PMAOVR))
 8002372:	6823      	ldr	r3, [r4, #0]
 8002374:	2244      	movs	r2, #68	; 0x44
 8002376:	5a9a      	ldrh	r2, [r3, r2]
 8002378:	0452      	lsls	r2, r2, #17
 800237a:	d504      	bpl.n	8002386 <HAL_PCD_IRQHandler+0x2e>
    __HAL_PCD_CLEAR_FLAG(hpcd, USB_ISTR_PMAOVR);    
 800237c:	2144      	movs	r1, #68	; 0x44
 800237e:	5a5a      	ldrh	r2, [r3, r1]
 8002380:	4835      	ldr	r0, [pc, #212]	; (8002458 <HAL_PCD_IRQHandler+0x100>)
 8002382:	4002      	ands	r2, r0
 8002384:	525a      	strh	r2, [r3, r1]
  if (__HAL_PCD_GET_FLAG (hpcd, USB_ISTR_ERR))
 8002386:	6823      	ldr	r3, [r4, #0]
 8002388:	2244      	movs	r2, #68	; 0x44
 800238a:	5a9a      	ldrh	r2, [r3, r2]
 800238c:	0492      	lsls	r2, r2, #18
 800238e:	d504      	bpl.n	800239a <HAL_PCD_IRQHandler+0x42>
    __HAL_PCD_CLEAR_FLAG(hpcd, USB_ISTR_ERR); 
 8002390:	2144      	movs	r1, #68	; 0x44
 8002392:	5a5a      	ldrh	r2, [r3, r1]
 8002394:	4831      	ldr	r0, [pc, #196]	; (800245c <HAL_PCD_IRQHandler+0x104>)
 8002396:	4002      	ands	r2, r0
 8002398:	525a      	strh	r2, [r3, r1]
  if (__HAL_PCD_GET_FLAG (hpcd, USB_ISTR_WKUP))
 800239a:	6823      	ldr	r3, [r4, #0]
 800239c:	2244      	movs	r2, #68	; 0x44
 800239e:	5a9a      	ldrh	r2, [r3, r2]
 80023a0:	04d2      	lsls	r2, r2, #19
 80023a2:	d43a      	bmi.n	800241a <HAL_PCD_IRQHandler+0xc2>
  if (__HAL_PCD_GET_FLAG (hpcd, USB_ISTR_SUSP))
 80023a4:	6823      	ldr	r3, [r4, #0]
 80023a6:	2244      	movs	r2, #68	; 0x44
 80023a8:	5a9a      	ldrh	r2, [r3, r2]
 80023aa:	0512      	lsls	r2, r2, #20
 80023ac:	d515      	bpl.n	80023da <HAL_PCD_IRQHandler+0x82>
    __HAL_PCD_CLEAR_FLAG(hpcd, USB_ISTR_SUSP);  
 80023ae:	2144      	movs	r1, #68	; 0x44
 80023b0:	5a5a      	ldrh	r2, [r3, r1]
 80023b2:	482b      	ldr	r0, [pc, #172]	; (8002460 <HAL_PCD_IRQHandler+0x108>)
 80023b4:	4002      	ands	r2, r0
 80023b6:	525a      	strh	r2, [r3, r1]
    hpcd->Instance->CNTR |= USB_CNTR_FSUSP;
 80023b8:	6820      	ldr	r0, [r4, #0]
 80023ba:	2240      	movs	r2, #64	; 0x40
 80023bc:	5a83      	ldrh	r3, [r0, r2]
 80023be:	2508      	movs	r5, #8
 80023c0:	432b      	orrs	r3, r5
 80023c2:	b29b      	uxth	r3, r3
 80023c4:	5283      	strh	r3, [r0, r2]
    hpcd->Instance->CNTR |= USB_CNTR_LPMODE;
 80023c6:	6820      	ldr	r0, [r4, #0]
 80023c8:	5a83      	ldrh	r3, [r0, r2]
 80023ca:	2504      	movs	r5, #4
 80023cc:	432b      	orrs	r3, r5
 80023ce:	b29b      	uxth	r3, r3
 80023d0:	5283      	strh	r3, [r0, r2]
    if (__HAL_PCD_GET_FLAG (hpcd, USB_ISTR_WKUP) == 0)
 80023d2:	6823      	ldr	r3, [r4, #0]
 80023d4:	5a5b      	ldrh	r3, [r3, r1]
 80023d6:	04db      	lsls	r3, r3, #19
 80023d8:	d531      	bpl.n	800243e <HAL_PCD_IRQHandler+0xe6>
  if (__HAL_PCD_GET_FLAG (hpcd, USB_ISTR_SOF))
 80023da:	6823      	ldr	r3, [r4, #0]
 80023dc:	2244      	movs	r2, #68	; 0x44
 80023de:	5a9a      	ldrh	r2, [r3, r2]
 80023e0:	0592      	lsls	r2, r2, #22
 80023e2:	d430      	bmi.n	8002446 <HAL_PCD_IRQHandler+0xee>
  if (__HAL_PCD_GET_FLAG (hpcd, USB_ISTR_ESOF))
 80023e4:	6823      	ldr	r3, [r4, #0]
 80023e6:	2244      	movs	r2, #68	; 0x44
 80023e8:	5a9a      	ldrh	r2, [r3, r2]
 80023ea:	05d2      	lsls	r2, r2, #23
 80023ec:	d504      	bpl.n	80023f8 <HAL_PCD_IRQHandler+0xa0>
    __HAL_PCD_CLEAR_FLAG(hpcd, USB_ISTR_ESOF); 
 80023ee:	2144      	movs	r1, #68	; 0x44
 80023f0:	5a5a      	ldrh	r2, [r3, r1]
 80023f2:	481c      	ldr	r0, [pc, #112]	; (8002464 <HAL_PCD_IRQHandler+0x10c>)
 80023f4:	4002      	ands	r2, r0
 80023f6:	525a      	strh	r2, [r3, r1]
}
 80023f8:	bd70      	pop	{r4, r5, r6, pc}
    PCD_EP_ISR_Handler(hpcd);
 80023fa:	f7ff fd4f 	bl	8001e9c <PCD_EP_ISR_Handler>
 80023fe:	e7b3      	b.n	8002368 <HAL_PCD_IRQHandler+0x10>
    __HAL_PCD_CLEAR_FLAG(hpcd, USB_ISTR_RESET);
 8002400:	2144      	movs	r1, #68	; 0x44
 8002402:	5a5a      	ldrh	r2, [r3, r1]
 8002404:	4818      	ldr	r0, [pc, #96]	; (8002468 <HAL_PCD_IRQHandler+0x110>)
 8002406:	4002      	ands	r2, r0
 8002408:	525a      	strh	r2, [r3, r1]
    HAL_PCD_ResetCallback(hpcd);
 800240a:	0020      	movs	r0, r4
 800240c:	f002 fa6b 	bl	80048e6 <HAL_PCD_ResetCallback>
    HAL_PCD_SetAddress(hpcd, 0U);
 8002410:	2100      	movs	r1, #0
 8002412:	0020      	movs	r0, r4
 8002414:	f7fe ff80 	bl	8001318 <HAL_PCD_SetAddress>
 8002418:	e7ab      	b.n	8002372 <HAL_PCD_IRQHandler+0x1a>
    hpcd->Instance->CNTR &= (uint16_t)(~(USB_CNTR_LPMODE));
 800241a:	2240      	movs	r2, #64	; 0x40
 800241c:	5a99      	ldrh	r1, [r3, r2]
 800241e:	2004      	movs	r0, #4
 8002420:	4381      	bics	r1, r0
 8002422:	5299      	strh	r1, [r3, r2]
    hpcd->Instance->CNTR = wInterrupt_Mask;
 8002424:	4b11      	ldr	r3, [pc, #68]	; (800246c <HAL_PCD_IRQHandler+0x114>)
 8002426:	6821      	ldr	r1, [r4, #0]
 8002428:	528b      	strh	r3, [r1, r2]
    HAL_PCD_ResumeCallback(hpcd);
 800242a:	0020      	movs	r0, r4
 800242c:	f002 fa7a 	bl	8004924 <HAL_PCD_ResumeCallback>
    __HAL_PCD_CLEAR_FLAG(hpcd, USB_ISTR_WKUP);     
 8002430:	6821      	ldr	r1, [r4, #0]
 8002432:	2244      	movs	r2, #68	; 0x44
 8002434:	5a8b      	ldrh	r3, [r1, r2]
 8002436:	480e      	ldr	r0, [pc, #56]	; (8002470 <HAL_PCD_IRQHandler+0x118>)
 8002438:	4003      	ands	r3, r0
 800243a:	528b      	strh	r3, [r1, r2]
 800243c:	e7b2      	b.n	80023a4 <HAL_PCD_IRQHandler+0x4c>
      HAL_PCD_SuspendCallback(hpcd);
 800243e:	0020      	movs	r0, r4
 8002440:	f002 fa5e 	bl	8004900 <HAL_PCD_SuspendCallback>
 8002444:	e7c9      	b.n	80023da <HAL_PCD_IRQHandler+0x82>
    __HAL_PCD_CLEAR_FLAG(hpcd, USB_ISTR_SOF); 
 8002446:	2144      	movs	r1, #68	; 0x44
 8002448:	5a5a      	ldrh	r2, [r3, r1]
 800244a:	480a      	ldr	r0, [pc, #40]	; (8002474 <HAL_PCD_IRQHandler+0x11c>)
 800244c:	4002      	ands	r2, r0
 800244e:	525a      	strh	r2, [r3, r1]
    HAL_PCD_SOFCallback(hpcd);
 8002450:	0020      	movs	r0, r4
 8002452:	f002 fa41 	bl	80048d8 <HAL_PCD_SOFCallback>
 8002456:	e7c5      	b.n	80023e4 <HAL_PCD_IRQHandler+0x8c>
 8002458:	ffffbfff 	.word	0xffffbfff
 800245c:	ffffdfff 	.word	0xffffdfff
 8002460:	fffff7ff 	.word	0xfffff7ff
 8002464:	fffffeff 	.word	0xfffffeff
 8002468:	fffffbff 	.word	0xfffffbff
 800246c:	ffffbd00 	.word	0xffffbd00
 8002470:	ffffefff 	.word	0xffffefff
 8002474:	fffffdff 	.word	0xfffffdff

08002478 <HAL_PCDEx_PMAConfig>:
HAL_StatusTypeDef  HAL_PCDEx_PMAConfig(PCD_HandleTypeDef *hpcd, 
                        uint16_t ep_addr,
                        uint16_t ep_kind,
                        uint32_t pmaadress)

{
 8002478:	b510      	push	{r4, lr}
  PCD_EPTypeDef *ep;
  
  /* initialize ep structure*/
  if ((0x80U & ep_addr) == 0x80U)
 800247a:	060c      	lsls	r4, r1, #24
 800247c:	d50f      	bpl.n	800249e <HAL_PCDEx_PMAConfig+0x26>
  {
    ep = &hpcd->IN_ep[ep_addr & 0x7FU];
 800247e:	247f      	movs	r4, #127	; 0x7f
 8002480:	4021      	ands	r1, r4
 8002482:	00cc      	lsls	r4, r1, #3
 8002484:	1a61      	subs	r1, r4, r1
 8002486:	008c      	lsls	r4, r1, #2
 8002488:	3428      	adds	r4, #40	; 0x28
 800248a:	1900      	adds	r0, r0, r4
  {
    ep = &hpcd->OUT_ep[ep_addr];
  }
  
  /* Here we check if the endpoint is single or double Buffer*/
  if (ep_kind == PCD_SNG_BUF)
 800248c:	2a00      	cmp	r2, #0
 800248e:	d00d      	beq.n	80024ac <HAL_PCDEx_PMAConfig+0x34>
    ep->pmaadress = (uint16_t)pmaadress;
  }
  else /*USB_DBL_BUF*/
  {
    /*Double Buffer Endpoint*/
    ep->doublebuffer = 1U;
 8002490:	2201      	movs	r2, #1
 8002492:	7282      	strb	r2, [r0, #10]
    /*Configure the PMA*/
    ep->pmaaddr0 =  pmaadress & 0xFFFFU;
 8002494:	80c3      	strh	r3, [r0, #6]
    ep->pmaaddr1 =  (pmaadress & 0xFFFF0000U) >> 16U;
 8002496:	0c1b      	lsrs	r3, r3, #16
 8002498:	8103      	strh	r3, [r0, #8]
  }
  
  return HAL_OK;
}
 800249a:	2000      	movs	r0, #0
 800249c:	bd10      	pop	{r4, pc}
    ep = &hpcd->OUT_ep[ep_addr];
 800249e:	00cc      	lsls	r4, r1, #3
 80024a0:	1a61      	subs	r1, r4, r1
 80024a2:	008c      	lsls	r4, r1, #2
 80024a4:	3409      	adds	r4, #9
 80024a6:	34ff      	adds	r4, #255	; 0xff
 80024a8:	1900      	adds	r0, r0, r4
 80024aa:	e7ef      	b.n	800248c <HAL_PCDEx_PMAConfig+0x14>
    ep->doublebuffer = 0U;
 80024ac:	7282      	strb	r2, [r0, #10]
    ep->pmaadress = (uint16_t)pmaadress;
 80024ae:	8083      	strh	r3, [r0, #4]
 80024b0:	e7f3      	b.n	800249a <HAL_PCDEx_PMAConfig+0x22>
	...

080024b4 <HAL_RCC_OscConfig>:
  *         supported by this macro. User should request a transition to HSE Off
  *         first and then HSE On or HSE Bypass.
  * @retval HAL status
  */
HAL_StatusTypeDef HAL_RCC_OscConfig(RCC_OscInitTypeDef  *RCC_OscInitStruct)
{
 80024b4:	b570      	push	{r4, r5, r6, lr}
 80024b6:	0004      	movs	r4, r0
  /* Check the parameters */
  assert_param(RCC_OscInitStruct != NULL);
  assert_param(IS_RCC_OSCILLATORTYPE(RCC_OscInitStruct->OscillatorType));

  /*------------------------------- HSE Configuration ------------------------*/ 
  if(((RCC_OscInitStruct->OscillatorType) & RCC_OSCILLATORTYPE_HSE) == RCC_OSCILLATORTYPE_HSE)
 80024b8:	6803      	ldr	r3, [r0, #0]
 80024ba:	07db      	lsls	r3, r3, #31
 80024bc:	d53b      	bpl.n	8002536 <HAL_RCC_OscConfig+0x82>
  {
    /* Check the parameters */
    assert_param(IS_RCC_HSE(RCC_OscInitStruct->HSEState));

    /* When the HSE is used as system clock or clock source for PLL in these cases it is not allowed to be disabled */
    if((__HAL_RCC_GET_SYSCLK_SOURCE() == RCC_SYSCLKSOURCE_STATUS_HSE)
 80024be:	4b87      	ldr	r3, [pc, #540]	; (80026dc <HAL_RCC_OscConfig+0x228>)
 80024c0:	685a      	ldr	r2, [r3, #4]
 80024c2:	230c      	movs	r3, #12
 80024c4:	4013      	ands	r3, r2
 80024c6:	2b04      	cmp	r3, #4
 80024c8:	d02d      	beq.n	8002526 <HAL_RCC_OscConfig+0x72>
       || ((__HAL_RCC_GET_SYSCLK_SOURCE() == RCC_SYSCLKSOURCE_STATUS_PLLCLK) && (__HAL_RCC_GET_PLL_OSCSOURCE() == RCC_PLLSOURCE_HSE)))
 80024ca:	4b84      	ldr	r3, [pc, #528]	; (80026dc <HAL_RCC_OscConfig+0x228>)
 80024cc:	685a      	ldr	r2, [r3, #4]
 80024ce:	230c      	movs	r3, #12
 80024d0:	4013      	ands	r3, r2
 80024d2:	2b08      	cmp	r3, #8
 80024d4:	d01e      	beq.n	8002514 <HAL_RCC_OscConfig+0x60>
      }
    }
    else
    {
      /* Set the new HSE configuration ---------------------------------------*/
      __HAL_RCC_HSE_CONFIG(RCC_OscInitStruct->HSEState);
 80024d6:	6863      	ldr	r3, [r4, #4]
 80024d8:	2b01      	cmp	r3, #1
 80024da:	d052      	beq.n	8002582 <HAL_RCC_OscConfig+0xce>
 80024dc:	2b00      	cmp	r3, #0
 80024de:	d157      	bne.n	8002590 <HAL_RCC_OscConfig+0xdc>
 80024e0:	4b7e      	ldr	r3, [pc, #504]	; (80026dc <HAL_RCC_OscConfig+0x228>)
 80024e2:	681a      	ldr	r2, [r3, #0]
 80024e4:	497e      	ldr	r1, [pc, #504]	; (80026e0 <HAL_RCC_OscConfig+0x22c>)
 80024e6:	400a      	ands	r2, r1
 80024e8:	601a      	str	r2, [r3, #0]
 80024ea:	681a      	ldr	r2, [r3, #0]
 80024ec:	497d      	ldr	r1, [pc, #500]	; (80026e4 <HAL_RCC_OscConfig+0x230>)
 80024ee:	400a      	ands	r2, r1
 80024f0:	601a      	str	r2, [r3, #0]


       /* Check the HSE State */
      if(RCC_OscInitStruct->HSEState != RCC_HSE_OFF)
 80024f2:	6863      	ldr	r3, [r4, #4]
 80024f4:	2b00      	cmp	r3, #0
 80024f6:	d063      	beq.n	80025c0 <HAL_RCC_OscConfig+0x10c>
      {
        /* Get Start Tick */
        tickstart = HAL_GetTick();
 80024f8:	f7fd febc 	bl	8000274 <HAL_GetTick>
 80024fc:	0005      	movs	r5, r0

        /* Wait till HSE is ready */
        while(__HAL_RCC_GET_FLAG(RCC_FLAG_HSERDY) == RESET)
 80024fe:	4b77      	ldr	r3, [pc, #476]	; (80026dc <HAL_RCC_OscConfig+0x228>)
 8002500:	681b      	ldr	r3, [r3, #0]
 8002502:	039b      	lsls	r3, r3, #14
 8002504:	d417      	bmi.n	8002536 <HAL_RCC_OscConfig+0x82>
        {
          if((HAL_GetTick() - tickstart ) > HSE_TIMEOUT_VALUE)
 8002506:	f7fd feb5 	bl	8000274 <HAL_GetTick>
 800250a:	1b40      	subs	r0, r0, r5
 800250c:	2864      	cmp	r0, #100	; 0x64
 800250e:	d9f6      	bls.n	80024fe <HAL_RCC_OscConfig+0x4a>
          {
            return HAL_TIMEOUT;
 8002510:	2003      	movs	r0, #3
 8002512:	e0e0      	b.n	80026d6 <HAL_RCC_OscConfig+0x222>
       || ((__HAL_RCC_GET_SYSCLK_SOURCE() == RCC_SYSCLKSOURCE_STATUS_PLLCLK) && (__HAL_RCC_GET_PLL_OSCSOURCE() == RCC_PLLSOURCE_HSE)))
 8002514:	4b71      	ldr	r3, [pc, #452]	; (80026dc <HAL_RCC_OscConfig+0x228>)
 8002516:	685b      	ldr	r3, [r3, #4]
 8002518:	22c0      	movs	r2, #192	; 0xc0
 800251a:	0252      	lsls	r2, r2, #9
 800251c:	4013      	ands	r3, r2
 800251e:	2280      	movs	r2, #128	; 0x80
 8002520:	0252      	lsls	r2, r2, #9
 8002522:	4293      	cmp	r3, r2
 8002524:	d1d7      	bne.n	80024d6 <HAL_RCC_OscConfig+0x22>
      if((__HAL_RCC_GET_FLAG(RCC_FLAG_HSERDY) != RESET) && (RCC_OscInitStruct->HSEState == RCC_HSE_OFF))
 8002526:	4b6d      	ldr	r3, [pc, #436]	; (80026dc <HAL_RCC_OscConfig+0x228>)
 8002528:	681b      	ldr	r3, [r3, #0]
 800252a:	039b      	lsls	r3, r3, #14
 800252c:	d503      	bpl.n	8002536 <HAL_RCC_OscConfig+0x82>
 800252e:	6863      	ldr	r3, [r4, #4]
 8002530:	2b00      	cmp	r3, #0
 8002532:	d100      	bne.n	8002536 <HAL_RCC_OscConfig+0x82>
 8002534:	e0cc      	b.n	80026d0 <HAL_RCC_OscConfig+0x21c>
//    }
//  }

#if defined(RCC_HSI48_SUPPORT)
  /*----------------------------- HSI48 Configuration --------------------------*/
  if(((RCC_OscInitStruct->OscillatorType) & RCC_OSCILLATORTYPE_HSI48) == RCC_OSCILLATORTYPE_HSI48)
 8002536:	6823      	ldr	r3, [r4, #0]
 8002538:	069b      	lsls	r3, r3, #26
 800253a:	d572      	bpl.n	8002622 <HAL_RCC_OscConfig+0x16e>
  {
    /* Check the parameters */
    assert_param(IS_RCC_HSI48(RCC_OscInitStruct->HSI48State));

    /* When the HSI48 is used as system clock it is not allowed to be disabled */
    if((__HAL_RCC_GET_SYSCLK_SOURCE() == RCC_SYSCLKSOURCE_STATUS_HSI48) ||
 800253c:	4b67      	ldr	r3, [pc, #412]	; (80026dc <HAL_RCC_OscConfig+0x228>)
 800253e:	685a      	ldr	r2, [r3, #4]
 8002540:	230c      	movs	r3, #12
 8002542:	4013      	ands	r3, r2
 8002544:	2b0c      	cmp	r3, #12
 8002546:	d050      	beq.n	80025ea <HAL_RCC_OscConfig+0x136>
       ((__HAL_RCC_GET_SYSCLK_SOURCE() == RCC_SYSCLKSOURCE_STATUS_PLLCLK) && (__HAL_RCC_GET_PLL_OSCSOURCE() == RCC_PLLSOURCE_HSI48)))
 8002548:	4b64      	ldr	r3, [pc, #400]	; (80026dc <HAL_RCC_OscConfig+0x228>)
 800254a:	685a      	ldr	r2, [r3, #4]
 800254c:	230c      	movs	r3, #12
 800254e:	4013      	ands	r3, r2
    if((__HAL_RCC_GET_SYSCLK_SOURCE() == RCC_SYSCLKSOURCE_STATUS_HSI48) ||
 8002550:	2b08      	cmp	r3, #8
 8002552:	d043      	beq.n	80025dc <HAL_RCC_OscConfig+0x128>
      }
    }
    else
    {
      /* Check the HSI48 State */
      if(RCC_OscInitStruct->HSI48State != RCC_HSI48_OFF)
 8002554:	6a23      	ldr	r3, [r4, #32]
 8002556:	2b00      	cmp	r3, #0
 8002558:	d050      	beq.n	80025fc <HAL_RCC_OscConfig+0x148>
      {
        /* Enable the Internal High Speed oscillator (HSI48). */
        __HAL_RCC_HSI48_ENABLE();
 800255a:	4a60      	ldr	r2, [pc, #384]	; (80026dc <HAL_RCC_OscConfig+0x228>)
 800255c:	6b51      	ldr	r1, [r2, #52]	; 0x34
 800255e:	2380      	movs	r3, #128	; 0x80
 8002560:	025b      	lsls	r3, r3, #9
 8002562:	430b      	orrs	r3, r1
 8002564:	6353      	str	r3, [r2, #52]	; 0x34

        /* Get Start Tick */
        tickstart = HAL_GetTick();
 8002566:	f7fd fe85 	bl	8000274 <HAL_GetTick>
 800256a:	0005      	movs	r5, r0
      
        /* Wait till HSI48 is ready */  
        while(__HAL_RCC_GET_FLAG(RCC_FLAG_HSI48RDY) == RESET)
 800256c:	4b5b      	ldr	r3, [pc, #364]	; (80026dc <HAL_RCC_OscConfig+0x228>)
 800256e:	6b5b      	ldr	r3, [r3, #52]	; 0x34
 8002570:	03db      	lsls	r3, r3, #15
 8002572:	d456      	bmi.n	8002622 <HAL_RCC_OscConfig+0x16e>
        {
          if((HAL_GetTick() - tickstart) > HSI48_TIMEOUT_VALUE)
 8002574:	f7fd fe7e 	bl	8000274 <HAL_GetTick>
 8002578:	1b40      	subs	r0, r0, r5
 800257a:	2802      	cmp	r0, #2
 800257c:	d9f6      	bls.n	800256c <HAL_RCC_OscConfig+0xb8>
          {
            return HAL_TIMEOUT;
 800257e:	2003      	movs	r0, #3
 8002580:	e0a9      	b.n	80026d6 <HAL_RCC_OscConfig+0x222>
      __HAL_RCC_HSE_CONFIG(RCC_OscInitStruct->HSEState);
 8002582:	4a56      	ldr	r2, [pc, #344]	; (80026dc <HAL_RCC_OscConfig+0x228>)
 8002584:	6811      	ldr	r1, [r2, #0]
 8002586:	2380      	movs	r3, #128	; 0x80
 8002588:	025b      	lsls	r3, r3, #9
 800258a:	430b      	orrs	r3, r1
 800258c:	6013      	str	r3, [r2, #0]
 800258e:	e7b0      	b.n	80024f2 <HAL_RCC_OscConfig+0x3e>
 8002590:	2b05      	cmp	r3, #5
 8002592:	d009      	beq.n	80025a8 <HAL_RCC_OscConfig+0xf4>
 8002594:	4b51      	ldr	r3, [pc, #324]	; (80026dc <HAL_RCC_OscConfig+0x228>)
 8002596:	681a      	ldr	r2, [r3, #0]
 8002598:	4951      	ldr	r1, [pc, #324]	; (80026e0 <HAL_RCC_OscConfig+0x22c>)
 800259a:	400a      	ands	r2, r1
 800259c:	601a      	str	r2, [r3, #0]
 800259e:	681a      	ldr	r2, [r3, #0]
 80025a0:	4950      	ldr	r1, [pc, #320]	; (80026e4 <HAL_RCC_OscConfig+0x230>)
 80025a2:	400a      	ands	r2, r1
 80025a4:	601a      	str	r2, [r3, #0]
 80025a6:	e7a4      	b.n	80024f2 <HAL_RCC_OscConfig+0x3e>
 80025a8:	4b4c      	ldr	r3, [pc, #304]	; (80026dc <HAL_RCC_OscConfig+0x228>)
 80025aa:	6819      	ldr	r1, [r3, #0]
 80025ac:	2280      	movs	r2, #128	; 0x80
 80025ae:	02d2      	lsls	r2, r2, #11
 80025b0:	430a      	orrs	r2, r1
 80025b2:	601a      	str	r2, [r3, #0]
 80025b4:	6819      	ldr	r1, [r3, #0]
 80025b6:	2280      	movs	r2, #128	; 0x80
 80025b8:	0252      	lsls	r2, r2, #9
 80025ba:	430a      	orrs	r2, r1
 80025bc:	601a      	str	r2, [r3, #0]
 80025be:	e798      	b.n	80024f2 <HAL_RCC_OscConfig+0x3e>
        tickstart = HAL_GetTick();
 80025c0:	f7fd fe58 	bl	8000274 <HAL_GetTick>
 80025c4:	0005      	movs	r5, r0
        while(__HAL_RCC_GET_FLAG(RCC_FLAG_HSERDY) != RESET)
 80025c6:	4b45      	ldr	r3, [pc, #276]	; (80026dc <HAL_RCC_OscConfig+0x228>)
 80025c8:	681b      	ldr	r3, [r3, #0]
 80025ca:	039b      	lsls	r3, r3, #14
 80025cc:	d5b3      	bpl.n	8002536 <HAL_RCC_OscConfig+0x82>
           if((HAL_GetTick() - tickstart ) > HSE_TIMEOUT_VALUE)
 80025ce:	f7fd fe51 	bl	8000274 <HAL_GetTick>
 80025d2:	1b40      	subs	r0, r0, r5
 80025d4:	2864      	cmp	r0, #100	; 0x64
 80025d6:	d9f6      	bls.n	80025c6 <HAL_RCC_OscConfig+0x112>
            return HAL_TIMEOUT;
 80025d8:	2003      	movs	r0, #3
 80025da:	e07c      	b.n	80026d6 <HAL_RCC_OscConfig+0x222>
       ((__HAL_RCC_GET_SYSCLK_SOURCE() == RCC_SYSCLKSOURCE_STATUS_PLLCLK) && (__HAL_RCC_GET_PLL_OSCSOURCE() == RCC_PLLSOURCE_HSI48)))
 80025dc:	4b3f      	ldr	r3, [pc, #252]	; (80026dc <HAL_RCC_OscConfig+0x228>)
 80025de:	685b      	ldr	r3, [r3, #4]
 80025e0:	22c0      	movs	r2, #192	; 0xc0
 80025e2:	0252      	lsls	r2, r2, #9
 80025e4:	4013      	ands	r3, r2
 80025e6:	4293      	cmp	r3, r2
 80025e8:	d1b4      	bne.n	8002554 <HAL_RCC_OscConfig+0xa0>
      if((__HAL_RCC_GET_FLAG(RCC_FLAG_HSI48RDY) != RESET) && (RCC_OscInitStruct->HSI48State != RCC_HSI48_ON))
 80025ea:	4b3c      	ldr	r3, [pc, #240]	; (80026dc <HAL_RCC_OscConfig+0x228>)
 80025ec:	6b5b      	ldr	r3, [r3, #52]	; 0x34
 80025ee:	03db      	lsls	r3, r3, #15
 80025f0:	d517      	bpl.n	8002622 <HAL_RCC_OscConfig+0x16e>
 80025f2:	6a23      	ldr	r3, [r4, #32]
 80025f4:	2b01      	cmp	r3, #1
 80025f6:	d014      	beq.n	8002622 <HAL_RCC_OscConfig+0x16e>
        return HAL_ERROR;
 80025f8:	2001      	movs	r0, #1
 80025fa:	e06c      	b.n	80026d6 <HAL_RCC_OscConfig+0x222>
        } 
      }
      else
      {
        /* Disable the Internal High Speed oscillator (HSI48). */
        __HAL_RCC_HSI48_DISABLE();
 80025fc:	4a37      	ldr	r2, [pc, #220]	; (80026dc <HAL_RCC_OscConfig+0x228>)
 80025fe:	6b53      	ldr	r3, [r2, #52]	; 0x34
 8002600:	4937      	ldr	r1, [pc, #220]	; (80026e0 <HAL_RCC_OscConfig+0x22c>)
 8002602:	400b      	ands	r3, r1
 8002604:	6353      	str	r3, [r2, #52]	; 0x34

        /* Get Start Tick */
        tickstart = HAL_GetTick();
 8002606:	f7fd fe35 	bl	8000274 <HAL_GetTick>
 800260a:	0005      	movs	r5, r0
      
        /* Wait till HSI48 is ready */  
        while(__HAL_RCC_GET_FLAG(RCC_FLAG_HSI48RDY) != RESET)
 800260c:	4b33      	ldr	r3, [pc, #204]	; (80026dc <HAL_RCC_OscConfig+0x228>)
 800260e:	6b5b      	ldr	r3, [r3, #52]	; 0x34
 8002610:	03db      	lsls	r3, r3, #15
 8002612:	d506      	bpl.n	8002622 <HAL_RCC_OscConfig+0x16e>
        {
          if((HAL_GetTick() - tickstart) > HSI48_TIMEOUT_VALUE)
 8002614:	f7fd fe2e 	bl	8000274 <HAL_GetTick>
 8002618:	1b40      	subs	r0, r0, r5
 800261a:	2802      	cmp	r0, #2
 800261c:	d9f6      	bls.n	800260c <HAL_RCC_OscConfig+0x158>
          {
            return HAL_TIMEOUT;
 800261e:	2003      	movs	r0, #3
 8002620:	e059      	b.n	80026d6 <HAL_RCC_OscConfig+0x222>
#endif /* RCC_HSI48_SUPPORT */
       
  /*-------------------------------- PLL Configuration -----------------------*/
  /* Check the parameters */
  assert_param(IS_RCC_PLL(RCC_OscInitStruct->PLL.PLLState));
  if ((RCC_OscInitStruct->PLL.PLLState) != RCC_PLL_NONE)
 8002622:	6a63      	ldr	r3, [r4, #36]	; 0x24
 8002624:	2b00      	cmp	r3, #0
 8002626:	d055      	beq.n	80026d4 <HAL_RCC_OscConfig+0x220>
  {
    /* Check if the PLL is used as system clock or not */
    if(__HAL_RCC_GET_SYSCLK_SOURCE() != RCC_SYSCLKSOURCE_STATUS_PLLCLK)
 8002628:	4a2c      	ldr	r2, [pc, #176]	; (80026dc <HAL_RCC_OscConfig+0x228>)
 800262a:	6851      	ldr	r1, [r2, #4]
 800262c:	220c      	movs	r2, #12
 800262e:	400a      	ands	r2, r1
 8002630:	2a08      	cmp	r2, #8
 8002632:	d051      	beq.n	80026d8 <HAL_RCC_OscConfig+0x224>
    { 
      if((RCC_OscInitStruct->PLL.PLLState) == RCC_PLL_ON)
 8002634:	2b02      	cmp	r3, #2
 8002636:	d012      	beq.n	800265e <HAL_RCC_OscConfig+0x1aa>
        }
      }
      else
      {
        /* Disable the main PLL. */
        __HAL_RCC_PLL_DISABLE();
 8002638:	4a28      	ldr	r2, [pc, #160]	; (80026dc <HAL_RCC_OscConfig+0x228>)
 800263a:	6813      	ldr	r3, [r2, #0]
 800263c:	492a      	ldr	r1, [pc, #168]	; (80026e8 <HAL_RCC_OscConfig+0x234>)
 800263e:	400b      	ands	r3, r1
 8002640:	6013      	str	r3, [r2, #0]
 
        /* Get Start Tick */
        tickstart = HAL_GetTick();
 8002642:	f7fd fe17 	bl	8000274 <HAL_GetTick>
 8002646:	0004      	movs	r4, r0
        
        /* Wait till PLL is disabled */  
        while(__HAL_RCC_GET_FLAG(RCC_FLAG_PLLRDY)  != RESET)
 8002648:	4b24      	ldr	r3, [pc, #144]	; (80026dc <HAL_RCC_OscConfig+0x228>)
 800264a:	681b      	ldr	r3, [r3, #0]
 800264c:	019b      	lsls	r3, r3, #6
 800264e:	d53d      	bpl.n	80026cc <HAL_RCC_OscConfig+0x218>
        {
          if((HAL_GetTick() - tickstart ) > PLL_TIMEOUT_VALUE)
 8002650:	f7fd fe10 	bl	8000274 <HAL_GetTick>
 8002654:	1b00      	subs	r0, r0, r4
 8002656:	2802      	cmp	r0, #2
 8002658:	d9f6      	bls.n	8002648 <HAL_RCC_OscConfig+0x194>
          {
            return HAL_TIMEOUT;
 800265a:	2003      	movs	r0, #3
 800265c:	e03b      	b.n	80026d6 <HAL_RCC_OscConfig+0x222>
        __HAL_RCC_PLL_DISABLE();
 800265e:	4a1f      	ldr	r2, [pc, #124]	; (80026dc <HAL_RCC_OscConfig+0x228>)
 8002660:	6813      	ldr	r3, [r2, #0]
 8002662:	4921      	ldr	r1, [pc, #132]	; (80026e8 <HAL_RCC_OscConfig+0x234>)
 8002664:	400b      	ands	r3, r1
 8002666:	6013      	str	r3, [r2, #0]
        tickstart = HAL_GetTick();
 8002668:	f7fd fe04 	bl	8000274 <HAL_GetTick>
 800266c:	0005      	movs	r5, r0
        while(__HAL_RCC_GET_FLAG(RCC_FLAG_PLLRDY)  != RESET)
 800266e:	4b1b      	ldr	r3, [pc, #108]	; (80026dc <HAL_RCC_OscConfig+0x228>)
 8002670:	681b      	ldr	r3, [r3, #0]
 8002672:	019b      	lsls	r3, r3, #6
 8002674:	d506      	bpl.n	8002684 <HAL_RCC_OscConfig+0x1d0>
          if((HAL_GetTick() - tickstart ) > PLL_TIMEOUT_VALUE)
 8002676:	f7fd fdfd 	bl	8000274 <HAL_GetTick>
 800267a:	1b40      	subs	r0, r0, r5
 800267c:	2802      	cmp	r0, #2
 800267e:	d9f6      	bls.n	800266e <HAL_RCC_OscConfig+0x1ba>
            return HAL_TIMEOUT;
 8002680:	2003      	movs	r0, #3
 8002682:	e028      	b.n	80026d6 <HAL_RCC_OscConfig+0x222>
        __HAL_RCC_PLL_CONFIG(RCC_OscInitStruct->PLL.PLLSource,
 8002684:	4b15      	ldr	r3, [pc, #84]	; (80026dc <HAL_RCC_OscConfig+0x228>)
 8002686:	6ada      	ldr	r2, [r3, #44]	; 0x2c
 8002688:	210f      	movs	r1, #15
 800268a:	438a      	bics	r2, r1
 800268c:	6b21      	ldr	r1, [r4, #48]	; 0x30
 800268e:	430a      	orrs	r2, r1
 8002690:	62da      	str	r2, [r3, #44]	; 0x2c
 8002692:	685a      	ldr	r2, [r3, #4]
 8002694:	4915      	ldr	r1, [pc, #84]	; (80026ec <HAL_RCC_OscConfig+0x238>)
 8002696:	400a      	ands	r2, r1
 8002698:	6ae1      	ldr	r1, [r4, #44]	; 0x2c
 800269a:	6aa0      	ldr	r0, [r4, #40]	; 0x28
 800269c:	4301      	orrs	r1, r0
 800269e:	430a      	orrs	r2, r1
 80026a0:	605a      	str	r2, [r3, #4]
        __HAL_RCC_PLL_ENABLE();
 80026a2:	6819      	ldr	r1, [r3, #0]
 80026a4:	2280      	movs	r2, #128	; 0x80
 80026a6:	0452      	lsls	r2, r2, #17
 80026a8:	430a      	orrs	r2, r1
 80026aa:	601a      	str	r2, [r3, #0]
        tickstart = HAL_GetTick();
 80026ac:	f7fd fde2 	bl	8000274 <HAL_GetTick>
 80026b0:	0004      	movs	r4, r0
        while(__HAL_RCC_GET_FLAG(RCC_FLAG_PLLRDY)  == RESET)
 80026b2:	4b0a      	ldr	r3, [pc, #40]	; (80026dc <HAL_RCC_OscConfig+0x228>)
 80026b4:	681b      	ldr	r3, [r3, #0]
 80026b6:	019b      	lsls	r3, r3, #6
 80026b8:	d406      	bmi.n	80026c8 <HAL_RCC_OscConfig+0x214>
          if((HAL_GetTick() - tickstart ) > PLL_TIMEOUT_VALUE)
 80026ba:	f7fd fddb 	bl	8000274 <HAL_GetTick>
 80026be:	1b00      	subs	r0, r0, r4
 80026c0:	2802      	cmp	r0, #2
 80026c2:	d9f6      	bls.n	80026b2 <HAL_RCC_OscConfig+0x1fe>
            return HAL_TIMEOUT;
 80026c4:	2003      	movs	r0, #3
 80026c6:	e006      	b.n	80026d6 <HAL_RCC_OscConfig+0x222>
    {
      return HAL_ERROR;
    }
  }
  
  return HAL_OK;
 80026c8:	2000      	movs	r0, #0
 80026ca:	e004      	b.n	80026d6 <HAL_RCC_OscConfig+0x222>
 80026cc:	2000      	movs	r0, #0
 80026ce:	e002      	b.n	80026d6 <HAL_RCC_OscConfig+0x222>
        return HAL_ERROR;
 80026d0:	2001      	movs	r0, #1
 80026d2:	e000      	b.n	80026d6 <HAL_RCC_OscConfig+0x222>
  return HAL_OK;
 80026d4:	2000      	movs	r0, #0
}
 80026d6:	bd70      	pop	{r4, r5, r6, pc}
      return HAL_ERROR;
 80026d8:	2001      	movs	r0, #1
 80026da:	e7fc      	b.n	80026d6 <HAL_RCC_OscConfig+0x222>
 80026dc:	40021000 	.word	0x40021000
 80026e0:	fffeffff 	.word	0xfffeffff
 80026e4:	fffbffff 	.word	0xfffbffff
 80026e8:	feffffff 	.word	0xfeffffff
 80026ec:	ffc27fff 	.word	0xffc27fff

080026f0 <HAL_RCC_GetSysClockFreq>:
  *         right SYSCLK value. Otherwise, any configuration based on this function will be incorrect.
  *         
  * @retval SYSCLK frequency
  */
uint32_t HAL_RCC_GetSysClockFreq(void)
{
 80026f0:	b530      	push	{r4, r5, lr}
 80026f2:	b089      	sub	sp, #36	; 0x24
  const uint8_t aPLLMULFactorTable[16] = { 2U,  3U,  4U,  5U,  6U,  7U,  8U,  9U,
 80026f4:	aa04      	add	r2, sp, #16
 80026f6:	4b1f      	ldr	r3, [pc, #124]	; (8002774 <HAL_RCC_GetSysClockFreq+0x84>)
 80026f8:	0018      	movs	r0, r3
 80026fa:	c832      	ldmia	r0!, {r1, r4, r5}
 80026fc:	c232      	stmia	r2!, {r1, r4, r5}
 80026fe:	0011      	movs	r1, r2
 8002700:	6802      	ldr	r2, [r0, #0]
 8002702:	600a      	str	r2, [r1, #0]
                                         10U, 11U, 12U, 13U, 14U, 15U, 16U, 16U};
  const uint8_t aPredivFactorTable[16] = { 1U, 2U,  3U,  4U,  5U,  6U,  7U,  8U,
 8002704:	466a      	mov	r2, sp
 8002706:	3310      	adds	r3, #16
 8002708:	cb13      	ldmia	r3!, {r0, r1, r4}
 800270a:	c213      	stmia	r2!, {r0, r1, r4}
 800270c:	681b      	ldr	r3, [r3, #0]
 800270e:	6013      	str	r3, [r2, #0]
                                           9U,10U, 11U, 12U, 13U, 14U, 15U, 16U};

  uint32_t tmpreg = 0U, prediv = 0U, pllclk = 0U, pllmul = 0U;
  uint32_t sysclockfreq = 0U;
  
  tmpreg = RCC->CFGR;
 8002710:	4b19      	ldr	r3, [pc, #100]	; (8002778 <HAL_RCC_GetSysClockFreq+0x88>)
 8002712:	685a      	ldr	r2, [r3, #4]
  
  /* Get SYSCLK source -------------------------------------------------------*/
  switch (tmpreg & RCC_CFGR_SWS)
 8002714:	230c      	movs	r3, #12
 8002716:	4013      	ands	r3, r2
 8002718:	2b08      	cmp	r3, #8
 800271a:	d004      	beq.n	8002726 <HAL_RCC_GetSysClockFreq+0x36>
 800271c:	2b0c      	cmp	r3, #12
 800271e:	d026      	beq.n	800276e <HAL_RCC_GetSysClockFreq+0x7e>
  {
    case RCC_SYSCLKSOURCE_STATUS_HSE:  /* HSE used as system clock */
    {
      sysclockfreq = HSE_VALUE;
 8002720:	4816      	ldr	r0, [pc, #88]	; (800277c <HAL_RCC_GetSysClockFreq+0x8c>)
      sysclockfreq = HSI_VALUE;
      break;
    }
  }
  return sysclockfreq;
}
 8002722:	b009      	add	sp, #36	; 0x24
 8002724:	bd30      	pop	{r4, r5, pc}
      pllmul = aPLLMULFactorTable[(uint32_t)(tmpreg & RCC_CFGR_PLLMUL) >> RCC_CFGR_PLLMUL_BITNUMBER];
 8002726:	0c91      	lsrs	r1, r2, #18
 8002728:	230f      	movs	r3, #15
 800272a:	4019      	ands	r1, r3
 800272c:	a804      	add	r0, sp, #16
 800272e:	5c44      	ldrb	r4, [r0, r1]
      prediv = aPredivFactorTable[(uint32_t)(RCC->CFGR2 & RCC_CFGR2_PREDIV) >> RCC_CFGR2_PREDIV_BITNUMBER];
 8002730:	4911      	ldr	r1, [pc, #68]	; (8002778 <HAL_RCC_GetSysClockFreq+0x88>)
 8002732:	6ac9      	ldr	r1, [r1, #44]	; 0x2c
 8002734:	400b      	ands	r3, r1
 8002736:	4669      	mov	r1, sp
 8002738:	5cc9      	ldrb	r1, [r1, r3]
      if ((tmpreg & RCC_CFGR_PLLSRC) == RCC_PLLSOURCE_HSE)
 800273a:	23c0      	movs	r3, #192	; 0xc0
 800273c:	025b      	lsls	r3, r3, #9
 800273e:	401a      	ands	r2, r3
 8002740:	2380      	movs	r3, #128	; 0x80
 8002742:	025b      	lsls	r3, r3, #9
 8002744:	429a      	cmp	r2, r3
 8002746:	d008      	beq.n	800275a <HAL_RCC_GetSysClockFreq+0x6a>
      else if ((tmpreg & RCC_CFGR_PLLSRC) == RCC_PLLSOURCE_HSI48)
 8002748:	23c0      	movs	r3, #192	; 0xc0
 800274a:	025b      	lsls	r3, r3, #9
 800274c:	429a      	cmp	r2, r3
 800274e:	d009      	beq.n	8002764 <HAL_RCC_GetSysClockFreq+0x74>
        pllclk = (HSI_VALUE / prediv) * pllmul;
 8002750:	480a      	ldr	r0, [pc, #40]	; (800277c <HAL_RCC_GetSysClockFreq+0x8c>)
 8002752:	f7fd fcd9 	bl	8000108 <__udivsi3>
 8002756:	4360      	muls	r0, r4
 8002758:	e7e3      	b.n	8002722 <HAL_RCC_GetSysClockFreq+0x32>
        pllclk = (HSE_VALUE / prediv) * pllmul;
 800275a:	4808      	ldr	r0, [pc, #32]	; (800277c <HAL_RCC_GetSysClockFreq+0x8c>)
 800275c:	f7fd fcd4 	bl	8000108 <__udivsi3>
 8002760:	4360      	muls	r0, r4
 8002762:	e7de      	b.n	8002722 <HAL_RCC_GetSysClockFreq+0x32>
        pllclk = (HSI48_VALUE / prediv) * pllmul;
 8002764:	4806      	ldr	r0, [pc, #24]	; (8002780 <HAL_RCC_GetSysClockFreq+0x90>)
 8002766:	f7fd fccf 	bl	8000108 <__udivsi3>
 800276a:	4360      	muls	r0, r4
 800276c:	e7d9      	b.n	8002722 <HAL_RCC_GetSysClockFreq+0x32>
      sysclockfreq = HSI48_VALUE;
 800276e:	4804      	ldr	r0, [pc, #16]	; (8002780 <HAL_RCC_GetSysClockFreq+0x90>)
  return sysclockfreq;
 8002770:	e7d7      	b.n	8002722 <HAL_RCC_GetSysClockFreq+0x32>
 8002772:	46c0      	nop			; (mov r8, r8)
 8002774:	08004cf0 	.word	0x08004cf0
 8002778:	40021000 	.word	0x40021000
 800277c:	007a1200 	.word	0x007a1200
 8002780:	02dc6c00 	.word	0x02dc6c00

08002784 <HAL_RCC_ClockConfig>:
{
 8002784:	b570      	push	{r4, r5, r6, lr}
 8002786:	0005      	movs	r5, r0
 8002788:	000c      	movs	r4, r1
  if(FLatency > (FLASH->ACR & FLASH_ACR_LATENCY))
 800278a:	4b59      	ldr	r3, [pc, #356]	; (80028f0 <HAL_RCC_ClockConfig+0x16c>)
 800278c:	681a      	ldr	r2, [r3, #0]
 800278e:	2301      	movs	r3, #1
 8002790:	4013      	ands	r3, r2
 8002792:	428b      	cmp	r3, r1
 8002794:	d20b      	bcs.n	80027ae <HAL_RCC_ClockConfig+0x2a>
    __HAL_FLASH_SET_LATENCY(FLatency);
 8002796:	4956      	ldr	r1, [pc, #344]	; (80028f0 <HAL_RCC_ClockConfig+0x16c>)
 8002798:	680b      	ldr	r3, [r1, #0]
 800279a:	2201      	movs	r2, #1
 800279c:	4393      	bics	r3, r2
 800279e:	4323      	orrs	r3, r4
 80027a0:	600b      	str	r3, [r1, #0]
    if((FLASH->ACR & FLASH_ACR_LATENCY) != FLatency)
 80027a2:	680b      	ldr	r3, [r1, #0]
 80027a4:	401a      	ands	r2, r3
 80027a6:	4294      	cmp	r4, r2
 80027a8:	d001      	beq.n	80027ae <HAL_RCC_ClockConfig+0x2a>
      return HAL_ERROR;
 80027aa:	2001      	movs	r0, #1
 80027ac:	e09d      	b.n	80028ea <HAL_RCC_ClockConfig+0x166>
  if(((RCC_ClkInitStruct->ClockType) & RCC_CLOCKTYPE_HCLK) == RCC_CLOCKTYPE_HCLK)
 80027ae:	682b      	ldr	r3, [r5, #0]
 80027b0:	079b      	lsls	r3, r3, #30
 80027b2:	d506      	bpl.n	80027c2 <HAL_RCC_ClockConfig+0x3e>
    MODIFY_REG(RCC->CFGR, RCC_CFGR_HPRE, RCC_ClkInitStruct->AHBCLKDivider);
 80027b4:	4a4f      	ldr	r2, [pc, #316]	; (80028f4 <HAL_RCC_ClockConfig+0x170>)
 80027b6:	6853      	ldr	r3, [r2, #4]
 80027b8:	21f0      	movs	r1, #240	; 0xf0
 80027ba:	438b      	bics	r3, r1
 80027bc:	68a9      	ldr	r1, [r5, #8]
 80027be:	430b      	orrs	r3, r1
 80027c0:	6053      	str	r3, [r2, #4]
  if(((RCC_ClkInitStruct->ClockType) & RCC_CLOCKTYPE_SYSCLK) == RCC_CLOCKTYPE_SYSCLK)
 80027c2:	682b      	ldr	r3, [r5, #0]
 80027c4:	07db      	lsls	r3, r3, #31
 80027c6:	d564      	bpl.n	8002892 <HAL_RCC_ClockConfig+0x10e>
    if(RCC_ClkInitStruct->SYSCLKSource == RCC_SYSCLKSOURCE_HSE)
 80027c8:	686b      	ldr	r3, [r5, #4]
 80027ca:	2b01      	cmp	r3, #1
 80027cc:	d025      	beq.n	800281a <HAL_RCC_ClockConfig+0x96>
    else if(RCC_ClkInitStruct->SYSCLKSource == RCC_SYSCLKSOURCE_PLLCLK)
 80027ce:	2b02      	cmp	r3, #2
 80027d0:	d029      	beq.n	8002826 <HAL_RCC_ClockConfig+0xa2>
    else if(RCC_ClkInitStruct->SYSCLKSource == RCC_SYSCLKSOURCE_HSI48)
 80027d2:	2b03      	cmp	r3, #3
 80027d4:	d02d      	beq.n	8002832 <HAL_RCC_ClockConfig+0xae>
      if(__HAL_RCC_GET_FLAG(RCC_FLAG_HSIRDY) == RESET)
 80027d6:	4a47      	ldr	r2, [pc, #284]	; (80028f4 <HAL_RCC_ClockConfig+0x170>)
 80027d8:	6812      	ldr	r2, [r2, #0]
 80027da:	0792      	lsls	r2, r2, #30
 80027dc:	d400      	bmi.n	80027e0 <HAL_RCC_ClockConfig+0x5c>
 80027de:	e085      	b.n	80028ec <HAL_RCC_ClockConfig+0x168>
    __HAL_RCC_SYSCLK_CONFIG(RCC_ClkInitStruct->SYSCLKSource);
 80027e0:	4944      	ldr	r1, [pc, #272]	; (80028f4 <HAL_RCC_ClockConfig+0x170>)
 80027e2:	684a      	ldr	r2, [r1, #4]
 80027e4:	2003      	movs	r0, #3
 80027e6:	4382      	bics	r2, r0
 80027e8:	4313      	orrs	r3, r2
 80027ea:	604b      	str	r3, [r1, #4]
    tickstart = HAL_GetTick();
 80027ec:	f7fd fd42 	bl	8000274 <HAL_GetTick>
 80027f0:	0006      	movs	r6, r0
    if(RCC_ClkInitStruct->SYSCLKSource == RCC_SYSCLKSOURCE_HSE)
 80027f2:	686b      	ldr	r3, [r5, #4]
 80027f4:	2b01      	cmp	r3, #1
 80027f6:	d022      	beq.n	800283e <HAL_RCC_ClockConfig+0xba>
    else if(RCC_ClkInitStruct->SYSCLKSource == RCC_SYSCLKSOURCE_PLLCLK)
 80027f8:	2b02      	cmp	r3, #2
 80027fa:	d02e      	beq.n	800285a <HAL_RCC_ClockConfig+0xd6>
    else if(RCC_ClkInitStruct->SYSCLKSource == RCC_SYSCLKSOURCE_HSI48)
 80027fc:	2b03      	cmp	r3, #3
 80027fe:	d03a      	beq.n	8002876 <HAL_RCC_ClockConfig+0xf2>
      while (__HAL_RCC_GET_SYSCLK_SOURCE() != RCC_SYSCLKSOURCE_STATUS_HSI)
 8002800:	4b3c      	ldr	r3, [pc, #240]	; (80028f4 <HAL_RCC_ClockConfig+0x170>)
 8002802:	685b      	ldr	r3, [r3, #4]
 8002804:	220c      	movs	r2, #12
 8002806:	421a      	tst	r2, r3
 8002808:	d043      	beq.n	8002892 <HAL_RCC_ClockConfig+0x10e>
        if((HAL_GetTick() - tickstart ) > CLOCKSWITCH_TIMEOUT_VALUE)
 800280a:	f7fd fd33 	bl	8000274 <HAL_GetTick>
 800280e:	1b80      	subs	r0, r0, r6
 8002810:	4b39      	ldr	r3, [pc, #228]	; (80028f8 <HAL_RCC_ClockConfig+0x174>)
 8002812:	4298      	cmp	r0, r3
 8002814:	d9f4      	bls.n	8002800 <HAL_RCC_ClockConfig+0x7c>
          return HAL_TIMEOUT;
 8002816:	2003      	movs	r0, #3
 8002818:	e067      	b.n	80028ea <HAL_RCC_ClockConfig+0x166>
      if(__HAL_RCC_GET_FLAG(RCC_FLAG_HSERDY) == RESET)
 800281a:	4a36      	ldr	r2, [pc, #216]	; (80028f4 <HAL_RCC_ClockConfig+0x170>)
 800281c:	6812      	ldr	r2, [r2, #0]
 800281e:	0392      	lsls	r2, r2, #14
 8002820:	d4de      	bmi.n	80027e0 <HAL_RCC_ClockConfig+0x5c>
        return HAL_ERROR;
 8002822:	2001      	movs	r0, #1
 8002824:	e061      	b.n	80028ea <HAL_RCC_ClockConfig+0x166>
      if(__HAL_RCC_GET_FLAG(RCC_FLAG_PLLRDY) == RESET)
 8002826:	4a33      	ldr	r2, [pc, #204]	; (80028f4 <HAL_RCC_ClockConfig+0x170>)
 8002828:	6812      	ldr	r2, [r2, #0]
 800282a:	0192      	lsls	r2, r2, #6
 800282c:	d4d8      	bmi.n	80027e0 <HAL_RCC_ClockConfig+0x5c>
        return HAL_ERROR;
 800282e:	2001      	movs	r0, #1
 8002830:	e05b      	b.n	80028ea <HAL_RCC_ClockConfig+0x166>
      if(__HAL_RCC_GET_FLAG(RCC_FLAG_HSI48RDY) == RESET)
 8002832:	4a30      	ldr	r2, [pc, #192]	; (80028f4 <HAL_RCC_ClockConfig+0x170>)
 8002834:	6b52      	ldr	r2, [r2, #52]	; 0x34
 8002836:	03d2      	lsls	r2, r2, #15
 8002838:	d4d2      	bmi.n	80027e0 <HAL_RCC_ClockConfig+0x5c>
        return HAL_ERROR;
 800283a:	2001      	movs	r0, #1
 800283c:	e055      	b.n	80028ea <HAL_RCC_ClockConfig+0x166>
      while (__HAL_RCC_GET_SYSCLK_SOURCE() != RCC_SYSCLKSOURCE_STATUS_HSE)
 800283e:	4b2d      	ldr	r3, [pc, #180]	; (80028f4 <HAL_RCC_ClockConfig+0x170>)
 8002840:	685a      	ldr	r2, [r3, #4]
 8002842:	230c      	movs	r3, #12
 8002844:	4013      	ands	r3, r2
 8002846:	2b04      	cmp	r3, #4
 8002848:	d023      	beq.n	8002892 <HAL_RCC_ClockConfig+0x10e>
        if((HAL_GetTick() - tickstart ) > CLOCKSWITCH_TIMEOUT_VALUE)
 800284a:	f7fd fd13 	bl	8000274 <HAL_GetTick>
 800284e:	1b80      	subs	r0, r0, r6
 8002850:	4b29      	ldr	r3, [pc, #164]	; (80028f8 <HAL_RCC_ClockConfig+0x174>)
 8002852:	4298      	cmp	r0, r3
 8002854:	d9f3      	bls.n	800283e <HAL_RCC_ClockConfig+0xba>
          return HAL_TIMEOUT;
 8002856:	2003      	movs	r0, #3
 8002858:	e047      	b.n	80028ea <HAL_RCC_ClockConfig+0x166>
      while (__HAL_RCC_GET_SYSCLK_SOURCE() != RCC_SYSCLKSOURCE_STATUS_PLLCLK)
 800285a:	4b26      	ldr	r3, [pc, #152]	; (80028f4 <HAL_RCC_ClockConfig+0x170>)
 800285c:	685a      	ldr	r2, [r3, #4]
 800285e:	230c      	movs	r3, #12
 8002860:	4013      	ands	r3, r2
 8002862:	2b08      	cmp	r3, #8
 8002864:	d015      	beq.n	8002892 <HAL_RCC_ClockConfig+0x10e>
        if((HAL_GetTick() - tickstart ) > CLOCKSWITCH_TIMEOUT_VALUE)
 8002866:	f7fd fd05 	bl	8000274 <HAL_GetTick>
 800286a:	1b80      	subs	r0, r0, r6
 800286c:	4b22      	ldr	r3, [pc, #136]	; (80028f8 <HAL_RCC_ClockConfig+0x174>)
 800286e:	4298      	cmp	r0, r3
 8002870:	d9f3      	bls.n	800285a <HAL_RCC_ClockConfig+0xd6>
          return HAL_TIMEOUT;
 8002872:	2003      	movs	r0, #3
 8002874:	e039      	b.n	80028ea <HAL_RCC_ClockConfig+0x166>
      while (__HAL_RCC_GET_SYSCLK_SOURCE() != RCC_SYSCLKSOURCE_STATUS_HSI48)
 8002876:	4b1f      	ldr	r3, [pc, #124]	; (80028f4 <HAL_RCC_ClockConfig+0x170>)
 8002878:	685a      	ldr	r2, [r3, #4]
 800287a:	230c      	movs	r3, #12
 800287c:	4013      	ands	r3, r2
 800287e:	2b0c      	cmp	r3, #12
 8002880:	d007      	beq.n	8002892 <HAL_RCC_ClockConfig+0x10e>
        if((HAL_GetTick() - tickstart) > CLOCKSWITCH_TIMEOUT_VALUE)
 8002882:	f7fd fcf7 	bl	8000274 <HAL_GetTick>
 8002886:	1b80      	subs	r0, r0, r6
 8002888:	4b1b      	ldr	r3, [pc, #108]	; (80028f8 <HAL_RCC_ClockConfig+0x174>)
 800288a:	4298      	cmp	r0, r3
 800288c:	d9f3      	bls.n	8002876 <HAL_RCC_ClockConfig+0xf2>
          return HAL_TIMEOUT;
 800288e:	2003      	movs	r0, #3
 8002890:	e02b      	b.n	80028ea <HAL_RCC_ClockConfig+0x166>
  if(FLatency < (FLASH->ACR & FLASH_ACR_LATENCY))
 8002892:	4b17      	ldr	r3, [pc, #92]	; (80028f0 <HAL_RCC_ClockConfig+0x16c>)
 8002894:	681a      	ldr	r2, [r3, #0]
 8002896:	2301      	movs	r3, #1
 8002898:	4013      	ands	r3, r2
 800289a:	429c      	cmp	r4, r3
 800289c:	d20b      	bcs.n	80028b6 <HAL_RCC_ClockConfig+0x132>
    __HAL_FLASH_SET_LATENCY(FLatency);
 800289e:	4914      	ldr	r1, [pc, #80]	; (80028f0 <HAL_RCC_ClockConfig+0x16c>)
 80028a0:	680b      	ldr	r3, [r1, #0]
 80028a2:	2201      	movs	r2, #1
 80028a4:	4393      	bics	r3, r2
 80028a6:	4323      	orrs	r3, r4
 80028a8:	600b      	str	r3, [r1, #0]
    if((FLASH->ACR & FLASH_ACR_LATENCY) != FLatency)
 80028aa:	680b      	ldr	r3, [r1, #0]
 80028ac:	401a      	ands	r2, r3
 80028ae:	4294      	cmp	r4, r2
 80028b0:	d001      	beq.n	80028b6 <HAL_RCC_ClockConfig+0x132>
      return HAL_ERROR;
 80028b2:	2001      	movs	r0, #1
 80028b4:	e019      	b.n	80028ea <HAL_RCC_ClockConfig+0x166>
  if(((RCC_ClkInitStruct->ClockType) & RCC_CLOCKTYPE_PCLK1) == RCC_CLOCKTYPE_PCLK1)
 80028b6:	682b      	ldr	r3, [r5, #0]
 80028b8:	075b      	lsls	r3, r3, #29
 80028ba:	d506      	bpl.n	80028ca <HAL_RCC_ClockConfig+0x146>
    MODIFY_REG(RCC->CFGR, RCC_CFGR_PPRE, RCC_ClkInitStruct->APB1CLKDivider);
 80028bc:	4a0d      	ldr	r2, [pc, #52]	; (80028f4 <HAL_RCC_ClockConfig+0x170>)
 80028be:	6853      	ldr	r3, [r2, #4]
 80028c0:	490e      	ldr	r1, [pc, #56]	; (80028fc <HAL_RCC_ClockConfig+0x178>)
 80028c2:	400b      	ands	r3, r1
 80028c4:	68e9      	ldr	r1, [r5, #12]
 80028c6:	430b      	orrs	r3, r1
 80028c8:	6053      	str	r3, [r2, #4]
  SystemCoreClock = HAL_RCC_GetSysClockFreq() >> AHBPrescTable[(RCC->CFGR & RCC_CFGR_HPRE)>> RCC_CFGR_HPRE_BITNUMBER];
 80028ca:	f7ff ff11 	bl	80026f0 <HAL_RCC_GetSysClockFreq>
 80028ce:	4b09      	ldr	r3, [pc, #36]	; (80028f4 <HAL_RCC_ClockConfig+0x170>)
 80028d0:	685a      	ldr	r2, [r3, #4]
 80028d2:	0912      	lsrs	r2, r2, #4
 80028d4:	230f      	movs	r3, #15
 80028d6:	4013      	ands	r3, r2
 80028d8:	4a09      	ldr	r2, [pc, #36]	; (8002900 <HAL_RCC_ClockConfig+0x17c>)
 80028da:	5cd3      	ldrb	r3, [r2, r3]
 80028dc:	40d8      	lsrs	r0, r3
 80028de:	4b09      	ldr	r3, [pc, #36]	; (8002904 <HAL_RCC_ClockConfig+0x180>)
 80028e0:	6018      	str	r0, [r3, #0]
  HAL_InitTick (TICK_INT_PRIORITY);
 80028e2:	2000      	movs	r0, #0
 80028e4:	f7fd fc9c 	bl	8000220 <HAL_InitTick>
  return HAL_OK;
 80028e8:	2000      	movs	r0, #0
}
 80028ea:	bd70      	pop	{r4, r5, r6, pc}
        return HAL_ERROR;
 80028ec:	2001      	movs	r0, #1
 80028ee:	e7fc      	b.n	80028ea <HAL_RCC_ClockConfig+0x166>
 80028f0:	40022000 	.word	0x40022000
 80028f4:	40021000 	.word	0x40021000
 80028f8:	00001388 	.word	0x00001388
 80028fc:	fffff8ff 	.word	0xfffff8ff
 8002900:	08004efc 	.word	0x08004efc
 8002904:	20000118 	.word	0x20000118

08002908 <HAL_RCC_GetHCLKFreq>:
  *         and updated within this function
  * @retval HCLK frequency
  */
uint32_t HAL_RCC_GetHCLKFreq(void)
{
  return SystemCoreClock;
 8002908:	4b01      	ldr	r3, [pc, #4]	; (8002910 <HAL_RCC_GetHCLKFreq+0x8>)
 800290a:	6818      	ldr	r0, [r3, #0]
}
 800290c:	4770      	bx	lr
 800290e:	46c0      	nop			; (mov r8, r8)
 8002910:	20000118 	.word	0x20000118

08002914 <HAL_RCCEx_PeriphCLKConfig>:
  *         the backup registers) and RCC_BDCR register are set to their reset values.
  *
  * @retval HAL status
  */
HAL_StatusTypeDef HAL_RCCEx_PeriphCLKConfig(RCC_PeriphCLKInitTypeDef  *PeriphClkInit)
{
 8002914:	b570      	push	{r4, r5, r6, lr}
 8002916:	b082      	sub	sp, #8
 8002918:	0004      	movs	r4, r0

  /* Check the parameters */
  assert_param(IS_RCC_PERIPHCLOCK(PeriphClkInit->PeriphClockSelection));
  
  /*---------------------------- RTC configuration -------------------------------*/
  if(((PeriphClkInit->PeriphClockSelection) & RCC_PERIPHCLK_RTC) == (RCC_PERIPHCLK_RTC))
 800291a:	6803      	ldr	r3, [r0, #0]
 800291c:	03db      	lsls	r3, r3, #15
 800291e:	d535      	bpl.n	800298c <HAL_RCCEx_PeriphCLKConfig+0x78>
    FlagStatus       pwrclkchanged = RESET;

    /* As soon as function is called to change RTC clock source, activation of the 
       power domain is done. */
    /* Requires to enable write access to Backup Domain of necessary */
    if(__HAL_RCC_PWR_IS_CLK_DISABLED())
 8002920:	4b46      	ldr	r3, [pc, #280]	; (8002a3c <HAL_RCCEx_PeriphCLKConfig+0x128>)
 8002922:	69db      	ldr	r3, [r3, #28]
 8002924:	00db      	lsls	r3, r3, #3
 8002926:	d45c      	bmi.n	80029e2 <HAL_RCCEx_PeriphCLKConfig+0xce>
    {
    __HAL_RCC_PWR_CLK_ENABLE();
 8002928:	4a44      	ldr	r2, [pc, #272]	; (8002a3c <HAL_RCCEx_PeriphCLKConfig+0x128>)
 800292a:	69d1      	ldr	r1, [r2, #28]
 800292c:	2080      	movs	r0, #128	; 0x80
 800292e:	0540      	lsls	r0, r0, #21
 8002930:	4301      	orrs	r1, r0
 8002932:	61d1      	str	r1, [r2, #28]
 8002934:	69d3      	ldr	r3, [r2, #28]
 8002936:	4003      	ands	r3, r0
 8002938:	9301      	str	r3, [sp, #4]
 800293a:	9b01      	ldr	r3, [sp, #4]
      pwrclkchanged = SET;
 800293c:	2501      	movs	r5, #1
    }
    
    if(HAL_IS_BIT_CLR(PWR->CR, PWR_CR_DBP))
 800293e:	4b40      	ldr	r3, [pc, #256]	; (8002a40 <HAL_RCCEx_PeriphCLKConfig+0x12c>)
 8002940:	681b      	ldr	r3, [r3, #0]
 8002942:	05db      	lsls	r3, r3, #23
 8002944:	d54f      	bpl.n	80029e6 <HAL_RCCEx_PeriphCLKConfig+0xd2>
        }
      }
    }
    
    /* Reset the Backup domain only if the RTC Clock source selection is modified from reset value */ 
    temp_reg = (RCC->BDCR & RCC_BDCR_RTCSEL);
 8002946:	4b3d      	ldr	r3, [pc, #244]	; (8002a3c <HAL_RCCEx_PeriphCLKConfig+0x128>)
 8002948:	6a1b      	ldr	r3, [r3, #32]
 800294a:	22c0      	movs	r2, #192	; 0xc0
 800294c:	0092      	lsls	r2, r2, #2
 800294e:	4013      	ands	r3, r2
    if((temp_reg != 0x00000000U) && (temp_reg != (PeriphClkInit->RTCClockSelection & RCC_BDCR_RTCSEL)))
 8002950:	d013      	beq.n	800297a <HAL_RCCEx_PeriphCLKConfig+0x66>
 8002952:	6861      	ldr	r1, [r4, #4]
 8002954:	400a      	ands	r2, r1
 8002956:	4293      	cmp	r3, r2
 8002958:	d00f      	beq.n	800297a <HAL_RCCEx_PeriphCLKConfig+0x66>
    {
      /* Store the content of BDCR register before the reset of Backup Domain */
      temp_reg = (RCC->BDCR & ~(RCC_BDCR_RTCSEL));
 800295a:	4b38      	ldr	r3, [pc, #224]	; (8002a3c <HAL_RCCEx_PeriphCLKConfig+0x128>)
 800295c:	6a18      	ldr	r0, [r3, #32]
 800295e:	4a39      	ldr	r2, [pc, #228]	; (8002a44 <HAL_RCCEx_PeriphCLKConfig+0x130>)
 8002960:	4002      	ands	r2, r0
      /* RTC Clock selection can be changed only if the Backup Domain is reset */
      __HAL_RCC_BACKUPRESET_FORCE();
 8002962:	6a1e      	ldr	r6, [r3, #32]
 8002964:	2180      	movs	r1, #128	; 0x80
 8002966:	0249      	lsls	r1, r1, #9
 8002968:	4331      	orrs	r1, r6
 800296a:	6219      	str	r1, [r3, #32]
      __HAL_RCC_BACKUPRESET_RELEASE();
 800296c:	6a19      	ldr	r1, [r3, #32]
 800296e:	4e36      	ldr	r6, [pc, #216]	; (8002a48 <HAL_RCCEx_PeriphCLKConfig+0x134>)
 8002970:	4031      	ands	r1, r6
 8002972:	6219      	str	r1, [r3, #32]
      /* Restore the Content of BDCR register */
      RCC->BDCR = temp_reg;
 8002974:	621a      	str	r2, [r3, #32]
      
      /* Wait for LSERDY if LSE was enabled */
      if (HAL_IS_BIT_SET(temp_reg, RCC_BDCR_LSEON))
 8002976:	07c3      	lsls	r3, r0, #31
 8002978:	d449      	bmi.n	8002a0e <HAL_RCCEx_PeriphCLKConfig+0xfa>
            return HAL_TIMEOUT;
          }
        }
      }
    }
    __HAL_RCC_RTC_CONFIG(PeriphClkInit->RTCClockSelection);
 800297a:	4a30      	ldr	r2, [pc, #192]	; (8002a3c <HAL_RCCEx_PeriphCLKConfig+0x128>)
 800297c:	6a13      	ldr	r3, [r2, #32]
 800297e:	4931      	ldr	r1, [pc, #196]	; (8002a44 <HAL_RCCEx_PeriphCLKConfig+0x130>)
 8002980:	400b      	ands	r3, r1
 8002982:	6861      	ldr	r1, [r4, #4]
 8002984:	430b      	orrs	r3, r1
 8002986:	6213      	str	r3, [r2, #32]

    /* Require to disable power clock if necessary */
    if(pwrclkchanged == SET)
 8002988:	2d01      	cmp	r5, #1
 800298a:	d04f      	beq.n	8002a2c <HAL_RCCEx_PeriphCLKConfig+0x118>
      __HAL_RCC_PWR_CLK_DISABLE();
    }
  }

  /*------------------------------- USART1 Configuration ------------------------*/ 
  if(((PeriphClkInit->PeriphClockSelection) & RCC_PERIPHCLK_USART1) == RCC_PERIPHCLK_USART1)
 800298c:	6823      	ldr	r3, [r4, #0]
 800298e:	07db      	lsls	r3, r3, #31
 8002990:	d506      	bpl.n	80029a0 <HAL_RCCEx_PeriphCLKConfig+0x8c>
  {
    /* Check the parameters */
    assert_param(IS_RCC_USART1CLKSOURCE(PeriphClkInit->Usart1ClockSelection));
    
    /* Configure the USART1 clock source */
    __HAL_RCC_USART1_CONFIG(PeriphClkInit->Usart1ClockSelection);
 8002992:	4a2a      	ldr	r2, [pc, #168]	; (8002a3c <HAL_RCCEx_PeriphCLKConfig+0x128>)
 8002994:	6b13      	ldr	r3, [r2, #48]	; 0x30
 8002996:	2103      	movs	r1, #3
 8002998:	438b      	bics	r3, r1
 800299a:	68a1      	ldr	r1, [r4, #8]
 800299c:	430b      	orrs	r3, r1
 800299e:	6313      	str	r3, [r2, #48]	; 0x30
    __HAL_RCC_USART3_CONFIG(PeriphClkInit->Usart3ClockSelection);
  }
#endif /* STM32F091xC || STM32F098xx */  

  /*------------------------------ I2C1 Configuration ------------------------*/ 
  if(((PeriphClkInit->PeriphClockSelection) & RCC_PERIPHCLK_I2C1) == RCC_PERIPHCLK_I2C1)
 80029a0:	6823      	ldr	r3, [r4, #0]
 80029a2:	069b      	lsls	r3, r3, #26
 80029a4:	d506      	bpl.n	80029b4 <HAL_RCCEx_PeriphCLKConfig+0xa0>
  {
    /* Check the parameters */
    assert_param(IS_RCC_I2C1CLKSOURCE(PeriphClkInit->I2c1ClockSelection));
    
    /* Configure the I2C1 clock source */
    __HAL_RCC_I2C1_CONFIG(PeriphClkInit->I2c1ClockSelection);
 80029a6:	4a25      	ldr	r2, [pc, #148]	; (8002a3c <HAL_RCCEx_PeriphCLKConfig+0x128>)
 80029a8:	6b13      	ldr	r3, [r2, #48]	; 0x30
 80029aa:	2110      	movs	r1, #16
 80029ac:	438b      	bics	r3, r1
 80029ae:	68e1      	ldr	r1, [r4, #12]
 80029b0:	430b      	orrs	r3, r1
 80029b2:	6313      	str	r3, [r2, #48]	; 0x30
  }

#if defined(STM32F042x6) || defined(STM32F048xx) || defined(STM32F072xB) || defined(STM32F078xx) || defined(STM32F070xB) || defined(STM32F070x6)
  /*------------------------------ USB Configuration ------------------------*/ 
  if(((PeriphClkInit->PeriphClockSelection) & RCC_PERIPHCLK_USB) == RCC_PERIPHCLK_USB)
 80029b4:	6823      	ldr	r3, [r4, #0]
 80029b6:	039b      	lsls	r3, r3, #14
 80029b8:	d506      	bpl.n	80029c8 <HAL_RCCEx_PeriphCLKConfig+0xb4>
  {
    /* Check the parameters */
    assert_param(IS_RCC_USBCLKSOURCE(PeriphClkInit->UsbClockSelection));
    
    /* Configure the USB clock source */
    __HAL_RCC_USB_CONFIG(PeriphClkInit->UsbClockSelection);
 80029ba:	4a20      	ldr	r2, [pc, #128]	; (8002a3c <HAL_RCCEx_PeriphCLKConfig+0x128>)
 80029bc:	6b13      	ldr	r3, [r2, #48]	; 0x30
 80029be:	2180      	movs	r1, #128	; 0x80
 80029c0:	438b      	bics	r3, r1
 80029c2:	6961      	ldr	r1, [r4, #20]
 80029c4:	430b      	orrs	r3, r1
 80029c6:	6313      	str	r3, [r2, #48]	; 0x30
#if defined(STM32F042x6) || defined(STM32F048xx)\
 || defined(STM32F051x8) || defined(STM32F058xx)\
 || defined(STM32F071xB) || defined(STM32F072xB) || defined(STM32F078xx)\
 || defined(STM32F091xC) || defined(STM32F098xx)
  /*------------------------------ CEC clock Configuration -------------------*/ 
  if(((PeriphClkInit->PeriphClockSelection) & RCC_PERIPHCLK_CEC) == RCC_PERIPHCLK_CEC)
 80029c8:	6823      	ldr	r3, [r4, #0]
 80029ca:	055b      	lsls	r3, r3, #21
 80029cc:	d533      	bpl.n	8002a36 <HAL_RCCEx_PeriphCLKConfig+0x122>
  {
    /* Check the parameters */
    assert_param(IS_RCC_CECCLKSOURCE(PeriphClkInit->CecClockSelection));
    
    /* Configure the CEC clock source */
    __HAL_RCC_CEC_CONFIG(PeriphClkInit->CecClockSelection);
 80029ce:	4a1b      	ldr	r2, [pc, #108]	; (8002a3c <HAL_RCCEx_PeriphCLKConfig+0x128>)
 80029d0:	6b13      	ldr	r3, [r2, #48]	; 0x30
 80029d2:	2140      	movs	r1, #64	; 0x40
 80029d4:	438b      	bics	r3, r1
 80029d6:	6921      	ldr	r1, [r4, #16]
 80029d8:	430b      	orrs	r3, r1
 80029da:	6313      	str	r3, [r2, #48]	; 0x30
#endif /* STM32F042x6 || STM32F048xx ||                */
       /* STM32F051x8 || STM32F058xx ||                */
       /* STM32F071xB || STM32F072xB || STM32F078xx || */
       /* STM32F091xC || STM32F098xx */
  
  return HAL_OK;
 80029dc:	2000      	movs	r0, #0
}
 80029de:	b002      	add	sp, #8
 80029e0:	bd70      	pop	{r4, r5, r6, pc}
    FlagStatus       pwrclkchanged = RESET;
 80029e2:	2500      	movs	r5, #0
 80029e4:	e7ab      	b.n	800293e <HAL_RCCEx_PeriphCLKConfig+0x2a>
      SET_BIT(PWR->CR, PWR_CR_DBP);
 80029e6:	4a16      	ldr	r2, [pc, #88]	; (8002a40 <HAL_RCCEx_PeriphCLKConfig+0x12c>)
 80029e8:	6811      	ldr	r1, [r2, #0]
 80029ea:	2380      	movs	r3, #128	; 0x80
 80029ec:	005b      	lsls	r3, r3, #1
 80029ee:	430b      	orrs	r3, r1
 80029f0:	6013      	str	r3, [r2, #0]
      tickstart = HAL_GetTick();
 80029f2:	f7fd fc3f 	bl	8000274 <HAL_GetTick>
 80029f6:	0006      	movs	r6, r0
      while(HAL_IS_BIT_CLR(PWR->CR, PWR_CR_DBP))
 80029f8:	4b11      	ldr	r3, [pc, #68]	; (8002a40 <HAL_RCCEx_PeriphCLKConfig+0x12c>)
 80029fa:	681b      	ldr	r3, [r3, #0]
 80029fc:	05db      	lsls	r3, r3, #23
 80029fe:	d4a2      	bmi.n	8002946 <HAL_RCCEx_PeriphCLKConfig+0x32>
        if((HAL_GetTick() - tickstart) > RCC_DBP_TIMEOUT_VALUE)
 8002a00:	f7fd fc38 	bl	8000274 <HAL_GetTick>
 8002a04:	1b80      	subs	r0, r0, r6
 8002a06:	2864      	cmp	r0, #100	; 0x64
 8002a08:	d9f6      	bls.n	80029f8 <HAL_RCCEx_PeriphCLKConfig+0xe4>
          return HAL_TIMEOUT;
 8002a0a:	2003      	movs	r0, #3
 8002a0c:	e7e7      	b.n	80029de <HAL_RCCEx_PeriphCLKConfig+0xca>
        tickstart = HAL_GetTick();
 8002a0e:	f7fd fc31 	bl	8000274 <HAL_GetTick>
 8002a12:	0006      	movs	r6, r0
        while(__HAL_RCC_GET_FLAG(RCC_FLAG_LSERDY) == RESET)
 8002a14:	4b09      	ldr	r3, [pc, #36]	; (8002a3c <HAL_RCCEx_PeriphCLKConfig+0x128>)
 8002a16:	6a1b      	ldr	r3, [r3, #32]
 8002a18:	079b      	lsls	r3, r3, #30
 8002a1a:	d4ae      	bmi.n	800297a <HAL_RCCEx_PeriphCLKConfig+0x66>
          if((HAL_GetTick() - tickstart) > RCC_LSE_TIMEOUT_VALUE)
 8002a1c:	f7fd fc2a 	bl	8000274 <HAL_GetTick>
 8002a20:	1b80      	subs	r0, r0, r6
 8002a22:	4b0a      	ldr	r3, [pc, #40]	; (8002a4c <HAL_RCCEx_PeriphCLKConfig+0x138>)
 8002a24:	4298      	cmp	r0, r3
 8002a26:	d9f5      	bls.n	8002a14 <HAL_RCCEx_PeriphCLKConfig+0x100>
            return HAL_TIMEOUT;
 8002a28:	2003      	movs	r0, #3
 8002a2a:	e7d8      	b.n	80029de <HAL_RCCEx_PeriphCLKConfig+0xca>
      __HAL_RCC_PWR_CLK_DISABLE();
 8002a2c:	69d3      	ldr	r3, [r2, #28]
 8002a2e:	4908      	ldr	r1, [pc, #32]	; (8002a50 <HAL_RCCEx_PeriphCLKConfig+0x13c>)
 8002a30:	400b      	ands	r3, r1
 8002a32:	61d3      	str	r3, [r2, #28]
 8002a34:	e7aa      	b.n	800298c <HAL_RCCEx_PeriphCLKConfig+0x78>
  return HAL_OK;
 8002a36:	2000      	movs	r0, #0
 8002a38:	e7d1      	b.n	80029de <HAL_RCCEx_PeriphCLKConfig+0xca>
 8002a3a:	46c0      	nop			; (mov r8, r8)
 8002a3c:	40021000 	.word	0x40021000
 8002a40:	40007000 	.word	0x40007000
 8002a44:	fffffcff 	.word	0xfffffcff
 8002a48:	fffeffff 	.word	0xfffeffff
 8002a4c:	00001388 	.word	0x00001388
 8002a50:	efffffff 	.word	0xefffffff

08002a54 <UART_EndRxTransfer>:
  * @retval None
  */
static void UART_EndRxTransfer(UART_HandleTypeDef *huart)
{
  /* Disable RXNE, PE and ERR (Frame error, noise error, overrun error) interrupts */
  CLEAR_BIT(huart->Instance->CR1, (USART_CR1_RXNEIE | USART_CR1_PEIE));
 8002a54:	6803      	ldr	r3, [r0, #0]
 8002a56:	4906      	ldr	r1, [pc, #24]	; (8002a70 <UART_EndRxTransfer+0x1c>)
 8002a58:	681a      	ldr	r2, [r3, #0]
  CLEAR_BIT(huart->Instance->CR3, USART_CR3_EIE);

  /* At end of Rx process, restore huart->RxState to Ready */
  huart->RxState = HAL_UART_STATE_READY;
 8002a5a:	306a      	adds	r0, #106	; 0x6a
  CLEAR_BIT(huart->Instance->CR1, (USART_CR1_RXNEIE | USART_CR1_PEIE));
 8002a5c:	400a      	ands	r2, r1
 8002a5e:	601a      	str	r2, [r3, #0]
  CLEAR_BIT(huart->Instance->CR3, USART_CR3_EIE);
 8002a60:	689a      	ldr	r2, [r3, #8]
 8002a62:	3123      	adds	r1, #35	; 0x23
 8002a64:	31ff      	adds	r1, #255	; 0xff
 8002a66:	438a      	bics	r2, r1
 8002a68:	609a      	str	r2, [r3, #8]
  huart->RxState = HAL_UART_STATE_READY;
 8002a6a:	2320      	movs	r3, #32
 8002a6c:	7003      	strb	r3, [r0, #0]
}
 8002a6e:	4770      	bx	lr
 8002a70:	fffffedf 	.word	0xfffffedf

08002a74 <HAL_UART_Transmit_DMA>:
{
 8002a74:	0013      	movs	r3, r2
  if(huart->gState == HAL_UART_STATE_READY)
 8002a76:	0002      	movs	r2, r0
{
 8002a78:	b570      	push	{r4, r5, r6, lr}
  if(huart->gState == HAL_UART_STATE_READY)
 8002a7a:	3269      	adds	r2, #105	; 0x69
 8002a7c:	7814      	ldrb	r4, [r2, #0]
{
 8002a7e:	0005      	movs	r5, r0
    return HAL_BUSY;
 8002a80:	2002      	movs	r0, #2
  if(huart->gState == HAL_UART_STATE_READY)
 8002a82:	2c20      	cmp	r4, #32
 8002a84:	d134      	bne.n	8002af0 <HAL_UART_Transmit_DMA+0x7c>
      return HAL_ERROR;
 8002a86:	3801      	subs	r0, #1
    if((pData == NULL ) || (Size == 0U))
 8002a88:	2900      	cmp	r1, #0
 8002a8a:	d031      	beq.n	8002af0 <HAL_UART_Transmit_DMA+0x7c>
 8002a8c:	2b00      	cmp	r3, #0
 8002a8e:	d02f      	beq.n	8002af0 <HAL_UART_Transmit_DMA+0x7c>
    if ((huart->Init.WordLength == UART_WORDLENGTH_9B) && (huart->Init.Parity == UART_PARITY_NONE))
 8002a90:	2480      	movs	r4, #128	; 0x80
 8002a92:	68ae      	ldr	r6, [r5, #8]
 8002a94:	0164      	lsls	r4, r4, #5
 8002a96:	42a6      	cmp	r6, r4
 8002a98:	d104      	bne.n	8002aa4 <HAL_UART_Transmit_DMA+0x30>
 8002a9a:	692c      	ldr	r4, [r5, #16]
 8002a9c:	2c00      	cmp	r4, #0
 8002a9e:	d101      	bne.n	8002aa4 <HAL_UART_Transmit_DMA+0x30>
      if((((uint32_t)pData)&1U) != 0U)
 8002aa0:	4201      	tst	r1, r0
 8002aa2:	d125      	bne.n	8002af0 <HAL_UART_Transmit_DMA+0x7c>
    __HAL_LOCK(huart);
 8002aa4:	002e      	movs	r6, r5
 8002aa6:	3668      	adds	r6, #104	; 0x68
 8002aa8:	7834      	ldrb	r4, [r6, #0]
    return HAL_BUSY;
 8002aaa:	2002      	movs	r0, #2
    __HAL_LOCK(huart);
 8002aac:	2c01      	cmp	r4, #1
 8002aae:	d01f      	beq.n	8002af0 <HAL_UART_Transmit_DMA+0x7c>
 8002ab0:	3801      	subs	r0, #1
 8002ab2:	7030      	strb	r0, [r6, #0]
    huart->TxXferSize = Size;
 8002ab4:	0028      	movs	r0, r5
 8002ab6:	3050      	adds	r0, #80	; 0x50
    huart->pTxBuffPtr = pData;
 8002ab8:	64e9      	str	r1, [r5, #76]	; 0x4c
    huart->ErrorCode = HAL_UART_ERROR_NONE;
 8002aba:	2400      	movs	r4, #0
    huart->TxXferSize = Size;
 8002abc:	8003      	strh	r3, [r0, #0]
    huart->TxXferCount = Size;
 8002abe:	8043      	strh	r3, [r0, #2]
    huart->gState = HAL_UART_STATE_BUSY_TX;
 8002ac0:	2021      	movs	r0, #33	; 0x21
    huart->ErrorCode = HAL_UART_ERROR_NONE;
 8002ac2:	66ec      	str	r4, [r5, #108]	; 0x6c
    huart->gState = HAL_UART_STATE_BUSY_TX;
 8002ac4:	7010      	strb	r0, [r2, #0]
    huart->hdmatx->XferCpltCallback = UART_DMATransmitCplt;
 8002ac6:	6e28      	ldr	r0, [r5, #96]	; 0x60
 8002ac8:	4a0a      	ldr	r2, [pc, #40]	; (8002af4 <HAL_UART_Transmit_DMA+0x80>)
    huart->hdmatx->XferAbortCallback = NULL;
 8002aca:	6344      	str	r4, [r0, #52]	; 0x34
    huart->hdmatx->XferCpltCallback = UART_DMATransmitCplt;
 8002acc:	6282      	str	r2, [r0, #40]	; 0x28
    huart->hdmatx->XferHalfCpltCallback = UART_DMATxHalfCplt;
 8002ace:	4a0a      	ldr	r2, [pc, #40]	; (8002af8 <HAL_UART_Transmit_DMA+0x84>)
 8002ad0:	62c2      	str	r2, [r0, #44]	; 0x2c
    huart->hdmatx->XferErrorCallback = UART_DMAError;
 8002ad2:	4a0a      	ldr	r2, [pc, #40]	; (8002afc <HAL_UART_Transmit_DMA+0x88>)
 8002ad4:	6302      	str	r2, [r0, #48]	; 0x30
    HAL_DMA_Start_IT(huart->hdmatx, (uint32_t)huart->pTxBuffPtr, (uint32_t)&huart->Instance->TDR, Size);
 8002ad6:	682a      	ldr	r2, [r5, #0]
 8002ad8:	3228      	adds	r2, #40	; 0x28
 8002ada:	f7fe f854 	bl	8000b86 <HAL_DMA_Start_IT>
    __HAL_UART_CLEAR_FLAG(huart, UART_CLEAR_TCF);
 8002ade:	2240      	movs	r2, #64	; 0x40
    return HAL_OK;
 8002ae0:	0020      	movs	r0, r4
    __HAL_UART_CLEAR_FLAG(huart, UART_CLEAR_TCF);
 8002ae2:	682b      	ldr	r3, [r5, #0]
 8002ae4:	621a      	str	r2, [r3, #32]
    SET_BIT(huart->Instance->CR3, USART_CR3_DMAT);
 8002ae6:	6899      	ldr	r1, [r3, #8]
 8002ae8:	1892      	adds	r2, r2, r2
 8002aea:	430a      	orrs	r2, r1
    __HAL_UNLOCK(huart);
 8002aec:	7034      	strb	r4, [r6, #0]
    SET_BIT(huart->Instance->CR3, USART_CR3_DMAT);
 8002aee:	609a      	str	r2, [r3, #8]
}
 8002af0:	bd70      	pop	{r4, r5, r6, pc}
 8002af2:	46c0      	nop			; (mov r8, r8)
 8002af4:	08002b65 	.word	0x08002b65
 8002af8:	08002b97 	.word	0x08002b97
 8002afc:	08002ba1 	.word	0x08002ba1

08002b00 <HAL_UART_DMAStop>:
{
 8002b00:	b570      	push	{r4, r5, r6, lr}
  if ((huart->gState == HAL_UART_STATE_BUSY_TX) &&
 8002b02:	0005      	movs	r5, r0
 8002b04:	3569      	adds	r5, #105	; 0x69
 8002b06:	782b      	ldrb	r3, [r5, #0]
{
 8002b08:	0004      	movs	r4, r0
  if ((huart->gState == HAL_UART_STATE_BUSY_TX) &&
 8002b0a:	2b21      	cmp	r3, #33	; 0x21
 8002b0c:	d113      	bne.n	8002b36 <HAL_UART_DMAStop+0x36>
      (HAL_IS_BIT_SET(huart->Instance->CR3, USART_CR3_DMAT)))
 8002b0e:	2180      	movs	r1, #128	; 0x80
 8002b10:	6803      	ldr	r3, [r0, #0]
 8002b12:	689a      	ldr	r2, [r3, #8]
  if ((huart->gState == HAL_UART_STATE_BUSY_TX) &&
 8002b14:	420a      	tst	r2, r1
 8002b16:	d00e      	beq.n	8002b36 <HAL_UART_DMAStop+0x36>
    CLEAR_BIT(huart->Instance->CR3, USART_CR3_DMAT);
 8002b18:	689a      	ldr	r2, [r3, #8]
    if(huart->hdmatx != NULL)
 8002b1a:	6e00      	ldr	r0, [r0, #96]	; 0x60
    CLEAR_BIT(huart->Instance->CR3, USART_CR3_DMAT);
 8002b1c:	438a      	bics	r2, r1
 8002b1e:	609a      	str	r2, [r3, #8]
    if(huart->hdmatx != NULL)
 8002b20:	2800      	cmp	r0, #0
 8002b22:	d001      	beq.n	8002b28 <HAL_UART_DMAStop+0x28>
      HAL_DMA_Abort(huart->hdmatx);
 8002b24:	f7fe f86a 	bl	8000bfc <HAL_DMA_Abort>
  CLEAR_BIT(huart->Instance->CR1, (USART_CR1_TXEIE | USART_CR1_TCIE));
 8002b28:	21c0      	movs	r1, #192	; 0xc0
 8002b2a:	6822      	ldr	r2, [r4, #0]
 8002b2c:	6813      	ldr	r3, [r2, #0]
 8002b2e:	438b      	bics	r3, r1
 8002b30:	6013      	str	r3, [r2, #0]
  huart->gState = HAL_UART_STATE_READY;
 8002b32:	2320      	movs	r3, #32
 8002b34:	702b      	strb	r3, [r5, #0]
  if ((huart->RxState == HAL_UART_STATE_BUSY_RX) &&
 8002b36:	0023      	movs	r3, r4
 8002b38:	336a      	adds	r3, #106	; 0x6a
 8002b3a:	781b      	ldrb	r3, [r3, #0]
 8002b3c:	2b22      	cmp	r3, #34	; 0x22
 8002b3e:	d10f      	bne.n	8002b60 <HAL_UART_DMAStop+0x60>
      (HAL_IS_BIT_SET(huart->Instance->CR3, USART_CR3_DMAR)))
 8002b40:	2140      	movs	r1, #64	; 0x40
 8002b42:	6823      	ldr	r3, [r4, #0]
 8002b44:	689a      	ldr	r2, [r3, #8]
  if ((huart->RxState == HAL_UART_STATE_BUSY_RX) &&
 8002b46:	420a      	tst	r2, r1
 8002b48:	d00a      	beq.n	8002b60 <HAL_UART_DMAStop+0x60>
    CLEAR_BIT(huart->Instance->CR3, USART_CR3_DMAR);
 8002b4a:	689a      	ldr	r2, [r3, #8]
    if(huart->hdmarx != NULL)
 8002b4c:	6e60      	ldr	r0, [r4, #100]	; 0x64
    CLEAR_BIT(huart->Instance->CR3, USART_CR3_DMAR);
 8002b4e:	438a      	bics	r2, r1
 8002b50:	609a      	str	r2, [r3, #8]
    if(huart->hdmarx != NULL)
 8002b52:	2800      	cmp	r0, #0
 8002b54:	d001      	beq.n	8002b5a <HAL_UART_DMAStop+0x5a>
      HAL_DMA_Abort(huart->hdmarx);
 8002b56:	f7fe f851 	bl	8000bfc <HAL_DMA_Abort>
    UART_EndRxTransfer(huart);
 8002b5a:	0020      	movs	r0, r4
 8002b5c:	f7ff ff7a 	bl	8002a54 <UART_EndRxTransfer>
}
 8002b60:	2000      	movs	r0, #0
 8002b62:	bd70      	pop	{r4, r5, r6, pc}

08002b64 <UART_DMATransmitCplt>:
static void UART_DMATransmitCplt(DMA_HandleTypeDef *hdma)
{
  UART_HandleTypeDef* huart = (UART_HandleTypeDef*)(hdma->Parent);
  
  /* DMA Normal mode */
  if ( HAL_IS_BIT_CLR(hdma->Instance->CCR, DMA_CCR_CIRC) )
 8002b64:	2120      	movs	r1, #32
 8002b66:	6803      	ldr	r3, [r0, #0]
{
 8002b68:	b510      	push	{r4, lr}
  if ( HAL_IS_BIT_CLR(hdma->Instance->CCR, DMA_CCR_CIRC) )
 8002b6a:	681b      	ldr	r3, [r3, #0]
  UART_HandleTypeDef* huart = (UART_HandleTypeDef*)(hdma->Parent);
 8002b6c:	6a42      	ldr	r2, [r0, #36]	; 0x24
  if ( HAL_IS_BIT_CLR(hdma->Instance->CCR, DMA_CCR_CIRC) )
 8002b6e:	400b      	ands	r3, r1
 8002b70:	d10c      	bne.n	8002b8c <UART_DMATransmitCplt+0x28>
  {
    huart->TxXferCount = 0;
 8002b72:	0011      	movs	r1, r2
 8002b74:	3152      	adds	r1, #82	; 0x52
 8002b76:	800b      	strh	r3, [r1, #0]

    /* Disable the DMA transfer for transmit request by resetting the DMAT bit
       in the UART CR3 register */
    CLEAR_BIT(huart->Instance->CR3, USART_CR3_DMAT);
 8002b78:	2180      	movs	r1, #128	; 0x80
 8002b7a:	6813      	ldr	r3, [r2, #0]
 8002b7c:	689a      	ldr	r2, [r3, #8]
 8002b7e:	438a      	bics	r2, r1
 8002b80:	609a      	str	r2, [r3, #8]

    /* Enable the UART Transmit Complete Interrupt */
    SET_BIT(huart->Instance->CR1, USART_CR1_TCIE);
 8002b82:	2240      	movs	r2, #64	; 0x40
 8002b84:	6819      	ldr	r1, [r3, #0]
 8002b86:	430a      	orrs	r2, r1
 8002b88:	601a      	str	r2, [r3, #0]
  else
  {
    HAL_UART_TxCpltCallback(huart);
  }

}
 8002b8a:	bd10      	pop	{r4, pc}
    HAL_UART_TxCpltCallback(huart);
 8002b8c:	0010      	movs	r0, r2
 8002b8e:	f001 f86d 	bl	8003c6c <HAL_UART_TxCpltCallback>
}
 8002b92:	e7fa      	b.n	8002b8a <UART_DMATransmitCplt+0x26>

08002b94 <HAL_UART_TxHalfCpltCallback>:
 8002b94:	4770      	bx	lr

08002b96 <UART_DMATxHalfCplt>:
  * @brief DMA UART transmit process half complete callback.
  * @param hdma DMA handle.
  * @retval None
  */
static void UART_DMATxHalfCplt(DMA_HandleTypeDef *hdma)
{
 8002b96:	b510      	push	{r4, lr}
  UART_HandleTypeDef* huart = (UART_HandleTypeDef*)(hdma->Parent);

  HAL_UART_TxHalfCpltCallback(huart);
 8002b98:	6a40      	ldr	r0, [r0, #36]	; 0x24
 8002b9a:	f7ff fffb 	bl	8002b94 <HAL_UART_TxHalfCpltCallback>
}
 8002b9e:	bd10      	pop	{r4, pc}

08002ba0 <UART_DMAError>:
  * @brief DMA UART communication error callback.
  * @param hdma DMA handle.
  * @retval None
  */
static void UART_DMAError(DMA_HandleTypeDef *hdma)
{
 8002ba0:	b510      	push	{r4, lr}
  UART_HandleTypeDef* huart = (UART_HandleTypeDef*)(hdma->Parent);
 8002ba2:	6a44      	ldr	r4, [r0, #36]	; 0x24

  /* Stop UART DMA Tx request if ongoing */
  if (  (huart->gState == HAL_UART_STATE_BUSY_TX)
 8002ba4:	0021      	movs	r1, r4
 8002ba6:	3169      	adds	r1, #105	; 0x69
 8002ba8:	780b      	ldrb	r3, [r1, #0]
 8002baa:	2b21      	cmp	r3, #33	; 0x21
 8002bac:	d10d      	bne.n	8002bca <UART_DMAError+0x2a>
      &&(HAL_IS_BIT_SET(huart->Instance->CR3, USART_CR3_DMAT)) )
 8002bae:	6823      	ldr	r3, [r4, #0]
 8002bb0:	689a      	ldr	r2, [r3, #8]
 8002bb2:	0612      	lsls	r2, r2, #24
 8002bb4:	d509      	bpl.n	8002bca <UART_DMAError+0x2a>
  {
    huart->TxXferCount = 0U;
 8002bb6:	0022      	movs	r2, r4
 8002bb8:	2000      	movs	r0, #0
 8002bba:	3252      	adds	r2, #82	; 0x52
 8002bbc:	8010      	strh	r0, [r2, #0]
  CLEAR_BIT(huart->Instance->CR1, (USART_CR1_TXEIE | USART_CR1_TCIE));
 8002bbe:	681a      	ldr	r2, [r3, #0]
 8002bc0:	30c0      	adds	r0, #192	; 0xc0
 8002bc2:	4382      	bics	r2, r0
 8002bc4:	601a      	str	r2, [r3, #0]
  huart->gState = HAL_UART_STATE_READY;
 8002bc6:	2320      	movs	r3, #32
 8002bc8:	700b      	strb	r3, [r1, #0]
    UART_EndTxTransfer(huart);
  }

  /* Stop UART DMA Rx request if ongoing */
  if (  (huart->RxState == HAL_UART_STATE_BUSY_RX)
 8002bca:	0023      	movs	r3, r4
 8002bcc:	336a      	adds	r3, #106	; 0x6a
 8002bce:	781b      	ldrb	r3, [r3, #0]
 8002bd0:	2b22      	cmp	r3, #34	; 0x22
 8002bd2:	d10a      	bne.n	8002bea <UART_DMAError+0x4a>
      &&(HAL_IS_BIT_SET(huart->Instance->CR3, USART_CR3_DMAR)) )
 8002bd4:	6823      	ldr	r3, [r4, #0]
 8002bd6:	689b      	ldr	r3, [r3, #8]
 8002bd8:	065b      	lsls	r3, r3, #25
 8002bda:	d506      	bpl.n	8002bea <UART_DMAError+0x4a>
  {
    huart->RxXferCount = 0U;
 8002bdc:	0023      	movs	r3, r4
 8002bde:	2200      	movs	r2, #0
 8002be0:	335a      	adds	r3, #90	; 0x5a
 8002be2:	801a      	strh	r2, [r3, #0]
    UART_EndRxTransfer(huart);
 8002be4:	0020      	movs	r0, r4
 8002be6:	f7ff ff35 	bl	8002a54 <UART_EndRxTransfer>
  }

  huart->ErrorCode |= HAL_UART_ERROR_DMA;
 8002bea:	2310      	movs	r3, #16
 8002bec:	6ee2      	ldr	r2, [r4, #108]	; 0x6c
  HAL_UART_ErrorCallback(huart);
 8002bee:	0020      	movs	r0, r4
  huart->ErrorCode |= HAL_UART_ERROR_DMA;
 8002bf0:	4313      	orrs	r3, r2
 8002bf2:	66e3      	str	r3, [r4, #108]	; 0x6c
  HAL_UART_ErrorCallback(huart);
 8002bf4:	f001 f83c 	bl	8003c70 <HAL_UART_ErrorCallback>
}
 8002bf8:	bd10      	pop	{r4, pc}

08002bfa <UART_DMAAbortOnError>:
  * @param  hdma DMA handle.
  * @retval None
  */
static void UART_DMAAbortOnError(DMA_HandleTypeDef *hdma)
{
  UART_HandleTypeDef* huart = (UART_HandleTypeDef*)(hdma->Parent);
 8002bfa:	6a40      	ldr	r0, [r0, #36]	; 0x24
  huart->RxXferCount = 0U;
 8002bfc:	2300      	movs	r3, #0
 8002bfe:	0002      	movs	r2, r0
{
 8002c00:	b510      	push	{r4, lr}
  huart->RxXferCount = 0U;
 8002c02:	325a      	adds	r2, #90	; 0x5a
 8002c04:	8013      	strh	r3, [r2, #0]
  huart->TxXferCount = 0U;
 8002c06:	3a08      	subs	r2, #8
 8002c08:	8013      	strh	r3, [r2, #0]

  HAL_UART_ErrorCallback(huart);
 8002c0a:	f001 f831 	bl	8003c70 <HAL_UART_ErrorCallback>
}
 8002c0e:	bd10      	pop	{r4, pc}

08002c10 <UART_Transmit_IT>:
HAL_StatusTypeDef UART_Transmit_IT(UART_HandleTypeDef *huart)
{
  uint16_t* tmp;

  /* Check that a Tx process is ongoing */
  if (huart->gState == HAL_UART_STATE_BUSY_TX)
 8002c10:	0003      	movs	r3, r0
{
 8002c12:	b530      	push	{r4, r5, lr}
  if (huart->gState == HAL_UART_STATE_BUSY_TX)
 8002c14:	3369      	adds	r3, #105	; 0x69
 8002c16:	781b      	ldrb	r3, [r3, #0]
{
 8002c18:	0002      	movs	r2, r0
      return HAL_OK;
    }
  }
  else
  {
    return HAL_BUSY;
 8002c1a:	2002      	movs	r0, #2
  if (huart->gState == HAL_UART_STATE_BUSY_TX)
 8002c1c:	2b21      	cmp	r3, #33	; 0x21
 8002c1e:	d10f      	bne.n	8002c40 <UART_Transmit_IT+0x30>
    if(huart->TxXferCount == 0U)
 8002c20:	0014      	movs	r4, r2
 8002c22:	3452      	adds	r4, #82	; 0x52
 8002c24:	8823      	ldrh	r3, [r4, #0]
 8002c26:	6811      	ldr	r1, [r2, #0]
 8002c28:	b29b      	uxth	r3, r3
 8002c2a:	2b00      	cmp	r3, #0
 8002c2c:	d109      	bne.n	8002c42 <UART_Transmit_IT+0x32>
      CLEAR_BIT(huart->Instance->CR1, USART_CR1_TXEIE);
 8002c2e:	680a      	ldr	r2, [r1, #0]
 8002c30:	307e      	adds	r0, #126	; 0x7e
 8002c32:	4382      	bics	r2, r0
 8002c34:	600a      	str	r2, [r1, #0]
      SET_BIT(huart->Instance->CR1, USART_CR1_TCIE);
 8002c36:	2240      	movs	r2, #64	; 0x40
 8002c38:	6808      	ldr	r0, [r1, #0]
 8002c3a:	4302      	orrs	r2, r0
 8002c3c:	600a      	str	r2, [r1, #0]
      return HAL_OK;
 8002c3e:	2000      	movs	r0, #0
  }
}
 8002c40:	bd30      	pop	{r4, r5, pc}
      if ((huart->Init.WordLength == UART_WORDLENGTH_9B) && (huart->Init.Parity == UART_PARITY_NONE))
 8002c42:	2080      	movs	r0, #128	; 0x80
 8002c44:	6895      	ldr	r5, [r2, #8]
 8002c46:	0140      	lsls	r0, r0, #5
 8002c48:	6cd3      	ldr	r3, [r2, #76]	; 0x4c
 8002c4a:	4285      	cmp	r5, r0
 8002c4c:	d10d      	bne.n	8002c6a <UART_Transmit_IT+0x5a>
 8002c4e:	6910      	ldr	r0, [r2, #16]
 8002c50:	2800      	cmp	r0, #0
 8002c52:	d10a      	bne.n	8002c6a <UART_Transmit_IT+0x5a>
        huart->Instance->TDR = (*tmp & (uint16_t)0x01FFU);
 8002c54:	8818      	ldrh	r0, [r3, #0]
        huart->pTxBuffPtr += 2U;
 8002c56:	3302      	adds	r3, #2
        huart->Instance->TDR = (*tmp & (uint16_t)0x01FFU);
 8002c58:	05c0      	lsls	r0, r0, #23
 8002c5a:	0dc0      	lsrs	r0, r0, #23
 8002c5c:	8508      	strh	r0, [r1, #40]	; 0x28
        huart->pTxBuffPtr += 2U;
 8002c5e:	64d3      	str	r3, [r2, #76]	; 0x4c
      huart->TxXferCount--;
 8002c60:	8823      	ldrh	r3, [r4, #0]
 8002c62:	3b01      	subs	r3, #1
 8002c64:	b29b      	uxth	r3, r3
 8002c66:	8023      	strh	r3, [r4, #0]
 8002c68:	e7e9      	b.n	8002c3e <UART_Transmit_IT+0x2e>
        huart->Instance->TDR = (uint8_t)(*huart->pTxBuffPtr++ & (uint8_t)0xFFU);
 8002c6a:	1c58      	adds	r0, r3, #1
 8002c6c:	64d0      	str	r0, [r2, #76]	; 0x4c
 8002c6e:	781b      	ldrb	r3, [r3, #0]
 8002c70:	850b      	strh	r3, [r1, #40]	; 0x28
 8002c72:	e7f5      	b.n	8002c60 <UART_Transmit_IT+0x50>

08002c74 <UART_EndTransmit_IT>:
  * @retval HAL status
  */
HAL_StatusTypeDef UART_EndTransmit_IT(UART_HandleTypeDef *huart)
{
  /* Disable the UART Transmit Complete Interrupt */
  CLEAR_BIT(huart->Instance->CR1, USART_CR1_TCIE);
 8002c74:	2140      	movs	r1, #64	; 0x40
 8002c76:	6802      	ldr	r2, [r0, #0]
{
 8002c78:	b510      	push	{r4, lr}
  CLEAR_BIT(huart->Instance->CR1, USART_CR1_TCIE);
 8002c7a:	6813      	ldr	r3, [r2, #0]
 8002c7c:	438b      	bics	r3, r1
 8002c7e:	6013      	str	r3, [r2, #0]

  /* Tx process is ended, restore huart->gState to Ready */
  huart->gState = HAL_UART_STATE_READY;
 8002c80:	0003      	movs	r3, r0
 8002c82:	2220      	movs	r2, #32
 8002c84:	3369      	adds	r3, #105	; 0x69
 8002c86:	701a      	strb	r2, [r3, #0]

  HAL_UART_TxCpltCallback(huart);
 8002c88:	f000 fff0 	bl	8003c6c <HAL_UART_TxCpltCallback>

  return HAL_OK;
}
 8002c8c:	2000      	movs	r0, #0
 8002c8e:	bd10      	pop	{r4, pc}

08002c90 <UART_Receive_IT>:
  uint16_t* tmp;
  uint16_t  uhMask = huart->Mask;
  uint16_t  uhdata;

  /* Check that a Rx process is ongoing */
  if(huart->RxState == HAL_UART_STATE_BUSY_RX)
 8002c90:	0002      	movs	r2, r0
{
 8002c92:	b570      	push	{r4, r5, r6, lr}
  if(huart->RxState == HAL_UART_STATE_BUSY_RX)
 8002c94:	326a      	adds	r2, #106	; 0x6a
 8002c96:	7811      	ldrb	r1, [r2, #0]
 8002c98:	6803      	ldr	r3, [r0, #0]
 8002c9a:	2922      	cmp	r1, #34	; 0x22
 8002c9c:	d12d      	bne.n	8002cfa <UART_Receive_IT+0x6a>
  uint16_t  uhMask = huart->Mask;
 8002c9e:	0001      	movs	r1, r0
  {
    uhdata = (uint16_t) READ_REG(huart->Instance->RDR);
    if ((huart->Init.WordLength == UART_WORDLENGTH_9B) && (huart->Init.Parity == UART_PARITY_NONE))
 8002ca0:	2480      	movs	r4, #128	; 0x80
  uint16_t  uhMask = huart->Mask;
 8002ca2:	315c      	adds	r1, #92	; 0x5c
 8002ca4:	880d      	ldrh	r5, [r1, #0]
    uhdata = (uint16_t) READ_REG(huart->Instance->RDR);
 8002ca6:	8c99      	ldrh	r1, [r3, #36]	; 0x24
    if ((huart->Init.WordLength == UART_WORDLENGTH_9B) && (huart->Init.Parity == UART_PARITY_NONE))
 8002ca8:	0164      	lsls	r4, r4, #5
 8002caa:	4029      	ands	r1, r5
 8002cac:	6885      	ldr	r5, [r0, #8]
 8002cae:	6d43      	ldr	r3, [r0, #84]	; 0x54
 8002cb0:	42a5      	cmp	r5, r4
 8002cb2:	d11e      	bne.n	8002cf2 <UART_Receive_IT+0x62>
 8002cb4:	6904      	ldr	r4, [r0, #16]
 8002cb6:	2c00      	cmp	r4, #0
 8002cb8:	d11b      	bne.n	8002cf2 <UART_Receive_IT+0x62>
    {
      tmp = (uint16_t*) huart->pRxBuffPtr ;
      *tmp = (uint16_t)(uhdata & uhMask);
 8002cba:	8019      	strh	r1, [r3, #0]
      huart->pRxBuffPtr +=2U;
 8002cbc:	3302      	adds	r3, #2
 8002cbe:	6543      	str	r3, [r0, #84]	; 0x54
    else
    {
      *huart->pRxBuffPtr++ = (uint8_t)(uhdata & (uint8_t)uhMask);
    }

    if(--huart->RxXferCount == 0U)
 8002cc0:	0001      	movs	r1, r0
      HAL_UART_RxCpltCallback(huart);

      return HAL_OK;
    }

    return HAL_OK;
 8002cc2:	2400      	movs	r4, #0
    if(--huart->RxXferCount == 0U)
 8002cc4:	315a      	adds	r1, #90	; 0x5a
 8002cc6:	880b      	ldrh	r3, [r1, #0]
 8002cc8:	3b01      	subs	r3, #1
 8002cca:	b29b      	uxth	r3, r3
 8002ccc:	800b      	strh	r3, [r1, #0]
 8002cce:	42a3      	cmp	r3, r4
 8002cd0:	d10d      	bne.n	8002cee <UART_Receive_IT+0x5e>
      CLEAR_BIT(huart->Instance->CR1, (USART_CR1_RXNEIE | USART_CR1_PEIE));
 8002cd2:	6803      	ldr	r3, [r0, #0]
 8002cd4:	4d0c      	ldr	r5, [pc, #48]	; (8002d08 <UART_Receive_IT+0x78>)
 8002cd6:	6819      	ldr	r1, [r3, #0]
 8002cd8:	4029      	ands	r1, r5
 8002cda:	6019      	str	r1, [r3, #0]
      CLEAR_BIT(huart->Instance->CR3, USART_CR3_EIE);
 8002cdc:	6899      	ldr	r1, [r3, #8]
 8002cde:	3523      	adds	r5, #35	; 0x23
 8002ce0:	35ff      	adds	r5, #255	; 0xff
 8002ce2:	43a9      	bics	r1, r5
 8002ce4:	6099      	str	r1, [r3, #8]
      huart->RxState = HAL_UART_STATE_READY;
 8002ce6:	2320      	movs	r3, #32
 8002ce8:	7013      	strb	r3, [r2, #0]
      HAL_UART_RxCpltCallback(huart);
 8002cea:	f000 ffdd 	bl	8003ca8 <HAL_UART_RxCpltCallback>
    /* Clear RXNE interrupt flag */
    __HAL_UART_SEND_REQ(huart, UART_RXDATA_FLUSH_REQUEST);

    return HAL_BUSY;
  }
}
 8002cee:	0020      	movs	r0, r4
 8002cf0:	bd70      	pop	{r4, r5, r6, pc}
      *huart->pRxBuffPtr++ = (uint8_t)(uhdata & (uint8_t)uhMask);
 8002cf2:	1c5c      	adds	r4, r3, #1
 8002cf4:	6544      	str	r4, [r0, #84]	; 0x54
 8002cf6:	7019      	strb	r1, [r3, #0]
 8002cf8:	e7e2      	b.n	8002cc0 <UART_Receive_IT+0x30>
    __HAL_UART_SEND_REQ(huart, UART_RXDATA_FLUSH_REQUEST);
 8002cfa:	2208      	movs	r2, #8
 8002cfc:	6999      	ldr	r1, [r3, #24]
    return HAL_BUSY;
 8002cfe:	2402      	movs	r4, #2
    __HAL_UART_SEND_REQ(huart, UART_RXDATA_FLUSH_REQUEST);
 8002d00:	430a      	orrs	r2, r1
 8002d02:	619a      	str	r2, [r3, #24]
    return HAL_BUSY;
 8002d04:	e7f3      	b.n	8002cee <UART_Receive_IT+0x5e>
 8002d06:	46c0      	nop			; (mov r8, r8)
 8002d08:	fffffedf 	.word	0xfffffedf

08002d0c <HAL_UART_IRQHandler>:
  errorflags = (isrflags & (uint32_t)(USART_ISR_PE | USART_ISR_FE | USART_ISR_ORE | USART_ISR_NE));
 8002d0c:	210f      	movs	r1, #15
  uint32_t isrflags   = READ_REG(huart->Instance->ISR);
 8002d0e:	6802      	ldr	r2, [r0, #0]
{
 8002d10:	b5f8      	push	{r3, r4, r5, r6, r7, lr}
  uint32_t isrflags   = READ_REG(huart->Instance->ISR);
 8002d12:	69d3      	ldr	r3, [r2, #28]
{
 8002d14:	0004      	movs	r4, r0
  errorflags = (isrflags & (uint32_t)(USART_ISR_PE | USART_ISR_FE | USART_ISR_ORE | USART_ISR_NE));
 8002d16:	4019      	ands	r1, r3
  uint32_t cr1its     = READ_REG(huart->Instance->CR1);
 8002d18:	6810      	ldr	r0, [r2, #0]
  if (errorflags == RESET)
 8002d1a:	d108      	bne.n	8002d2e <HAL_UART_IRQHandler+0x22>
    if(((isrflags & USART_ISR_RXNE) != RESET) && ((cr1its & USART_CR1_RXNEIE) != RESET))
 8002d1c:	2520      	movs	r5, #32
 8002d1e:	422b      	tst	r3, r5
 8002d20:	d005      	beq.n	8002d2e <HAL_UART_IRQHandler+0x22>
 8002d22:	4228      	tst	r0, r5
 8002d24:	d003      	beq.n	8002d2e <HAL_UART_IRQHandler+0x22>
      UART_Receive_IT(huart);
 8002d26:	0020      	movs	r0, r4
 8002d28:	f7ff ffb2 	bl	8002c90 <UART_Receive_IT>
}
 8002d2c:	bdf8      	pop	{r3, r4, r5, r6, r7, pc}
  cr3its = READ_REG(huart->Instance->CR3);
 8002d2e:	6896      	ldr	r6, [r2, #8]
  if(   (errorflags != RESET)
 8002d30:	2900      	cmp	r1, #0
 8002d32:	d061      	beq.n	8002df8 <HAL_UART_IRQHandler+0xec>
     && (   ((cr3its & USART_CR3_EIE) != RESET)
 8002d34:	2101      	movs	r1, #1
 8002d36:	0035      	movs	r5, r6
 8002d38:	400d      	ands	r5, r1
 8002d3a:	d103      	bne.n	8002d44 <HAL_UART_IRQHandler+0x38>
         || ((cr1its & (USART_CR1_RXNEIE | USART_CR1_PEIE)) != RESET)) )
 8002d3c:	2790      	movs	r7, #144	; 0x90
 8002d3e:	007f      	lsls	r7, r7, #1
 8002d40:	4238      	tst	r0, r7
 8002d42:	d059      	beq.n	8002df8 <HAL_UART_IRQHandler+0xec>
    if(((isrflags & USART_ISR_PE) != RESET) && ((cr1its & USART_CR1_PEIE) != RESET))
 8002d44:	420b      	tst	r3, r1
 8002d46:	d005      	beq.n	8002d54 <HAL_UART_IRQHandler+0x48>
 8002d48:	05c6      	lsls	r6, r0, #23
 8002d4a:	d503      	bpl.n	8002d54 <HAL_UART_IRQHandler+0x48>
      __HAL_UART_CLEAR_IT(huart, UART_CLEAR_PEF);
 8002d4c:	6211      	str	r1, [r2, #32]
      huart->ErrorCode |= HAL_UART_ERROR_PE;
 8002d4e:	6ee6      	ldr	r6, [r4, #108]	; 0x6c
 8002d50:	4331      	orrs	r1, r6
 8002d52:	66e1      	str	r1, [r4, #108]	; 0x6c
    if(((isrflags & USART_ISR_FE) != RESET) && ((cr3its & USART_CR3_EIE) != RESET))
 8002d54:	2102      	movs	r1, #2
 8002d56:	420b      	tst	r3, r1
 8002d58:	d006      	beq.n	8002d68 <HAL_UART_IRQHandler+0x5c>
 8002d5a:	2d00      	cmp	r5, #0
 8002d5c:	d004      	beq.n	8002d68 <HAL_UART_IRQHandler+0x5c>
      __HAL_UART_CLEAR_IT(huart, UART_CLEAR_FEF);
 8002d5e:	6211      	str	r1, [r2, #32]
      huart->ErrorCode |= HAL_UART_ERROR_FE;
 8002d60:	6ee6      	ldr	r6, [r4, #108]	; 0x6c
 8002d62:	1849      	adds	r1, r1, r1
 8002d64:	4331      	orrs	r1, r6
 8002d66:	66e1      	str	r1, [r4, #108]	; 0x6c
    if(((isrflags & USART_ISR_NE) != RESET) && ((cr3its & USART_CR3_EIE) != RESET))
 8002d68:	2104      	movs	r1, #4
 8002d6a:	420b      	tst	r3, r1
 8002d6c:	d006      	beq.n	8002d7c <HAL_UART_IRQHandler+0x70>
 8002d6e:	2d00      	cmp	r5, #0
 8002d70:	d004      	beq.n	8002d7c <HAL_UART_IRQHandler+0x70>
      __HAL_UART_CLEAR_IT(huart, UART_CLEAR_NEF);
 8002d72:	6211      	str	r1, [r2, #32]
      huart->ErrorCode |= HAL_UART_ERROR_NE;
 8002d74:	6ee6      	ldr	r6, [r4, #108]	; 0x6c
 8002d76:	3902      	subs	r1, #2
 8002d78:	4331      	orrs	r1, r6
 8002d7a:	66e1      	str	r1, [r4, #108]	; 0x6c
    if(((isrflags & USART_ISR_ORE) != RESET) &&
 8002d7c:	0719      	lsls	r1, r3, #28
 8002d7e:	d508      	bpl.n	8002d92 <HAL_UART_IRQHandler+0x86>
 8002d80:	0681      	lsls	r1, r0, #26
 8002d82:	d401      	bmi.n	8002d88 <HAL_UART_IRQHandler+0x7c>
       (((cr1its & USART_CR1_RXNEIE) != RESET) || ((cr3its & USART_CR3_EIE) != RESET)))
 8002d84:	2d00      	cmp	r5, #0
 8002d86:	d004      	beq.n	8002d92 <HAL_UART_IRQHandler+0x86>
      __HAL_UART_CLEAR_IT(huart, UART_CLEAR_OREF);
 8002d88:	2108      	movs	r1, #8
 8002d8a:	6211      	str	r1, [r2, #32]
      huart->ErrorCode |= HAL_UART_ERROR_ORE;
 8002d8c:	6ee2      	ldr	r2, [r4, #108]	; 0x6c
 8002d8e:	4311      	orrs	r1, r2
 8002d90:	66e1      	str	r1, [r4, #108]	; 0x6c
    if(huart->ErrorCode != HAL_UART_ERROR_NONE)
 8002d92:	6ee2      	ldr	r2, [r4, #108]	; 0x6c
 8002d94:	2a00      	cmp	r2, #0
 8002d96:	d0c9      	beq.n	8002d2c <HAL_UART_IRQHandler+0x20>
      if(((isrflags & USART_ISR_RXNE) != RESET) && ((cr1its & USART_CR1_RXNEIE) != RESET))
 8002d98:	2220      	movs	r2, #32
 8002d9a:	4213      	tst	r3, r2
 8002d9c:	d004      	beq.n	8002da8 <HAL_UART_IRQHandler+0x9c>
 8002d9e:	4210      	tst	r0, r2
 8002da0:	d002      	beq.n	8002da8 <HAL_UART_IRQHandler+0x9c>
        UART_Receive_IT(huart);
 8002da2:	0020      	movs	r0, r4
 8002da4:	f7ff ff74 	bl	8002c90 <UART_Receive_IT>
      if (((huart->ErrorCode & HAL_UART_ERROR_ORE) != RESET) ||
 8002da8:	6ee3      	ldr	r3, [r4, #108]	; 0x6c
        UART_EndRxTransfer(huart);
 8002daa:	0020      	movs	r0, r4
      if (((huart->ErrorCode & HAL_UART_ERROR_ORE) != RESET) ||
 8002dac:	071b      	lsls	r3, r3, #28
 8002dae:	d404      	bmi.n	8002dba <HAL_UART_IRQHandler+0xae>
          (HAL_IS_BIT_SET(huart->Instance->CR3, USART_CR3_DMAR)))
 8002db0:	6823      	ldr	r3, [r4, #0]
 8002db2:	689d      	ldr	r5, [r3, #8]
 8002db4:	2340      	movs	r3, #64	; 0x40
 8002db6:	401d      	ands	r5, r3
      if (((huart->ErrorCode & HAL_UART_ERROR_ORE) != RESET) ||
 8002db8:	d01a      	beq.n	8002df0 <HAL_UART_IRQHandler+0xe4>
        UART_EndRxTransfer(huart);
 8002dba:	f7ff fe4b 	bl	8002a54 <UART_EndRxTransfer>
        if (HAL_IS_BIT_SET(huart->Instance->CR3, USART_CR3_DMAR))
 8002dbe:	2140      	movs	r1, #64	; 0x40
 8002dc0:	6823      	ldr	r3, [r4, #0]
 8002dc2:	689a      	ldr	r2, [r3, #8]
 8002dc4:	420a      	tst	r2, r1
 8002dc6:	d00f      	beq.n	8002de8 <HAL_UART_IRQHandler+0xdc>
          CLEAR_BIT(huart->Instance->CR3, USART_CR3_DMAR);
 8002dc8:	689a      	ldr	r2, [r3, #8]
          if(huart->hdmarx != NULL)
 8002dca:	6e60      	ldr	r0, [r4, #100]	; 0x64
          CLEAR_BIT(huart->Instance->CR3, USART_CR3_DMAR);
 8002dcc:	438a      	bics	r2, r1
 8002dce:	609a      	str	r2, [r3, #8]
          if(huart->hdmarx != NULL)
 8002dd0:	2800      	cmp	r0, #0
 8002dd2:	d009      	beq.n	8002de8 <HAL_UART_IRQHandler+0xdc>
            huart->hdmarx->XferAbortCallback = UART_DMAAbortOnError;
 8002dd4:	4b1a      	ldr	r3, [pc, #104]	; (8002e40 <HAL_UART_IRQHandler+0x134>)
 8002dd6:	6343      	str	r3, [r0, #52]	; 0x34
            if(HAL_DMA_Abort_IT(huart->hdmarx) != HAL_OK)
 8002dd8:	f7fd ff25 	bl	8000c26 <HAL_DMA_Abort_IT>
 8002ddc:	2800      	cmp	r0, #0
 8002dde:	d0a5      	beq.n	8002d2c <HAL_UART_IRQHandler+0x20>
              huart->hdmarx->XferAbortCallback(huart->hdmarx);
 8002de0:	6e60      	ldr	r0, [r4, #100]	; 0x64
 8002de2:	6b43      	ldr	r3, [r0, #52]	; 0x34
 8002de4:	4798      	blx	r3
 8002de6:	e7a1      	b.n	8002d2c <HAL_UART_IRQHandler+0x20>
            HAL_UART_ErrorCallback(huart);
 8002de8:	0020      	movs	r0, r4
 8002dea:	f000 ff41 	bl	8003c70 <HAL_UART_ErrorCallback>
 8002dee:	e79d      	b.n	8002d2c <HAL_UART_IRQHandler+0x20>
        HAL_UART_ErrorCallback(huart);
 8002df0:	f000 ff3e 	bl	8003c70 <HAL_UART_ErrorCallback>
        huart->ErrorCode = HAL_UART_ERROR_NONE;
 8002df4:	66e5      	str	r5, [r4, #108]	; 0x6c
 8002df6:	e799      	b.n	8002d2c <HAL_UART_IRQHandler+0x20>
  if(((isrflags & USART_ISR_WUF) != RESET) && ((cr3its & USART_CR3_WUFIE) != RESET))
 8002df8:	2180      	movs	r1, #128	; 0x80
 8002dfa:	0349      	lsls	r1, r1, #13
 8002dfc:	420b      	tst	r3, r1
 8002dfe:	d00b      	beq.n	8002e18 <HAL_UART_IRQHandler+0x10c>
 8002e00:	0275      	lsls	r5, r6, #9
 8002e02:	d509      	bpl.n	8002e18 <HAL_UART_IRQHandler+0x10c>
    __HAL_UART_CLEAR_IT(huart, UART_CLEAR_WUF);
 8002e04:	6211      	str	r1, [r2, #32]
    huart->gState  = HAL_UART_STATE_READY;
 8002e06:	0022      	movs	r2, r4
 8002e08:	2320      	movs	r3, #32
 8002e0a:	3269      	adds	r2, #105	; 0x69
 8002e0c:	7013      	strb	r3, [r2, #0]
    HAL_UARTEx_WakeupCallback(huart);
 8002e0e:	0020      	movs	r0, r4
    huart->RxState = HAL_UART_STATE_READY;
 8002e10:	7053      	strb	r3, [r2, #1]
    HAL_UARTEx_WakeupCallback(huart);
 8002e12:	f000 f817 	bl	8002e44 <HAL_UARTEx_WakeupCallback>
    return;
 8002e16:	e789      	b.n	8002d2c <HAL_UART_IRQHandler+0x20>
  if(((isrflags & USART_ISR_TXE) != RESET) && ((cr1its & USART_CR1_TXEIE) != RESET))
 8002e18:	2280      	movs	r2, #128	; 0x80
 8002e1a:	4213      	tst	r3, r2
 8002e1c:	d005      	beq.n	8002e2a <HAL_UART_IRQHandler+0x11e>
 8002e1e:	4210      	tst	r0, r2
 8002e20:	d003      	beq.n	8002e2a <HAL_UART_IRQHandler+0x11e>
    UART_Transmit_IT(huart);
 8002e22:	0020      	movs	r0, r4
 8002e24:	f7ff fef4 	bl	8002c10 <UART_Transmit_IT>
    return;
 8002e28:	e780      	b.n	8002d2c <HAL_UART_IRQHandler+0x20>
  if(((isrflags & USART_ISR_TC) != RESET) && ((cr1its & USART_CR1_TCIE) != RESET))
 8002e2a:	2240      	movs	r2, #64	; 0x40
 8002e2c:	4213      	tst	r3, r2
 8002e2e:	d100      	bne.n	8002e32 <HAL_UART_IRQHandler+0x126>
 8002e30:	e77c      	b.n	8002d2c <HAL_UART_IRQHandler+0x20>
 8002e32:	4210      	tst	r0, r2
 8002e34:	d100      	bne.n	8002e38 <HAL_UART_IRQHandler+0x12c>
 8002e36:	e779      	b.n	8002d2c <HAL_UART_IRQHandler+0x20>
    UART_EndTransmit_IT(huart);
 8002e38:	0020      	movs	r0, r4
 8002e3a:	f7ff ff1b 	bl	8002c74 <UART_EndTransmit_IT>
    return;
 8002e3e:	e775      	b.n	8002d2c <HAL_UART_IRQHandler+0x20>
 8002e40:	08002bfb 	.word	0x08002bfb

08002e44 <HAL_UARTEx_WakeupCallback>:
  UNUSED(huart);

  /* NOTE : This function should not be modified, when the callback is needed,
            the HAL_UARTEx_WakeupCallback can be implemented in the user file.
   */
}
 8002e44:	4770      	bx	lr

08002e46 <USBD_CDC_DataIn>:
  * @param  epnum: endpoint number
  * @retval status
  */
static uint8_t  USBD_CDC_DataIn (USBD_HandleTypeDef *pdev, uint8_t epnum)
{
  USBD_CDC_HandleTypeDef   *hcdc = (USBD_CDC_HandleTypeDef*) pdev->pClassData;
 8002e46:	2386      	movs	r3, #134	; 0x86
 8002e48:	009b      	lsls	r3, r3, #2
 8002e4a:	58c3      	ldr	r3, [r0, r3]
  
  if(pdev->pClassData != NULL)
 8002e4c:	2b00      	cmp	r3, #0
 8002e4e:	d005      	beq.n	8002e5c <USBD_CDC_DataIn+0x16>
  {
    
    hcdc->TxState = 0;
 8002e50:	2100      	movs	r1, #0
 8002e52:	2285      	movs	r2, #133	; 0x85
 8002e54:	0092      	lsls	r2, r2, #2
 8002e56:	5099      	str	r1, [r3, r2]

    return USBD_OK;
 8002e58:	2000      	movs	r0, #0
  }
  else
  {
    return USBD_FAIL;
  }
}
 8002e5a:	4770      	bx	lr
    return USBD_FAIL;
 8002e5c:	2002      	movs	r0, #2
 8002e5e:	e7fc      	b.n	8002e5a <USBD_CDC_DataIn+0x14>

08002e60 <USBD_CDC_EP0_RxReady>:
  * @param  pdev: device instance
  * @param  epnum: endpoint number
  * @retval status
  */
static uint8_t  USBD_CDC_EP0_RxReady (USBD_HandleTypeDef *pdev)
{ 
 8002e60:	b510      	push	{r4, lr}
  USBD_CDC_HandleTypeDef   *hcdc = (USBD_CDC_HandleTypeDef*) pdev->pClassData;
 8002e62:	2386      	movs	r3, #134	; 0x86
 8002e64:	009b      	lsls	r3, r3, #2
 8002e66:	58c4      	ldr	r4, [r0, r3]
  
  if((pdev->pUserData != NULL) && (hcdc->CmdOpCode != 0xFF))
 8002e68:	3304      	adds	r3, #4
 8002e6a:	58c3      	ldr	r3, [r0, r3]
 8002e6c:	2b00      	cmp	r3, #0
 8002e6e:	d00d      	beq.n	8002e8c <USBD_CDC_EP0_RxReady+0x2c>
 8002e70:	2280      	movs	r2, #128	; 0x80
 8002e72:	0092      	lsls	r2, r2, #2
 8002e74:	5ca0      	ldrb	r0, [r4, r2]
 8002e76:	28ff      	cmp	r0, #255	; 0xff
 8002e78:	d008      	beq.n	8002e8c <USBD_CDC_EP0_RxReady+0x2c>
  {
    ((USBD_CDC_ItfTypeDef *)pdev->pUserData)->Control(hcdc->CmdOpCode,
 8002e7a:	689b      	ldr	r3, [r3, #8]
 8002e7c:	4a04      	ldr	r2, [pc, #16]	; (8002e90 <USBD_CDC_EP0_RxReady+0x30>)
 8002e7e:	5ca2      	ldrb	r2, [r4, r2]
 8002e80:	0021      	movs	r1, r4
 8002e82:	4798      	blx	r3
                                                      (uint8_t *)hcdc->data,
                                                      hcdc->CmdLength);
      hcdc->CmdOpCode = 0xFF; 
 8002e84:	22ff      	movs	r2, #255	; 0xff
 8002e86:	2380      	movs	r3, #128	; 0x80
 8002e88:	009b      	lsls	r3, r3, #2
 8002e8a:	54e2      	strb	r2, [r4, r3]
      
  }
  return USBD_OK;
}
 8002e8c:	2000      	movs	r0, #0
 8002e8e:	bd10      	pop	{r4, pc}
 8002e90:	00000201 	.word	0x00000201

08002e94 <USBD_CDC_GetFSCfgDesc>:
  * @param  length : pointer data length
  * @retval pointer to descriptor buffer
  */
static uint8_t  *USBD_CDC_GetFSCfgDesc (uint16_t *length)
{
  *length = sizeof (USBD_CDC_CfgFSDesc);
 8002e94:	2343      	movs	r3, #67	; 0x43
 8002e96:	8003      	strh	r3, [r0, #0]
  return USBD_CDC_CfgFSDesc;
}
 8002e98:	4800      	ldr	r0, [pc, #0]	; (8002e9c <USBD_CDC_GetFSCfgDesc+0x8>)
 8002e9a:	4770      	bx	lr
 8002e9c:	20000038 	.word	0x20000038

08002ea0 <USBD_CDC_GetHSCfgDesc>:
  * @param  length : pointer data length
  * @retval pointer to descriptor buffer
  */
static uint8_t  *USBD_CDC_GetHSCfgDesc (uint16_t *length)
{
  *length = sizeof (USBD_CDC_CfgHSDesc);
 8002ea0:	2343      	movs	r3, #67	; 0x43
 8002ea2:	8003      	strh	r3, [r0, #0]
  return USBD_CDC_CfgHSDesc;
}
 8002ea4:	4800      	ldr	r0, [pc, #0]	; (8002ea8 <USBD_CDC_GetHSCfgDesc+0x8>)
 8002ea6:	4770      	bx	lr
 8002ea8:	2000007c 	.word	0x2000007c

08002eac <USBD_CDC_GetOtherSpeedCfgDesc>:
  * @param  length : pointer data length
  * @retval pointer to descriptor buffer
  */
static uint8_t  *USBD_CDC_GetOtherSpeedCfgDesc (uint16_t *length)
{
  *length = sizeof (USBD_CDC_OtherSpeedCfgDesc);
 8002eac:	2343      	movs	r3, #67	; 0x43
 8002eae:	8003      	strh	r3, [r0, #0]
  return USBD_CDC_OtherSpeedCfgDesc;
}
 8002eb0:	4800      	ldr	r0, [pc, #0]	; (8002eb4 <USBD_CDC_GetOtherSpeedCfgDesc+0x8>)
 8002eb2:	4770      	bx	lr
 8002eb4:	200000cc 	.word	0x200000cc

08002eb8 <USBD_CDC_GetDeviceQualifierDescriptor>:
* @param  length : pointer data length
* @retval pointer to descriptor buffer
*/
uint8_t  *USBD_CDC_GetDeviceQualifierDescriptor (uint16_t *length)
{
  *length = sizeof (USBD_CDC_DeviceQualifierDesc);
 8002eb8:	230a      	movs	r3, #10
 8002eba:	8003      	strh	r3, [r0, #0]
  return USBD_CDC_DeviceQualifierDesc;
}
 8002ebc:	4800      	ldr	r0, [pc, #0]	; (8002ec0 <USBD_CDC_GetDeviceQualifierDescriptor+0x8>)
 8002ebe:	4770      	bx	lr
 8002ec0:	200000c0 	.word	0x200000c0

08002ec4 <USBD_CDC_DataOut>:
{      
 8002ec4:	b570      	push	{r4, r5, r6, lr}
 8002ec6:	0004      	movs	r4, r0
  USBD_CDC_HandleTypeDef   *hcdc = (USBD_CDC_HandleTypeDef*) pdev->pClassData;
 8002ec8:	2686      	movs	r6, #134	; 0x86
 8002eca:	00b6      	lsls	r6, r6, #2
 8002ecc:	5985      	ldr	r5, [r0, r6]
  hcdc->RxLength = USBD_LL_GetRxDataSize (pdev, epnum);
 8002ece:	f001 fe24 	bl	8004b1a <USBD_LL_GetRxDataSize>
 8002ed2:	2383      	movs	r3, #131	; 0x83
 8002ed4:	009b      	lsls	r3, r3, #2
 8002ed6:	50e8      	str	r0, [r5, r3]
  if(pdev->pClassData != NULL)
 8002ed8:	59a3      	ldr	r3, [r4, r6]
 8002eda:	2b00      	cmp	r3, #0
 8002edc:	d00b      	beq.n	8002ef6 <USBD_CDC_DataOut+0x32>
    ((USBD_CDC_ItfTypeDef *)pdev->pUserData)->Receive(hcdc->RxBuffer, &hcdc->RxLength);
 8002ede:	2387      	movs	r3, #135	; 0x87
 8002ee0:	009b      	lsls	r3, r3, #2
 8002ee2:	58e3      	ldr	r3, [r4, r3]
 8002ee4:	68db      	ldr	r3, [r3, #12]
 8002ee6:	2283      	movs	r2, #131	; 0x83
 8002ee8:	0092      	lsls	r2, r2, #2
 8002eea:	18a9      	adds	r1, r5, r2
 8002eec:	3a08      	subs	r2, #8
 8002eee:	58a8      	ldr	r0, [r5, r2]
 8002ef0:	4798      	blx	r3
    return USBD_OK;
 8002ef2:	2000      	movs	r0, #0
}
 8002ef4:	bd70      	pop	{r4, r5, r6, pc}
    return USBD_FAIL;
 8002ef6:	2002      	movs	r0, #2
 8002ef8:	e7fc      	b.n	8002ef4 <USBD_CDC_DataOut+0x30>
	...

08002efc <USBD_CDC_Setup>:
{
 8002efc:	b570      	push	{r4, r5, r6, lr}
 8002efe:	0005      	movs	r5, r0
 8002f00:	000c      	movs	r4, r1
  USBD_CDC_HandleTypeDef   *hcdc = (USBD_CDC_HandleTypeDef*) pdev->pClassData;
 8002f02:	2386      	movs	r3, #134	; 0x86
 8002f04:	009b      	lsls	r3, r3, #2
 8002f06:	58c6      	ldr	r6, [r0, r3]
  switch (req->bmRequest & USB_REQ_TYPE_MASK)
 8002f08:	7809      	ldrb	r1, [r1, #0]
 8002f0a:	3bb9      	subs	r3, #185	; 0xb9
 8002f0c:	3bff      	subs	r3, #255	; 0xff
 8002f0e:	400b      	ands	r3, r1
 8002f10:	d029      	beq.n	8002f66 <USBD_CDC_Setup+0x6a>
 8002f12:	2b20      	cmp	r3, #32
 8002f14:	d12a      	bne.n	8002f6c <USBD_CDC_Setup+0x70>
    if (req->wLength)
 8002f16:	88e2      	ldrh	r2, [r4, #6]
 8002f18:	2a00      	cmp	r2, #0
 8002f1a:	d01b      	beq.n	8002f54 <USBD_CDC_Setup+0x58>
      if (req->bmRequest & 0x80)
 8002f1c:	b249      	sxtb	r1, r1
 8002f1e:	2900      	cmp	r1, #0
 8002f20:	db0b      	blt.n	8002f3a <USBD_CDC_Setup+0x3e>
        hcdc->CmdOpCode = req->bRequest;
 8002f22:	7862      	ldrb	r2, [r4, #1]
 8002f24:	2380      	movs	r3, #128	; 0x80
 8002f26:	009b      	lsls	r3, r3, #2
 8002f28:	54f2      	strb	r2, [r6, r3]
        hcdc->CmdLength = req->wLength;
 8002f2a:	88e2      	ldrh	r2, [r4, #6]
 8002f2c:	4b13      	ldr	r3, [pc, #76]	; (8002f7c <USBD_CDC_Setup+0x80>)
 8002f2e:	54f2      	strb	r2, [r6, r3]
        USBD_CtlPrepareRx (pdev, 
 8002f30:	88e2      	ldrh	r2, [r4, #6]
 8002f32:	0031      	movs	r1, r6
 8002f34:	f000 fd1e 	bl	8003974 <USBD_CtlPrepareRx>
 8002f38:	e018      	b.n	8002f6c <USBD_CDC_Setup+0x70>
        ((USBD_CDC_ItfTypeDef *)pdev->pUserData)->Control(req->bRequest,
 8002f3a:	33fd      	adds	r3, #253	; 0xfd
 8002f3c:	33ff      	adds	r3, #255	; 0xff
 8002f3e:	58c3      	ldr	r3, [r0, r3]
 8002f40:	689b      	ldr	r3, [r3, #8]
 8002f42:	7860      	ldrb	r0, [r4, #1]
 8002f44:	0031      	movs	r1, r6
 8002f46:	4798      	blx	r3
          USBD_CtlSendData (pdev, 
 8002f48:	88e2      	ldrh	r2, [r4, #6]
 8002f4a:	0031      	movs	r1, r6
 8002f4c:	0028      	movs	r0, r5
 8002f4e:	f000 fcfb 	bl	8003948 <USBD_CtlSendData>
 8002f52:	e00b      	b.n	8002f6c <USBD_CDC_Setup+0x70>
      ((USBD_CDC_ItfTypeDef *)pdev->pUserData)->Control(req->bRequest,
 8002f54:	2387      	movs	r3, #135	; 0x87
 8002f56:	009b      	lsls	r3, r3, #2
 8002f58:	58c3      	ldr	r3, [r0, r3]
 8002f5a:	689b      	ldr	r3, [r3, #8]
 8002f5c:	7860      	ldrb	r0, [r4, #1]
 8002f5e:	2200      	movs	r2, #0
 8002f60:	0021      	movs	r1, r4
 8002f62:	4798      	blx	r3
 8002f64:	e002      	b.n	8002f6c <USBD_CDC_Setup+0x70>
    switch (req->bRequest)
 8002f66:	7863      	ldrb	r3, [r4, #1]
 8002f68:	2b0a      	cmp	r3, #10
 8002f6a:	d001      	beq.n	8002f70 <USBD_CDC_Setup+0x74>
}
 8002f6c:	2000      	movs	r0, #0
 8002f6e:	bd70      	pop	{r4, r5, r6, pc}
      USBD_CtlSendData (pdev,
 8002f70:	2201      	movs	r2, #1
 8002f72:	4903      	ldr	r1, [pc, #12]	; (8002f80 <USBD_CDC_Setup+0x84>)
 8002f74:	f000 fce8 	bl	8003948 <USBD_CtlSendData>
      break;
 8002f78:	e7f8      	b.n	8002f6c <USBD_CDC_Setup+0x70>
 8002f7a:	46c0      	nop			; (mov r8, r8)
 8002f7c:	00000201 	.word	0x00000201
 8002f80:	2000017c 	.word	0x2000017c

08002f84 <USBD_CDC_DeInit>:
{
 8002f84:	b570      	push	{r4, r5, r6, lr}
 8002f86:	0004      	movs	r4, r0
  USBD_LL_CloseEP(pdev,
 8002f88:	2181      	movs	r1, #129	; 0x81
 8002f8a:	f001 fd4c 	bl	8004a26 <USBD_LL_CloseEP>
  USBD_LL_CloseEP(pdev,
 8002f8e:	2101      	movs	r1, #1
 8002f90:	0020      	movs	r0, r4
 8002f92:	f001 fd48 	bl	8004a26 <USBD_LL_CloseEP>
  USBD_LL_CloseEP(pdev,
 8002f96:	2182      	movs	r1, #130	; 0x82
 8002f98:	0020      	movs	r0, r4
 8002f9a:	f001 fd44 	bl	8004a26 <USBD_LL_CloseEP>
  if(pdev->pClassData != NULL)
 8002f9e:	2386      	movs	r3, #134	; 0x86
 8002fa0:	009b      	lsls	r3, r3, #2
 8002fa2:	58e3      	ldr	r3, [r4, r3]
 8002fa4:	2b00      	cmp	r3, #0
 8002fa6:	d00b      	beq.n	8002fc0 <USBD_CDC_DeInit+0x3c>
    ((USBD_CDC_ItfTypeDef *)pdev->pUserData)->DeInit();
 8002fa8:	2387      	movs	r3, #135	; 0x87
 8002faa:	009b      	lsls	r3, r3, #2
 8002fac:	58e3      	ldr	r3, [r4, r3]
 8002fae:	685b      	ldr	r3, [r3, #4]
 8002fb0:	4798      	blx	r3
    USBD_free(pdev->pClassData);
 8002fb2:	2586      	movs	r5, #134	; 0x86
 8002fb4:	00ad      	lsls	r5, r5, #2
 8002fb6:	5960      	ldr	r0, [r4, r5]
 8002fb8:	f001 fdba 	bl	8004b30 <USBD_static_free>
    pdev->pClassData = NULL;
 8002fbc:	2300      	movs	r3, #0
 8002fbe:	5163      	str	r3, [r4, r5]
}
 8002fc0:	2000      	movs	r0, #0
 8002fc2:	bd70      	pop	{r4, r5, r6, pc}

08002fc4 <USBD_CDC_Init>:
{
 8002fc4:	b570      	push	{r4, r5, r6, lr}
 8002fc6:	0004      	movs	r4, r0
  if(pdev->dev_speed == USBD_SPEED_HIGH  ) 
 8002fc8:	7c03      	ldrb	r3, [r0, #16]
 8002fca:	2b00      	cmp	r3, #0
 8002fcc:	d134      	bne.n	8003038 <USBD_CDC_Init+0x74>
    USBD_LL_OpenEP(pdev,
 8002fce:	2580      	movs	r5, #128	; 0x80
 8002fd0:	00ad      	lsls	r5, r5, #2
 8002fd2:	002b      	movs	r3, r5
 8002fd4:	2202      	movs	r2, #2
 8002fd6:	2181      	movs	r1, #129	; 0x81
 8002fd8:	f001 fd12 	bl	8004a00 <USBD_LL_OpenEP>
    USBD_LL_OpenEP(pdev,
 8002fdc:	002b      	movs	r3, r5
 8002fde:	2202      	movs	r2, #2
 8002fe0:	2101      	movs	r1, #1
 8002fe2:	0020      	movs	r0, r4
 8002fe4:	f001 fd0c 	bl	8004a00 <USBD_LL_OpenEP>
  USBD_LL_OpenEP(pdev,
 8002fe8:	2308      	movs	r3, #8
 8002fea:	2203      	movs	r2, #3
 8002fec:	2182      	movs	r1, #130	; 0x82
 8002fee:	0020      	movs	r0, r4
 8002ff0:	f001 fd06 	bl	8004a00 <USBD_LL_OpenEP>
  pdev->pClassData = USBD_malloc(sizeof (USBD_CDC_HandleTypeDef));
 8002ff4:	2087      	movs	r0, #135	; 0x87
 8002ff6:	0080      	lsls	r0, r0, #2
 8002ff8:	f001 fd96 	bl	8004b28 <USBD_static_malloc>
 8002ffc:	0005      	movs	r5, r0
 8002ffe:	2386      	movs	r3, #134	; 0x86
 8003000:	009b      	lsls	r3, r3, #2
 8003002:	50e0      	str	r0, [r4, r3]
  if(pdev->pClassData == NULL)
 8003004:	2800      	cmp	r0, #0
 8003006:	d02d      	beq.n	8003064 <USBD_CDC_Init+0xa0>
    ((USBD_CDC_ItfTypeDef *)pdev->pUserData)->Init();
 8003008:	3304      	adds	r3, #4
 800300a:	58e3      	ldr	r3, [r4, r3]
 800300c:	681b      	ldr	r3, [r3, #0]
 800300e:	4798      	blx	r3
    hcdc->TxState =0;
 8003010:	2300      	movs	r3, #0
 8003012:	2285      	movs	r2, #133	; 0x85
 8003014:	0092      	lsls	r2, r2, #2
 8003016:	50ab      	str	r3, [r5, r2]
    hcdc->RxState =0;
 8003018:	3204      	adds	r2, #4
 800301a:	50ab      	str	r3, [r5, r2]
    if(pdev->dev_speed == USBD_SPEED_HIGH  ) 
 800301c:	7c23      	ldrb	r3, [r4, #16]
 800301e:	2b00      	cmp	r3, #0
 8003020:	d016      	beq.n	8003050 <USBD_CDC_Init+0x8c>
      USBD_LL_PrepareReceive(pdev,
 8003022:	2381      	movs	r3, #129	; 0x81
 8003024:	009b      	lsls	r3, r3, #2
 8003026:	58ea      	ldr	r2, [r5, r3]
 8003028:	3bc5      	subs	r3, #197	; 0xc5
 800302a:	3bff      	subs	r3, #255	; 0xff
 800302c:	2101      	movs	r1, #1
 800302e:	0020      	movs	r0, r4
 8003030:	f001 fd63 	bl	8004afa <USBD_LL_PrepareReceive>
  uint8_t ret = 0;
 8003034:	2000      	movs	r0, #0
}
 8003036:	bd70      	pop	{r4, r5, r6, pc}
    USBD_LL_OpenEP(pdev,
 8003038:	2340      	movs	r3, #64	; 0x40
 800303a:	2202      	movs	r2, #2
 800303c:	2181      	movs	r1, #129	; 0x81
 800303e:	f001 fcdf 	bl	8004a00 <USBD_LL_OpenEP>
    USBD_LL_OpenEP(pdev,
 8003042:	2340      	movs	r3, #64	; 0x40
 8003044:	2202      	movs	r2, #2
 8003046:	2101      	movs	r1, #1
 8003048:	0020      	movs	r0, r4
 800304a:	f001 fcd9 	bl	8004a00 <USBD_LL_OpenEP>
 800304e:	e7cb      	b.n	8002fe8 <USBD_CDC_Init+0x24>
      USBD_LL_PrepareReceive(pdev,
 8003050:	2381      	movs	r3, #129	; 0x81
 8003052:	009b      	lsls	r3, r3, #2
 8003054:	58ea      	ldr	r2, [r5, r3]
 8003056:	3b04      	subs	r3, #4
 8003058:	2101      	movs	r1, #1
 800305a:	0020      	movs	r0, r4
 800305c:	f001 fd4d 	bl	8004afa <USBD_LL_PrepareReceive>
  uint8_t ret = 0;
 8003060:	2000      	movs	r0, #0
 8003062:	e7e8      	b.n	8003036 <USBD_CDC_Init+0x72>
    ret = 1; 
 8003064:	2001      	movs	r0, #1
 8003066:	e7e6      	b.n	8003036 <USBD_CDC_Init+0x72>

08003068 <USBD_CDC_RegisterInterface>:
uint8_t  USBD_CDC_RegisterInterface  (USBD_HandleTypeDef   *pdev, 
                                      USBD_CDC_ItfTypeDef *fops)
{
  uint8_t  ret = USBD_FAIL;
  
  if(fops != NULL)
 8003068:	2900      	cmp	r1, #0
 800306a:	d004      	beq.n	8003076 <USBD_CDC_RegisterInterface+0xe>
  {
    pdev->pUserData= fops;
 800306c:	2387      	movs	r3, #135	; 0x87
 800306e:	009b      	lsls	r3, r3, #2
 8003070:	50c1      	str	r1, [r0, r3]
    ret = USBD_OK;    
 8003072:	2000      	movs	r0, #0
  }
  
  return ret;
}
 8003074:	4770      	bx	lr
  uint8_t  ret = USBD_FAIL;
 8003076:	2002      	movs	r0, #2
 8003078:	e7fc      	b.n	8003074 <USBD_CDC_RegisterInterface+0xc>

0800307a <USBD_CDC_SetTxBuffer>:
  */
uint8_t  USBD_CDC_SetTxBuffer  (USBD_HandleTypeDef   *pdev,
                                uint8_t  *pbuff,
                                uint16_t length)
{
  USBD_CDC_HandleTypeDef   *hcdc = (USBD_CDC_HandleTypeDef*) pdev->pClassData;
 800307a:	2386      	movs	r3, #134	; 0x86
 800307c:	009b      	lsls	r3, r3, #2
 800307e:	58c3      	ldr	r3, [r0, r3]
  
  hcdc->TxBuffer = pbuff;
 8003080:	2082      	movs	r0, #130	; 0x82
 8003082:	0080      	lsls	r0, r0, #2
 8003084:	5019      	str	r1, [r3, r0]
  hcdc->TxLength = length;  
 8003086:	2184      	movs	r1, #132	; 0x84
 8003088:	0089      	lsls	r1, r1, #2
 800308a:	505a      	str	r2, [r3, r1]
  
  return USBD_OK;  
}
 800308c:	2000      	movs	r0, #0
 800308e:	4770      	bx	lr

08003090 <USBD_CDC_SetRxBuffer>:
  * @retval status
  */
uint8_t  USBD_CDC_SetRxBuffer  (USBD_HandleTypeDef   *pdev,
                                   uint8_t  *pbuff)
{
  USBD_CDC_HandleTypeDef   *hcdc = (USBD_CDC_HandleTypeDef*) pdev->pClassData;
 8003090:	2386      	movs	r3, #134	; 0x86
 8003092:	009b      	lsls	r3, r3, #2
 8003094:	58c2      	ldr	r2, [r0, r3]
  
  hcdc->RxBuffer = pbuff;
 8003096:	3b14      	subs	r3, #20
 8003098:	50d1      	str	r1, [r2, r3]
  
  return USBD_OK;
}
 800309a:	2000      	movs	r0, #0
 800309c:	4770      	bx	lr

0800309e <USBD_CDC_TransmitPacket>:
  * @param  pdev: device instance
  * @param  epnum: endpoint number
  * @retval status
  */
uint8_t  USBD_CDC_TransmitPacket(USBD_HandleTypeDef *pdev)
{      
 800309e:	b510      	push	{r4, lr}
  USBD_CDC_HandleTypeDef   *hcdc = (USBD_CDC_HandleTypeDef*) pdev->pClassData;
 80030a0:	2386      	movs	r3, #134	; 0x86
 80030a2:	009b      	lsls	r3, r3, #2
 80030a4:	58c2      	ldr	r2, [r0, r3]
  
  if(pdev->pClassData != NULL)
 80030a6:	2a00      	cmp	r2, #0
 80030a8:	d014      	beq.n	80030d4 <USBD_CDC_TransmitPacket+0x36>
  {
    if(hcdc->TxState == 0)
 80030aa:	3b04      	subs	r3, #4
 80030ac:	58d3      	ldr	r3, [r2, r3]
 80030ae:	2b00      	cmp	r3, #0
 80030b0:	d001      	beq.n	80030b6 <USBD_CDC_TransmitPacket+0x18>
      
      return USBD_OK;
    }
    else
    {
      return USBD_BUSY;
 80030b2:	2001      	movs	r0, #1
  }
  else
  {
    return USBD_FAIL;
  }
}
 80030b4:	bd10      	pop	{r4, pc}
      hcdc->TxState = 1;
 80030b6:	2101      	movs	r1, #1
 80030b8:	2385      	movs	r3, #133	; 0x85
 80030ba:	009b      	lsls	r3, r3, #2
 80030bc:	50d1      	str	r1, [r2, r3]
      USBD_LL_Transmit(pdev,
 80030be:	3b04      	subs	r3, #4
 80030c0:	5ad3      	ldrh	r3, [r2, r3]
 80030c2:	2182      	movs	r1, #130	; 0x82
 80030c4:	0089      	lsls	r1, r1, #2
 80030c6:	5852      	ldr	r2, [r2, r1]
 80030c8:	3988      	subs	r1, #136	; 0x88
 80030ca:	39ff      	subs	r1, #255	; 0xff
 80030cc:	f001 fd05 	bl	8004ada <USBD_LL_Transmit>
      return USBD_OK;
 80030d0:	2000      	movs	r0, #0
 80030d2:	e7ef      	b.n	80030b4 <USBD_CDC_TransmitPacket+0x16>
    return USBD_FAIL;
 80030d4:	2002      	movs	r0, #2
 80030d6:	e7ed      	b.n	80030b4 <USBD_CDC_TransmitPacket+0x16>

080030d8 <USBD_CDC_ReceivePacket>:
  *         prepare OUT Endpoint for reception
  * @param  pdev: device instance
  * @retval status
  */
uint8_t  USBD_CDC_ReceivePacket(USBD_HandleTypeDef *pdev)
{      
 80030d8:	b510      	push	{r4, lr}
  USBD_CDC_HandleTypeDef   *hcdc = (USBD_CDC_HandleTypeDef*) pdev->pClassData;
 80030da:	2386      	movs	r3, #134	; 0x86
 80030dc:	009b      	lsls	r3, r3, #2
 80030de:	58c3      	ldr	r3, [r0, r3]
  
  /* Suspend or Resume USB Out process */
  if(pdev->pClassData != NULL)
 80030e0:	2b00      	cmp	r3, #0
 80030e2:	d015      	beq.n	8003110 <USBD_CDC_ReceivePacket+0x38>
  {
    if(pdev->dev_speed == USBD_SPEED_HIGH  ) 
 80030e4:	7c02      	ldrb	r2, [r0, #16]
 80030e6:	2a00      	cmp	r2, #0
 80030e8:	d008      	beq.n	80030fc <USBD_CDC_ReceivePacket+0x24>
                             CDC_DATA_HS_OUT_PACKET_SIZE);
    }
    else
    {
      /* Prepare Out endpoint to receive next packet */
      USBD_LL_PrepareReceive(pdev,
 80030ea:	2281      	movs	r2, #129	; 0x81
 80030ec:	0092      	lsls	r2, r2, #2
 80030ee:	589a      	ldr	r2, [r3, r2]
 80030f0:	2340      	movs	r3, #64	; 0x40
 80030f2:	2101      	movs	r1, #1
 80030f4:	f001 fd01 	bl	8004afa <USBD_LL_PrepareReceive>
                             CDC_OUT_EP,
                             hcdc->RxBuffer,
                             CDC_DATA_FS_OUT_PACKET_SIZE);
    }
    return USBD_OK;
 80030f8:	2000      	movs	r0, #0
  }
  else
  {
    return USBD_FAIL;
  }
}
 80030fa:	bd10      	pop	{r4, pc}
      USBD_LL_PrepareReceive(pdev,
 80030fc:	2281      	movs	r2, #129	; 0x81
 80030fe:	0092      	lsls	r2, r2, #2
 8003100:	589a      	ldr	r2, [r3, r2]
 8003102:	2380      	movs	r3, #128	; 0x80
 8003104:	009b      	lsls	r3, r3, #2
 8003106:	2101      	movs	r1, #1
 8003108:	f001 fcf7 	bl	8004afa <USBD_LL_PrepareReceive>
    return USBD_OK;
 800310c:	2000      	movs	r0, #0
 800310e:	e7f4      	b.n	80030fa <USBD_CDC_ReceivePacket+0x22>
    return USBD_FAIL;
 8003110:	2002      	movs	r0, #2
 8003112:	e7f2      	b.n	80030fa <USBD_CDC_ReceivePacket+0x22>

08003114 <USBD_Init>:
* @param  pdesc: Descriptor structure address
* @param  id: Low level core index
* @retval None
*/
USBD_StatusTypeDef USBD_Init(USBD_HandleTypeDef *pdev, USBD_DescriptorsTypeDef *pdesc, uint8_t id)
{
 8003114:	b510      	push	{r4, lr}
  /* Check whether the USB Host handle is valid */
  if(pdev == NULL)
 8003116:	2800      	cmp	r0, #0
 8003118:	d016      	beq.n	8003148 <USBD_Init+0x34>
    USBD_ErrLog("Invalid Device handle");
    return USBD_FAIL; 
  }
  
  /* Unlink previous class*/
  if(pdev->pClass != NULL)
 800311a:	2385      	movs	r3, #133	; 0x85
 800311c:	009b      	lsls	r3, r3, #2
 800311e:	58c3      	ldr	r3, [r0, r3]
 8003120:	2b00      	cmp	r3, #0
 8003122:	d003      	beq.n	800312c <USBD_Init+0x18>
  {
    pdev->pClass = NULL;
 8003124:	2400      	movs	r4, #0
 8003126:	2385      	movs	r3, #133	; 0x85
 8003128:	009b      	lsls	r3, r3, #2
 800312a:	50c4      	str	r4, [r0, r3]
  }
  
  /* Assign USBD Descriptors */
  if(pdesc != NULL)
 800312c:	2900      	cmp	r1, #0
 800312e:	d002      	beq.n	8003136 <USBD_Init+0x22>
  {
    pdev->pDesc = pdesc;
 8003130:	2384      	movs	r3, #132	; 0x84
 8003132:	009b      	lsls	r3, r3, #2
 8003134:	50c1      	str	r1, [r0, r3]
  }
  
  /* Set Device initial State */
  pdev->dev_state  = USBD_STATE_DEFAULT;
 8003136:	2101      	movs	r1, #1
 8003138:	23fe      	movs	r3, #254	; 0xfe
 800313a:	005b      	lsls	r3, r3, #1
 800313c:	54c1      	strb	r1, [r0, r3]
  pdev->id = id;
 800313e:	7002      	strb	r2, [r0, #0]
  /* Initialize low level driver */
  USBD_LL_Init(pdev);
 8003140:	f001 fc06 	bl	8004950 <USBD_LL_Init>
  
  return USBD_OK; 
 8003144:	2000      	movs	r0, #0
}
 8003146:	bd10      	pop	{r4, pc}
    return USBD_FAIL; 
 8003148:	2002      	movs	r0, #2
 800314a:	e7fc      	b.n	8003146 <USBD_Init+0x32>

0800314c <USBD_RegisterClass>:
  * @retval USBD Status
  */
USBD_StatusTypeDef  USBD_RegisterClass(USBD_HandleTypeDef *pdev, USBD_ClassTypeDef *pclass)
{
  USBD_StatusTypeDef   status = USBD_OK;
  if(pclass != 0)
 800314c:	2900      	cmp	r1, #0
 800314e:	d004      	beq.n	800315a <USBD_RegisterClass+0xe>
  {
    /* link the class to the USB Device handle */
    pdev->pClass = pclass;
 8003150:	2385      	movs	r3, #133	; 0x85
 8003152:	009b      	lsls	r3, r3, #2
 8003154:	50c1      	str	r1, [r0, r3]
    status = USBD_OK;
 8003156:	2000      	movs	r0, #0
    USBD_ErrLog("Invalid Class handle");
    status = USBD_FAIL; 
  }
  
  return status;
}
 8003158:	4770      	bx	lr
    status = USBD_FAIL; 
 800315a:	2002      	movs	r0, #2
 800315c:	e7fc      	b.n	8003158 <USBD_RegisterClass+0xc>

0800315e <USBD_Start>:
  *         Start the USB Device Core.
  * @param  pdev: Device Handle
  * @retval USBD Status
  */
USBD_StatusTypeDef  USBD_Start  (USBD_HandleTypeDef *pdev)
{
 800315e:	b510      	push	{r4, lr}
  
  /* Start the low level driver  */
  USBD_LL_Start(pdev); 
 8003160:	f001 fc3e 	bl	80049e0 <USBD_LL_Start>
  
  return USBD_OK;  
}
 8003164:	2000      	movs	r0, #0
 8003166:	bd10      	pop	{r4, pc}

08003168 <USBD_SetClassConfig>:
* @param  cfgidx: configuration index
* @retval status
*/

USBD_StatusTypeDef USBD_SetClassConfig(USBD_HandleTypeDef  *pdev, uint8_t cfgidx)
{
 8003168:	b510      	push	{r4, lr}
  USBD_StatusTypeDef   ret = USBD_FAIL;
  
  if(pdev->pClass != NULL)
 800316a:	2385      	movs	r3, #133	; 0x85
 800316c:	009b      	lsls	r3, r3, #2
 800316e:	58c3      	ldr	r3, [r0, r3]
 8003170:	2b00      	cmp	r3, #0
 8003172:	d005      	beq.n	8003180 <USBD_SetClassConfig+0x18>
  {
    /* Set configuration  and Start the Class*/
    if(pdev->pClass->Init(pdev, cfgidx) == 0)
 8003174:	681b      	ldr	r3, [r3, #0]
 8003176:	4798      	blx	r3
 8003178:	2800      	cmp	r0, #0
 800317a:	d003      	beq.n	8003184 <USBD_SetClassConfig+0x1c>
  USBD_StatusTypeDef   ret = USBD_FAIL;
 800317c:	2002      	movs	r0, #2
 800317e:	e000      	b.n	8003182 <USBD_SetClassConfig+0x1a>
 8003180:	2002      	movs	r0, #2
    {
      ret = USBD_OK;
    }
  }
  return ret; 
}
 8003182:	bd10      	pop	{r4, pc}
      ret = USBD_OK;
 8003184:	2000      	movs	r0, #0
 8003186:	e7fc      	b.n	8003182 <USBD_SetClassConfig+0x1a>

08003188 <USBD_ClrClassConfig>:
* @param  pdev: device instance
* @param  cfgidx: configuration index
* @retval status: USBD_StatusTypeDef
*/
USBD_StatusTypeDef USBD_ClrClassConfig(USBD_HandleTypeDef  *pdev, uint8_t cfgidx)
{
 8003188:	b510      	push	{r4, lr}
  /* Clear configuration  and De-initialize the Class process*/
  pdev->pClass->DeInit(pdev, cfgidx);  
 800318a:	2385      	movs	r3, #133	; 0x85
 800318c:	009b      	lsls	r3, r3, #2
 800318e:	58c3      	ldr	r3, [r0, r3]
 8003190:	685b      	ldr	r3, [r3, #4]
 8003192:	4798      	blx	r3
  return USBD_OK;
}
 8003194:	2000      	movs	r0, #0
 8003196:	bd10      	pop	{r4, pc}

08003198 <USBD_LL_SetupStage>:
*         Handle the setup stage
* @param  pdev: device instance
* @retval status
*/
USBD_StatusTypeDef USBD_LL_SetupStage(USBD_HandleTypeDef *pdev, uint8_t *psetup)
{
 8003198:	b570      	push	{r4, r5, r6, lr}
 800319a:	0004      	movs	r4, r0

  USBD_ParseSetupRequest(&pdev->request, psetup);
 800319c:	2382      	movs	r3, #130	; 0x82
 800319e:	009b      	lsls	r3, r3, #2
 80031a0:	18c5      	adds	r5, r0, r3
 80031a2:	0028      	movs	r0, r5
 80031a4:	f000 f92f 	bl	8003406 <USBD_ParseSetupRequest>
  
  pdev->ep0_state = USBD_EP0_SETUP;
 80031a8:	2201      	movs	r2, #1
 80031aa:	23fa      	movs	r3, #250	; 0xfa
 80031ac:	005b      	lsls	r3, r3, #1
 80031ae:	50e2      	str	r2, [r4, r3]
  pdev->ep0_data_len = pdev->request.wLength;
 80031b0:	4b12      	ldr	r3, [pc, #72]	; (80031fc <USBD_LL_SetupStage+0x64>)
 80031b2:	5ae2      	ldrh	r2, [r4, r3]
 80031b4:	3b16      	subs	r3, #22
 80031b6:	50e2      	str	r2, [r4, r3]
  
  switch (pdev->request.bmRequest & 0x1F) 
 80031b8:	3310      	adds	r3, #16
 80031ba:	5ce1      	ldrb	r1, [r4, r3]
 80031bc:	3bea      	subs	r3, #234	; 0xea
 80031be:	3bff      	subs	r3, #255	; 0xff
 80031c0:	400b      	ands	r3, r1
 80031c2:	2b01      	cmp	r3, #1
 80031c4:	d00f      	beq.n	80031e6 <USBD_LL_SetupStage+0x4e>
 80031c6:	2b00      	cmp	r3, #0
 80031c8:	d007      	beq.n	80031da <USBD_LL_SetupStage+0x42>
 80031ca:	2b02      	cmp	r3, #2
 80031cc:	d010      	beq.n	80031f0 <USBD_LL_SetupStage+0x58>
  case USB_REQ_RECIPIENT_ENDPOINT:        
    USBD_StdEPReq(pdev, &pdev->request);   
    break;
    
  default:           
    USBD_LL_StallEP(pdev , pdev->request.bmRequest & 0x80);
 80031ce:	237f      	movs	r3, #127	; 0x7f
 80031d0:	4399      	bics	r1, r3
 80031d2:	0020      	movs	r0, r4
 80031d4:	f001 fc37 	bl	8004a46 <USBD_LL_StallEP>
    break;
 80031d8:	e003      	b.n	80031e2 <USBD_LL_SetupStage+0x4a>
    USBD_StdDevReq (pdev, &pdev->request);
 80031da:	0029      	movs	r1, r5
 80031dc:	0020      	movs	r0, r4
 80031de:	f000 fab7 	bl	8003750 <USBD_StdDevReq>
  }  
  return USBD_OK;  
}
 80031e2:	2000      	movs	r0, #0
 80031e4:	bd70      	pop	{r4, r5, r6, pc}
    USBD_StdItfReq(pdev, &pdev->request);
 80031e6:	0029      	movs	r1, r5
 80031e8:	0020      	movs	r0, r4
 80031ea:	f000 fad5 	bl	8003798 <USBD_StdItfReq>
    break;
 80031ee:	e7f8      	b.n	80031e2 <USBD_LL_SetupStage+0x4a>
    USBD_StdEPReq(pdev, &pdev->request);   
 80031f0:	0029      	movs	r1, r5
 80031f2:	0020      	movs	r0, r4
 80031f4:	f000 faee 	bl	80037d4 <USBD_StdEPReq>
    break;
 80031f8:	e7f3      	b.n	80031e2 <USBD_LL_SetupStage+0x4a>
 80031fa:	46c0      	nop			; (mov r8, r8)
 80031fc:	0000020e 	.word	0x0000020e

08003200 <USBD_LL_DataOutStage>:
* @param  pdev: device instance
* @param  epnum: endpoint index
* @retval status
*/
USBD_StatusTypeDef USBD_LL_DataOutStage(USBD_HandleTypeDef *pdev , uint8_t epnum, uint8_t *pdata)
{
 8003200:	b510      	push	{r4, lr}
 8003202:	0004      	movs	r4, r0
 8003204:	0013      	movs	r3, r2
  USBD_EndpointTypeDef    *pep;
  
  if(epnum == 0) 
 8003206:	2900      	cmp	r1, #0
 8003208:	d128      	bne.n	800325c <USBD_LL_DataOutStage+0x5c>
  {
    pep = &pdev->ep_out[0];
    
    if ( pdev->ep0_state == USBD_EP0_DATA_OUT)
 800320a:	22fa      	movs	r2, #250	; 0xfa
 800320c:	0052      	lsls	r2, r2, #1
 800320e:	5882      	ldr	r2, [r0, r2]
 8003210:	2a03      	cmp	r2, #3
 8003212:	d12e      	bne.n	8003272 <USBD_LL_DataOutStage+0x72>
    {
      if(pep->rem_length > pep->maxpacket)
 8003214:	1d42      	adds	r2, r0, #5
 8003216:	32ff      	adds	r2, #255	; 0xff
 8003218:	6891      	ldr	r1, [r2, #8]
 800321a:	68d2      	ldr	r2, [r2, #12]
 800321c:	4291      	cmp	r1, r2
 800321e:	d80e      	bhi.n	800323e <USBD_LL_DataOutStage+0x3e>
                            pdata,
                            MIN(pep->rem_length ,pep->maxpacket));
      }
      else
      {
        if((pdev->pClass->EP0_RxReady != NULL)&&
 8003220:	2385      	movs	r3, #133	; 0x85
 8003222:	009b      	lsls	r3, r3, #2
 8003224:	58c3      	ldr	r3, [r0, r3]
 8003226:	691b      	ldr	r3, [r3, #16]
 8003228:	2b00      	cmp	r3, #0
 800322a:	d004      	beq.n	8003236 <USBD_LL_DataOutStage+0x36>
           (pdev->dev_state == USBD_STATE_CONFIGURED))
 800322c:	22fe      	movs	r2, #254	; 0xfe
 800322e:	0052      	lsls	r2, r2, #1
 8003230:	5c82      	ldrb	r2, [r0, r2]
        if((pdev->pClass->EP0_RxReady != NULL)&&
 8003232:	2a03      	cmp	r2, #3
 8003234:	d010      	beq.n	8003258 <USBD_LL_DataOutStage+0x58>
        {
          pdev->pClass->EP0_RxReady(pdev); 
        }
        USBD_CtlSendStatus(pdev);
 8003236:	0020      	movs	r0, r4
 8003238:	f000 fbb4 	bl	80039a4 <USBD_CtlSendStatus>
 800323c:	e019      	b.n	8003272 <USBD_LL_DataOutStage+0x72>
        pep->rem_length -=  pep->maxpacket;
 800323e:	1a89      	subs	r1, r1, r2
 8003240:	3005      	adds	r0, #5
 8003242:	30ff      	adds	r0, #255	; 0xff
 8003244:	6081      	str	r1, [r0, #8]
                            MIN(pep->rem_length ,pep->maxpacket));
 8003246:	428a      	cmp	r2, r1
 8003248:	d900      	bls.n	800324c <USBD_LL_DataOutStage+0x4c>
 800324a:	000a      	movs	r2, r1
        USBD_CtlContinueRx (pdev, 
 800324c:	b292      	uxth	r2, r2
 800324e:	0019      	movs	r1, r3
 8003250:	0020      	movs	r0, r4
 8003252:	f000 fb9f 	bl	8003994 <USBD_CtlContinueRx>
 8003256:	e00c      	b.n	8003272 <USBD_LL_DataOutStage+0x72>
          pdev->pClass->EP0_RxReady(pdev); 
 8003258:	4798      	blx	r3
 800325a:	e7ec      	b.n	8003236 <USBD_LL_DataOutStage+0x36>
      }
    }
  }
  else if((pdev->pClass->DataOut != NULL)&&
 800325c:	2385      	movs	r3, #133	; 0x85
 800325e:	009b      	lsls	r3, r3, #2
 8003260:	58c3      	ldr	r3, [r0, r3]
 8003262:	699b      	ldr	r3, [r3, #24]
 8003264:	2b00      	cmp	r3, #0
 8003266:	d004      	beq.n	8003272 <USBD_LL_DataOutStage+0x72>
          (pdev->dev_state == USBD_STATE_CONFIGURED))
 8003268:	22fe      	movs	r2, #254	; 0xfe
 800326a:	0052      	lsls	r2, r2, #1
 800326c:	5c82      	ldrb	r2, [r0, r2]
  else if((pdev->pClass->DataOut != NULL)&&
 800326e:	2a03      	cmp	r2, #3
 8003270:	d001      	beq.n	8003276 <USBD_LL_DataOutStage+0x76>
  {
    pdev->pClass->DataOut(pdev, epnum); 
  }  
  return USBD_OK;
}
 8003272:	2000      	movs	r0, #0
 8003274:	bd10      	pop	{r4, pc}
    pdev->pClass->DataOut(pdev, epnum); 
 8003276:	4798      	blx	r3
 8003278:	e7fb      	b.n	8003272 <USBD_LL_DataOutStage+0x72>

0800327a <USBD_LL_DataInStage>:
* @param  pdev: device instance
* @param  epnum: endpoint index
* @retval status
*/
USBD_StatusTypeDef USBD_LL_DataInStage(USBD_HandleTypeDef *pdev ,uint8_t epnum, uint8_t *pdata)
{
 800327a:	b570      	push	{r4, r5, r6, lr}
 800327c:	0004      	movs	r4, r0
 800327e:	0013      	movs	r3, r2
  USBD_EndpointTypeDef    *pep;
    
  if(epnum == 0) 
 8003280:	2900      	cmp	r1, #0
 8003282:	d14f      	bne.n	8003324 <USBD_LL_DataInStage+0xaa>
  {
    pep = &pdev->ep_in[0];
    
    if ( pdev->ep0_state == USBD_EP0_DATA_IN)
 8003284:	22fa      	movs	r2, #250	; 0xfa
 8003286:	0052      	lsls	r2, r2, #1
 8003288:	5882      	ldr	r2, [r0, r2]
 800328a:	2a02      	cmp	r2, #2
 800328c:	d006      	beq.n	800329c <USBD_LL_DataInStage+0x22>
          }          
          USBD_CtlReceiveStatus(pdev);
        }
      }
    }
    if (pdev->dev_test_mode == 1)
 800328e:	2380      	movs	r3, #128	; 0x80
 8003290:	009b      	lsls	r3, r3, #2
 8003292:	5ce3      	ldrb	r3, [r4, r3]
 8003294:	2b01      	cmp	r3, #1
 8003296:	d040      	beq.n	800331a <USBD_LL_DataInStage+0xa0>
          (pdev->dev_state == USBD_STATE_CONFIGURED))
  {
    pdev->pClass->DataIn(pdev, epnum); 
  }  
  return USBD_OK;
}
 8003298:	2000      	movs	r0, #0
 800329a:	bd70      	pop	{r4, r5, r6, pc}
      if(pep->rem_length > pep->maxpacket)
 800329c:	69c2      	ldr	r2, [r0, #28]
 800329e:	6a05      	ldr	r5, [r0, #32]
 80032a0:	42aa      	cmp	r2, r5
 80032a2:	d81c      	bhi.n	80032de <USBD_LL_DataInStage+0x64>
        if((pep->total_length % pep->maxpacket == 0) &&
 80032a4:	6986      	ldr	r6, [r0, #24]
 80032a6:	0029      	movs	r1, r5
 80032a8:	0030      	movs	r0, r6
 80032aa:	f7fc ffb3 	bl	8000214 <__aeabi_uidivmod>
 80032ae:	2900      	cmp	r1, #0
 80032b0:	d106      	bne.n	80032c0 <USBD_LL_DataInStage+0x46>
 80032b2:	42b5      	cmp	r5, r6
 80032b4:	d804      	bhi.n	80032c0 <USBD_LL_DataInStage+0x46>
             (pep->total_length < pdev->ep0_data_len ))
 80032b6:	23fc      	movs	r3, #252	; 0xfc
 80032b8:	005b      	lsls	r3, r3, #1
 80032ba:	58e3      	ldr	r3, [r4, r3]
           (pep->total_length >= pep->maxpacket) &&
 80032bc:	429e      	cmp	r6, r3
 80032be:	d31b      	bcc.n	80032f8 <USBD_LL_DataInStage+0x7e>
          if((pdev->pClass->EP0_TxSent != NULL)&&
 80032c0:	2385      	movs	r3, #133	; 0x85
 80032c2:	009b      	lsls	r3, r3, #2
 80032c4:	58e3      	ldr	r3, [r4, r3]
 80032c6:	68db      	ldr	r3, [r3, #12]
 80032c8:	2b00      	cmp	r3, #0
 80032ca:	d004      	beq.n	80032d6 <USBD_LL_DataInStage+0x5c>
             (pdev->dev_state == USBD_STATE_CONFIGURED))
 80032cc:	22fe      	movs	r2, #254	; 0xfe
 80032ce:	0052      	lsls	r2, r2, #1
 80032d0:	5ca2      	ldrb	r2, [r4, r2]
          if((pdev->pClass->EP0_TxSent != NULL)&&
 80032d2:	2a03      	cmp	r2, #3
 80032d4:	d01e      	beq.n	8003314 <USBD_LL_DataInStage+0x9a>
          USBD_CtlReceiveStatus(pdev);
 80032d6:	0020      	movs	r0, r4
 80032d8:	f000 fb70 	bl	80039bc <USBD_CtlReceiveStatus>
 80032dc:	e7d7      	b.n	800328e <USBD_LL_DataInStage+0x14>
        pep->rem_length -=  pep->maxpacket;
 80032de:	1b52      	subs	r2, r2, r5
 80032e0:	61c2      	str	r2, [r0, #28]
        USBD_CtlContinueSendData (pdev, 
 80032e2:	b292      	uxth	r2, r2
 80032e4:	0019      	movs	r1, r3
 80032e6:	f000 fb3d 	bl	8003964 <USBD_CtlContinueSendData>
        USBD_LL_PrepareReceive (pdev,
 80032ea:	2300      	movs	r3, #0
 80032ec:	2200      	movs	r2, #0
 80032ee:	2100      	movs	r1, #0
 80032f0:	0020      	movs	r0, r4
 80032f2:	f001 fc02 	bl	8004afa <USBD_LL_PrepareReceive>
 80032f6:	e7ca      	b.n	800328e <USBD_LL_DataInStage+0x14>
          USBD_CtlContinueSendData(pdev , NULL, 0);
 80032f8:	2200      	movs	r2, #0
 80032fa:	0020      	movs	r0, r4
 80032fc:	f000 fb32 	bl	8003964 <USBD_CtlContinueSendData>
          pdev->ep0_data_len = 0;
 8003300:	2200      	movs	r2, #0
 8003302:	23fc      	movs	r3, #252	; 0xfc
 8003304:	005b      	lsls	r3, r3, #1
 8003306:	50e2      	str	r2, [r4, r3]
        USBD_LL_PrepareReceive (pdev,
 8003308:	2300      	movs	r3, #0
 800330a:	2100      	movs	r1, #0
 800330c:	0020      	movs	r0, r4
 800330e:	f001 fbf4 	bl	8004afa <USBD_LL_PrepareReceive>
 8003312:	e7bc      	b.n	800328e <USBD_LL_DataInStage+0x14>
            pdev->pClass->EP0_TxSent(pdev); 
 8003314:	0020      	movs	r0, r4
 8003316:	4798      	blx	r3
 8003318:	e7dd      	b.n	80032d6 <USBD_LL_DataInStage+0x5c>
      pdev->dev_test_mode = 0;
 800331a:	2200      	movs	r2, #0
 800331c:	2380      	movs	r3, #128	; 0x80
 800331e:	009b      	lsls	r3, r3, #2
 8003320:	54e2      	strb	r2, [r4, r3]
 8003322:	e7b9      	b.n	8003298 <USBD_LL_DataInStage+0x1e>
  else if((pdev->pClass->DataIn != NULL)&& 
 8003324:	2385      	movs	r3, #133	; 0x85
 8003326:	009b      	lsls	r3, r3, #2
 8003328:	58c3      	ldr	r3, [r0, r3]
 800332a:	695b      	ldr	r3, [r3, #20]
 800332c:	2b00      	cmp	r3, #0
 800332e:	d0b3      	beq.n	8003298 <USBD_LL_DataInStage+0x1e>
          (pdev->dev_state == USBD_STATE_CONFIGURED))
 8003330:	22fe      	movs	r2, #254	; 0xfe
 8003332:	0052      	lsls	r2, r2, #1
 8003334:	5c82      	ldrb	r2, [r0, r2]
  else if((pdev->pClass->DataIn != NULL)&& 
 8003336:	2a03      	cmp	r2, #3
 8003338:	d1ae      	bne.n	8003298 <USBD_LL_DataInStage+0x1e>
    pdev->pClass->DataIn(pdev, epnum); 
 800333a:	4798      	blx	r3
 800333c:	e7ac      	b.n	8003298 <USBD_LL_DataInStage+0x1e>

0800333e <USBD_LL_Reset>:
* @param  pdev: device instance
* @retval status
*/

USBD_StatusTypeDef USBD_LL_Reset(USBD_HandleTypeDef  *pdev)
{
 800333e:	b570      	push	{r4, r5, r6, lr}
 8003340:	0004      	movs	r4, r0
  /* Open EP0 OUT */
  USBD_LL_OpenEP(pdev,
 8003342:	2340      	movs	r3, #64	; 0x40
 8003344:	2200      	movs	r2, #0
 8003346:	2100      	movs	r1, #0
 8003348:	f001 fb5a 	bl	8004a00 <USBD_LL_OpenEP>
              0x00,
              USBD_EP_TYPE_CTRL,
              USB_MAX_EP0_SIZE);
  
  pdev->ep_out[0].maxpacket = USB_MAX_EP0_SIZE;
 800334c:	2540      	movs	r5, #64	; 0x40
 800334e:	2388      	movs	r3, #136	; 0x88
 8003350:	005b      	lsls	r3, r3, #1
 8003352:	50e5      	str	r5, [r4, r3]
  
  /* Open EP0 IN */
  USBD_LL_OpenEP(pdev,
 8003354:	3bd0      	subs	r3, #208	; 0xd0
 8003356:	2200      	movs	r2, #0
 8003358:	2180      	movs	r1, #128	; 0x80
 800335a:	0020      	movs	r0, r4
 800335c:	f001 fb50 	bl	8004a00 <USBD_LL_OpenEP>
              0x80,
              USBD_EP_TYPE_CTRL,
              USB_MAX_EP0_SIZE);
  
  pdev->ep_in[0].maxpacket = USB_MAX_EP0_SIZE;
 8003360:	6225      	str	r5, [r4, #32]
  /* Upon Reset call user call back */
  pdev->dev_state = USBD_STATE_DEFAULT;
 8003362:	2201      	movs	r2, #1
 8003364:	23fe      	movs	r3, #254	; 0xfe
 8003366:	005b      	lsls	r3, r3, #1
 8003368:	54e2      	strb	r2, [r4, r3]
  
  if (pdev->pClassData) 
 800336a:	331c      	adds	r3, #28
 800336c:	58e3      	ldr	r3, [r4, r3]
 800336e:	2b00      	cmp	r3, #0
 8003370:	d006      	beq.n	8003380 <USBD_LL_Reset+0x42>
    pdev->pClass->DeInit(pdev, pdev->dev_config);  
 8003372:	2385      	movs	r3, #133	; 0x85
 8003374:	009b      	lsls	r3, r3, #2
 8003376:	58e3      	ldr	r3, [r4, r3]
 8003378:	685b      	ldr	r3, [r3, #4]
 800337a:	7921      	ldrb	r1, [r4, #4]
 800337c:	0020      	movs	r0, r4
 800337e:	4798      	blx	r3
 
  
  return USBD_OK;
}
 8003380:	2000      	movs	r0, #0
 8003382:	bd70      	pop	{r4, r5, r6, pc}

08003384 <USBD_LL_SetSpeed>:
* @param  pdev: device instance
* @retval status
*/
USBD_StatusTypeDef USBD_LL_SetSpeed(USBD_HandleTypeDef  *pdev, USBD_SpeedTypeDef speed)
{
  pdev->dev_speed = speed;
 8003384:	7401      	strb	r1, [r0, #16]
  return USBD_OK;
}
 8003386:	2000      	movs	r0, #0
 8003388:	4770      	bx	lr

0800338a <USBD_LL_Suspend>:
* @retval status
*/

USBD_StatusTypeDef USBD_LL_Suspend(USBD_HandleTypeDef  *pdev)
{
  pdev->dev_old_state =  pdev->dev_state;
 800338a:	23fe      	movs	r3, #254	; 0xfe
 800338c:	005b      	lsls	r3, r3, #1
 800338e:	5cc1      	ldrb	r1, [r0, r3]
 8003390:	22fe      	movs	r2, #254	; 0xfe
 8003392:	32ff      	adds	r2, #255	; 0xff
 8003394:	5481      	strb	r1, [r0, r2]
  pdev->dev_state  = USBD_STATE_SUSPENDED;
 8003396:	3afa      	subs	r2, #250	; 0xfa
 8003398:	3aff      	subs	r2, #255	; 0xff
 800339a:	54c2      	strb	r2, [r0, r3]
  return USBD_OK;
}
 800339c:	2000      	movs	r0, #0
 800339e:	4770      	bx	lr

080033a0 <USBD_LL_Resume>:
* @retval status
*/

USBD_StatusTypeDef USBD_LL_Resume(USBD_HandleTypeDef  *pdev)
{
  pdev->dev_state = pdev->dev_old_state;  
 80033a0:	23fe      	movs	r3, #254	; 0xfe
 80033a2:	33ff      	adds	r3, #255	; 0xff
 80033a4:	5cc2      	ldrb	r2, [r0, r3]
 80033a6:	3b01      	subs	r3, #1
 80033a8:	54c2      	strb	r2, [r0, r3]
  return USBD_OK;
}
 80033aa:	2000      	movs	r0, #0
 80033ac:	4770      	bx	lr

080033ae <USBD_LL_SOF>:
* @param  pdev: device instance
* @retval status
*/

USBD_StatusTypeDef USBD_LL_SOF(USBD_HandleTypeDef  *pdev)
{
 80033ae:	b510      	push	{r4, lr}
  if(pdev->dev_state == USBD_STATE_CONFIGURED)
 80033b0:	23fe      	movs	r3, #254	; 0xfe
 80033b2:	005b      	lsls	r3, r3, #1
 80033b4:	5cc3      	ldrb	r3, [r0, r3]
 80033b6:	2b03      	cmp	r3, #3
 80033b8:	d001      	beq.n	80033be <USBD_LL_SOF+0x10>
    {
      pdev->pClass->SOF(pdev);
    }
  }
  return USBD_OK;
}
 80033ba:	2000      	movs	r0, #0
 80033bc:	bd10      	pop	{r4, pc}
    if(pdev->pClass->SOF != NULL)
 80033be:	2385      	movs	r3, #133	; 0x85
 80033c0:	009b      	lsls	r3, r3, #2
 80033c2:	58c3      	ldr	r3, [r0, r3]
 80033c4:	69db      	ldr	r3, [r3, #28]
 80033c6:	2b00      	cmp	r3, #0
 80033c8:	d0f7      	beq.n	80033ba <USBD_LL_SOF+0xc>
      pdev->pClass->SOF(pdev);
 80033ca:	4798      	blx	r3
 80033cc:	e7f5      	b.n	80033ba <USBD_LL_SOF+0xc>

080033ce <USBD_GetLen>:
  *         return the string length
   * @param  buf : pointer to the ascii string buffer
  * @retval string length
  */
static uint8_t USBD_GetLen(uint8_t *buf)
{
 80033ce:	0003      	movs	r3, r0
    uint8_t  len = 0;
 80033d0:	2000      	movs	r0, #0

    while (*buf != '\0') 
 80033d2:	e002      	b.n	80033da <USBD_GetLen+0xc>
    {
        len++;
 80033d4:	3001      	adds	r0, #1
 80033d6:	b2c0      	uxtb	r0, r0
        buf++;
 80033d8:	3301      	adds	r3, #1
    while (*buf != '\0') 
 80033da:	781a      	ldrb	r2, [r3, #0]
 80033dc:	2a00      	cmp	r2, #0
 80033de:	d1f9      	bne.n	80033d4 <USBD_GetLen+0x6>
    }

    return len;
}
 80033e0:	4770      	bx	lr

080033e2 <USBD_SetFeature>:
{
 80033e2:	b510      	push	{r4, lr}
 80033e4:	0004      	movs	r4, r0
  if (req->wValue == USB_FEATURE_REMOTE_WAKEUP)
 80033e6:	884b      	ldrh	r3, [r1, #2]
 80033e8:	2b01      	cmp	r3, #1
 80033ea:	d000      	beq.n	80033ee <USBD_SetFeature+0xc>
}
 80033ec:	bd10      	pop	{r4, pc}
    pdev->dev_remote_wakeup = 1;  
 80033ee:	2201      	movs	r2, #1
 80033f0:	2381      	movs	r3, #129	; 0x81
 80033f2:	009b      	lsls	r3, r3, #2
 80033f4:	50c2      	str	r2, [r0, r3]
    pdev->pClass->Setup (pdev, req);   
 80033f6:	3310      	adds	r3, #16
 80033f8:	58c3      	ldr	r3, [r0, r3]
 80033fa:	689b      	ldr	r3, [r3, #8]
 80033fc:	4798      	blx	r3
    USBD_CtlSendStatus(pdev);
 80033fe:	0020      	movs	r0, r4
 8003400:	f000 fad0 	bl	80039a4 <USBD_CtlSendStatus>
}
 8003404:	e7f2      	b.n	80033ec <USBD_SetFeature+0xa>

08003406 <USBD_ParseSetupRequest>:
  req->bmRequest     = *(uint8_t *)  (pdata);
 8003406:	780b      	ldrb	r3, [r1, #0]
 8003408:	7003      	strb	r3, [r0, #0]
  req->bRequest      = *(uint8_t *)  (pdata +  1);
 800340a:	784b      	ldrb	r3, [r1, #1]
 800340c:	7043      	strb	r3, [r0, #1]
  req->wValue        = SWAPBYTE      (pdata +  2);
 800340e:	788b      	ldrb	r3, [r1, #2]
 8003410:	78ca      	ldrb	r2, [r1, #3]
 8003412:	0212      	lsls	r2, r2, #8
 8003414:	189b      	adds	r3, r3, r2
 8003416:	8043      	strh	r3, [r0, #2]
  req->wIndex        = SWAPBYTE      (pdata +  4);
 8003418:	790b      	ldrb	r3, [r1, #4]
 800341a:	794a      	ldrb	r2, [r1, #5]
 800341c:	0212      	lsls	r2, r2, #8
 800341e:	189b      	adds	r3, r3, r2
 8003420:	8083      	strh	r3, [r0, #4]
  req->wLength       = SWAPBYTE      (pdata +  6);
 8003422:	798b      	ldrb	r3, [r1, #6]
 8003424:	79ca      	ldrb	r2, [r1, #7]
 8003426:	0212      	lsls	r2, r2, #8
 8003428:	189b      	adds	r3, r3, r2
 800342a:	80c3      	strh	r3, [r0, #6]
}
 800342c:	4770      	bx	lr

0800342e <USBD_CtlError>:
{
 800342e:	b510      	push	{r4, lr}
 8003430:	0004      	movs	r4, r0
  USBD_LL_StallEP(pdev , 0x80);
 8003432:	2180      	movs	r1, #128	; 0x80
 8003434:	f001 fb07 	bl	8004a46 <USBD_LL_StallEP>
  USBD_LL_StallEP(pdev , 0);
 8003438:	2100      	movs	r1, #0
 800343a:	0020      	movs	r0, r4
 800343c:	f001 fb03 	bl	8004a46 <USBD_LL_StallEP>
}
 8003440:	bd10      	pop	{r4, pc}
	...

08003444 <USBD_GetDescriptor>:
{
 8003444:	b530      	push	{r4, r5, lr}
 8003446:	b083      	sub	sp, #12
 8003448:	0004      	movs	r4, r0
 800344a:	000d      	movs	r5, r1
  switch (req->wValue >> 8)
 800344c:	884a      	ldrh	r2, [r1, #2]
 800344e:	0a13      	lsrs	r3, r2, #8
 8003450:	2b07      	cmp	r3, #7
 8003452:	d900      	bls.n	8003456 <USBD_GetDescriptor+0x12>
 8003454:	e08e      	b.n	8003574 <USBD_GetDescriptor+0x130>
 8003456:	009b      	lsls	r3, r3, #2
 8003458:	494f      	ldr	r1, [pc, #316]	; (8003598 <USBD_GetDescriptor+0x154>)
 800345a:	58cb      	ldr	r3, [r1, r3]
 800345c:	469f      	mov	pc, r3
    pbuf = pdev->pDesc->GetDeviceDescriptor(pdev->dev_speed, &len);
 800345e:	2384      	movs	r3, #132	; 0x84
 8003460:	009b      	lsls	r3, r3, #2
 8003462:	58c3      	ldr	r3, [r0, r3]
 8003464:	681b      	ldr	r3, [r3, #0]
 8003466:	7c00      	ldrb	r0, [r0, #16]
 8003468:	466a      	mov	r2, sp
 800346a:	1d91      	adds	r1, r2, #6
 800346c:	4798      	blx	r3
  if((len != 0)&& (req->wLength != 0))
 800346e:	466b      	mov	r3, sp
 8003470:	3306      	adds	r3, #6
 8003472:	881b      	ldrh	r3, [r3, #0]
 8003474:	2b00      	cmp	r3, #0
 8003476:	d003      	beq.n	8003480 <USBD_GetDescriptor+0x3c>
 8003478:	88ea      	ldrh	r2, [r5, #6]
 800347a:	2a00      	cmp	r2, #0
 800347c:	d000      	beq.n	8003480 <USBD_GetDescriptor+0x3c>
 800347e:	e07e      	b.n	800357e <USBD_GetDescriptor+0x13a>
}
 8003480:	b003      	add	sp, #12
 8003482:	bd30      	pop	{r4, r5, pc}
    if(pdev->dev_speed == USBD_SPEED_HIGH )   
 8003484:	7c03      	ldrb	r3, [r0, #16]
 8003486:	2b00      	cmp	r3, #0
 8003488:	d109      	bne.n	800349e <USBD_GetDescriptor+0x5a>
      pbuf   = (uint8_t *)pdev->pClass->GetHSConfigDescriptor(&len);
 800348a:	2385      	movs	r3, #133	; 0x85
 800348c:	009b      	lsls	r3, r3, #2
 800348e:	58c3      	ldr	r3, [r0, r3]
 8003490:	6a9b      	ldr	r3, [r3, #40]	; 0x28
 8003492:	466a      	mov	r2, sp
 8003494:	1d90      	adds	r0, r2, #6
 8003496:	4798      	blx	r3
      pbuf[1] = USB_DESC_TYPE_CONFIGURATION;
 8003498:	2302      	movs	r3, #2
 800349a:	7043      	strb	r3, [r0, #1]
 800349c:	e7e7      	b.n	800346e <USBD_GetDescriptor+0x2a>
      pbuf   = (uint8_t *)pdev->pClass->GetFSConfigDescriptor(&len);
 800349e:	2385      	movs	r3, #133	; 0x85
 80034a0:	009b      	lsls	r3, r3, #2
 80034a2:	58c3      	ldr	r3, [r0, r3]
 80034a4:	6adb      	ldr	r3, [r3, #44]	; 0x2c
 80034a6:	466a      	mov	r2, sp
 80034a8:	1d90      	adds	r0, r2, #6
 80034aa:	4798      	blx	r3
      pbuf[1] = USB_DESC_TYPE_CONFIGURATION;
 80034ac:	2302      	movs	r3, #2
 80034ae:	7043      	strb	r3, [r0, #1]
 80034b0:	e7dd      	b.n	800346e <USBD_GetDescriptor+0x2a>
    switch ((uint8_t)(req->wValue))
 80034b2:	b2d2      	uxtb	r2, r2
 80034b4:	2a05      	cmp	r2, #5
 80034b6:	d839      	bhi.n	800352c <USBD_GetDescriptor+0xe8>
 80034b8:	0092      	lsls	r2, r2, #2
 80034ba:	4b38      	ldr	r3, [pc, #224]	; (800359c <USBD_GetDescriptor+0x158>)
 80034bc:	589b      	ldr	r3, [r3, r2]
 80034be:	469f      	mov	pc, r3
     pbuf = pdev->pDesc->GetLangIDStrDescriptor(pdev->dev_speed, &len);        
 80034c0:	2384      	movs	r3, #132	; 0x84
 80034c2:	009b      	lsls	r3, r3, #2
 80034c4:	58c3      	ldr	r3, [r0, r3]
 80034c6:	685b      	ldr	r3, [r3, #4]
 80034c8:	7c00      	ldrb	r0, [r0, #16]
 80034ca:	466a      	mov	r2, sp
 80034cc:	1d91      	adds	r1, r2, #6
 80034ce:	4798      	blx	r3
      break;
 80034d0:	e7cd      	b.n	800346e <USBD_GetDescriptor+0x2a>
      pbuf = pdev->pDesc->GetManufacturerStrDescriptor(pdev->dev_speed, &len);
 80034d2:	2384      	movs	r3, #132	; 0x84
 80034d4:	009b      	lsls	r3, r3, #2
 80034d6:	58c3      	ldr	r3, [r0, r3]
 80034d8:	689b      	ldr	r3, [r3, #8]
 80034da:	7c00      	ldrb	r0, [r0, #16]
 80034dc:	466a      	mov	r2, sp
 80034de:	1d91      	adds	r1, r2, #6
 80034e0:	4798      	blx	r3
      break;
 80034e2:	e7c4      	b.n	800346e <USBD_GetDescriptor+0x2a>
      pbuf = pdev->pDesc->GetProductStrDescriptor(pdev->dev_speed, &len);
 80034e4:	2384      	movs	r3, #132	; 0x84
 80034e6:	009b      	lsls	r3, r3, #2
 80034e8:	58c3      	ldr	r3, [r0, r3]
 80034ea:	68db      	ldr	r3, [r3, #12]
 80034ec:	7c00      	ldrb	r0, [r0, #16]
 80034ee:	466a      	mov	r2, sp
 80034f0:	1d91      	adds	r1, r2, #6
 80034f2:	4798      	blx	r3
      break;
 80034f4:	e7bb      	b.n	800346e <USBD_GetDescriptor+0x2a>
      pbuf = pdev->pDesc->GetSerialStrDescriptor(pdev->dev_speed, &len);
 80034f6:	2384      	movs	r3, #132	; 0x84
 80034f8:	009b      	lsls	r3, r3, #2
 80034fa:	58c3      	ldr	r3, [r0, r3]
 80034fc:	691b      	ldr	r3, [r3, #16]
 80034fe:	7c00      	ldrb	r0, [r0, #16]
 8003500:	466a      	mov	r2, sp
 8003502:	1d91      	adds	r1, r2, #6
 8003504:	4798      	blx	r3
      break;
 8003506:	e7b2      	b.n	800346e <USBD_GetDescriptor+0x2a>
      pbuf = pdev->pDesc->GetConfigurationStrDescriptor(pdev->dev_speed, &len);
 8003508:	2384      	movs	r3, #132	; 0x84
 800350a:	009b      	lsls	r3, r3, #2
 800350c:	58c3      	ldr	r3, [r0, r3]
 800350e:	695b      	ldr	r3, [r3, #20]
 8003510:	7c00      	ldrb	r0, [r0, #16]
 8003512:	466a      	mov	r2, sp
 8003514:	1d91      	adds	r1, r2, #6
 8003516:	4798      	blx	r3
      break;
 8003518:	e7a9      	b.n	800346e <USBD_GetDescriptor+0x2a>
      pbuf = pdev->pDesc->GetInterfaceStrDescriptor(pdev->dev_speed, &len);
 800351a:	2384      	movs	r3, #132	; 0x84
 800351c:	009b      	lsls	r3, r3, #2
 800351e:	58c3      	ldr	r3, [r0, r3]
 8003520:	699b      	ldr	r3, [r3, #24]
 8003522:	7c00      	ldrb	r0, [r0, #16]
 8003524:	466a      	mov	r2, sp
 8003526:	1d91      	adds	r1, r2, #6
 8003528:	4798      	blx	r3
      break;
 800352a:	e7a0      	b.n	800346e <USBD_GetDescriptor+0x2a>
       USBD_CtlError(pdev , req);
 800352c:	0029      	movs	r1, r5
 800352e:	f7ff ff7e 	bl	800342e <USBD_CtlError>
      return;
 8003532:	e7a5      	b.n	8003480 <USBD_GetDescriptor+0x3c>
    if(pdev->dev_speed == USBD_SPEED_HIGH  )   
 8003534:	7c03      	ldrb	r3, [r0, #16]
 8003536:	2b00      	cmp	r3, #0
 8003538:	d107      	bne.n	800354a <USBD_GetDescriptor+0x106>
      pbuf   = (uint8_t *)pdev->pClass->GetDeviceQualifierDescriptor(&len);
 800353a:	2385      	movs	r3, #133	; 0x85
 800353c:	009b      	lsls	r3, r3, #2
 800353e:	58c3      	ldr	r3, [r0, r3]
 8003540:	6b5b      	ldr	r3, [r3, #52]	; 0x34
 8003542:	466a      	mov	r2, sp
 8003544:	1d90      	adds	r0, r2, #6
 8003546:	4798      	blx	r3
      break;
 8003548:	e791      	b.n	800346e <USBD_GetDescriptor+0x2a>
      USBD_CtlError(pdev , req);
 800354a:	0029      	movs	r1, r5
 800354c:	f7ff ff6f 	bl	800342e <USBD_CtlError>
      return;
 8003550:	e796      	b.n	8003480 <USBD_GetDescriptor+0x3c>
    if(pdev->dev_speed == USBD_SPEED_HIGH  )   
 8003552:	7c03      	ldrb	r3, [r0, #16]
 8003554:	2b00      	cmp	r3, #0
 8003556:	d109      	bne.n	800356c <USBD_GetDescriptor+0x128>
      pbuf   = (uint8_t *)pdev->pClass->GetOtherSpeedConfigDescriptor(&len);
 8003558:	2385      	movs	r3, #133	; 0x85
 800355a:	009b      	lsls	r3, r3, #2
 800355c:	58c3      	ldr	r3, [r0, r3]
 800355e:	6b1b      	ldr	r3, [r3, #48]	; 0x30
 8003560:	466a      	mov	r2, sp
 8003562:	1d90      	adds	r0, r2, #6
 8003564:	4798      	blx	r3
      pbuf[1] = USB_DESC_TYPE_OTHER_SPEED_CONFIGURATION;
 8003566:	2307      	movs	r3, #7
 8003568:	7043      	strb	r3, [r0, #1]
      break; 
 800356a:	e780      	b.n	800346e <USBD_GetDescriptor+0x2a>
      USBD_CtlError(pdev , req);
 800356c:	0029      	movs	r1, r5
 800356e:	f7ff ff5e 	bl	800342e <USBD_CtlError>
      return;
 8003572:	e785      	b.n	8003480 <USBD_GetDescriptor+0x3c>
     USBD_CtlError(pdev , req);
 8003574:	0029      	movs	r1, r5
 8003576:	0020      	movs	r0, r4
 8003578:	f7ff ff59 	bl	800342e <USBD_CtlError>
    return;
 800357c:	e780      	b.n	8003480 <USBD_GetDescriptor+0x3c>
    len = MIN(len , req->wLength);
 800357e:	1c19      	adds	r1, r3, #0
 8003580:	4293      	cmp	r3, r2
 8003582:	d900      	bls.n	8003586 <USBD_GetDescriptor+0x142>
 8003584:	1c11      	adds	r1, r2, #0
 8003586:	b28a      	uxth	r2, r1
 8003588:	466b      	mov	r3, sp
 800358a:	80d9      	strh	r1, [r3, #6]
    USBD_CtlSendData (pdev, 
 800358c:	0001      	movs	r1, r0
 800358e:	0020      	movs	r0, r4
 8003590:	f000 f9da 	bl	8003948 <USBD_CtlSendData>
 8003594:	e774      	b.n	8003480 <USBD_GetDescriptor+0x3c>
 8003596:	46c0      	nop			; (mov r8, r8)
 8003598:	08004d10 	.word	0x08004d10
 800359c:	08004d30 	.word	0x08004d30

080035a0 <USBD_SetAddress>:
{
 80035a0:	b570      	push	{r4, r5, r6, lr}
 80035a2:	0004      	movs	r4, r0
  if ((req->wIndex == 0) && (req->wLength == 0)) 
 80035a4:	888b      	ldrh	r3, [r1, #4]
 80035a6:	2b00      	cmp	r3, #0
 80035a8:	d122      	bne.n	80035f0 <USBD_SetAddress+0x50>
 80035aa:	88cb      	ldrh	r3, [r1, #6]
 80035ac:	2b00      	cmp	r3, #0
 80035ae:	d11f      	bne.n	80035f0 <USBD_SetAddress+0x50>
    dev_addr = (uint8_t)(req->wValue) & 0x7F;     
 80035b0:	788b      	ldrb	r3, [r1, #2]
 80035b2:	257f      	movs	r5, #127	; 0x7f
 80035b4:	401d      	ands	r5, r3
    if (pdev->dev_state == USBD_STATE_CONFIGURED) 
 80035b6:	23fe      	movs	r3, #254	; 0xfe
 80035b8:	005b      	lsls	r3, r3, #1
 80035ba:	5cc3      	ldrb	r3, [r0, r3]
 80035bc:	2b03      	cmp	r3, #3
 80035be:	d00f      	beq.n	80035e0 <USBD_SetAddress+0x40>
      pdev->dev_address = dev_addr;
 80035c0:	23ff      	movs	r3, #255	; 0xff
 80035c2:	005b      	lsls	r3, r3, #1
 80035c4:	54c5      	strb	r5, [r0, r3]
      USBD_LL_SetUSBAddress(pdev, dev_addr);               
 80035c6:	0029      	movs	r1, r5
 80035c8:	f001 fa77 	bl	8004aba <USBD_LL_SetUSBAddress>
      USBD_CtlSendStatus(pdev);                         
 80035cc:	0020      	movs	r0, r4
 80035ce:	f000 f9e9 	bl	80039a4 <USBD_CtlSendStatus>
      if (dev_addr != 0) 
 80035d2:	2d00      	cmp	r5, #0
 80035d4:	d007      	beq.n	80035e6 <USBD_SetAddress+0x46>
        pdev->dev_state  = USBD_STATE_ADDRESSED;
 80035d6:	2202      	movs	r2, #2
 80035d8:	23fe      	movs	r3, #254	; 0xfe
 80035da:	005b      	lsls	r3, r3, #1
 80035dc:	54e2      	strb	r2, [r4, r3]
 80035de:	e00a      	b.n	80035f6 <USBD_SetAddress+0x56>
      USBD_CtlError(pdev , req);
 80035e0:	f7ff ff25 	bl	800342e <USBD_CtlError>
 80035e4:	e007      	b.n	80035f6 <USBD_SetAddress+0x56>
        pdev->dev_state  = USBD_STATE_DEFAULT; 
 80035e6:	2201      	movs	r2, #1
 80035e8:	23fe      	movs	r3, #254	; 0xfe
 80035ea:	005b      	lsls	r3, r3, #1
 80035ec:	54e2      	strb	r2, [r4, r3]
 80035ee:	e002      	b.n	80035f6 <USBD_SetAddress+0x56>
     USBD_CtlError(pdev , req);                        
 80035f0:	0020      	movs	r0, r4
 80035f2:	f7ff ff1c 	bl	800342e <USBD_CtlError>
}
 80035f6:	bd70      	pop	{r4, r5, r6, pc}

080035f8 <USBD_SetConfig>:
{
 80035f8:	b570      	push	{r4, r5, r6, lr}
 80035fa:	0004      	movs	r4, r0
 80035fc:	000d      	movs	r5, r1
  cfgidx = (uint8_t)(req->wValue);                 
 80035fe:	7889      	ldrb	r1, [r1, #2]
 8003600:	4b28      	ldr	r3, [pc, #160]	; (80036a4 <USBD_SetConfig+0xac>)
 8003602:	7019      	strb	r1, [r3, #0]
  if (cfgidx > USBD_MAX_NUM_CONFIGURATION ) 
 8003604:	2901      	cmp	r1, #1
 8003606:	d80a      	bhi.n	800361e <USBD_SetConfig+0x26>
    switch (pdev->dev_state) 
 8003608:	23fe      	movs	r3, #254	; 0xfe
 800360a:	005b      	lsls	r3, r3, #1
 800360c:	5cc3      	ldrb	r3, [r0, r3]
 800360e:	2b02      	cmp	r3, #2
 8003610:	d009      	beq.n	8003626 <USBD_SetConfig+0x2e>
 8003612:	2b03      	cmp	r3, #3
 8003614:	d01e      	beq.n	8003654 <USBD_SetConfig+0x5c>
       USBD_CtlError(pdev , req);                     
 8003616:	0029      	movs	r1, r5
 8003618:	f7ff ff09 	bl	800342e <USBD_CtlError>
      break;
 800361c:	e002      	b.n	8003624 <USBD_SetConfig+0x2c>
     USBD_CtlError(pdev , req);                              
 800361e:	0029      	movs	r1, r5
 8003620:	f7ff ff05 	bl	800342e <USBD_CtlError>
}
 8003624:	bd70      	pop	{r4, r5, r6, pc}
      if (cfgidx) 
 8003626:	2900      	cmp	r1, #0
 8003628:	d011      	beq.n	800364e <USBD_SetConfig+0x56>
        pdev->dev_config = cfgidx;
 800362a:	6041      	str	r1, [r0, #4]
        pdev->dev_state = USBD_STATE_CONFIGURED;
 800362c:	2203      	movs	r2, #3
 800362e:	23fe      	movs	r3, #254	; 0xfe
 8003630:	005b      	lsls	r3, r3, #1
 8003632:	54c2      	strb	r2, [r0, r3]
        if(USBD_SetClassConfig(pdev , cfgidx) == USBD_FAIL)
 8003634:	f7ff fd98 	bl	8003168 <USBD_SetClassConfig>
 8003638:	2802      	cmp	r0, #2
 800363a:	d003      	beq.n	8003644 <USBD_SetConfig+0x4c>
        USBD_CtlSendStatus(pdev);
 800363c:	0020      	movs	r0, r4
 800363e:	f000 f9b1 	bl	80039a4 <USBD_CtlSendStatus>
 8003642:	e7ef      	b.n	8003624 <USBD_SetConfig+0x2c>
          USBD_CtlError(pdev , req);  
 8003644:	0029      	movs	r1, r5
 8003646:	0020      	movs	r0, r4
 8003648:	f7ff fef1 	bl	800342e <USBD_CtlError>
          return;
 800364c:	e7ea      	b.n	8003624 <USBD_SetConfig+0x2c>
         USBD_CtlSendStatus(pdev);
 800364e:	f000 f9a9 	bl	80039a4 <USBD_CtlSendStatus>
 8003652:	e7e7      	b.n	8003624 <USBD_SetConfig+0x2c>
      if (cfgidx == 0) 
 8003654:	2900      	cmp	r1, #0
 8003656:	d011      	beq.n	800367c <USBD_SetConfig+0x84>
      else  if (cfgidx != pdev->dev_config) 
 8003658:	6843      	ldr	r3, [r0, #4]
 800365a:	4299      	cmp	r1, r3
 800365c:	d01e      	beq.n	800369c <USBD_SetConfig+0xa4>
        USBD_ClrClassConfig(pdev , pdev->dev_config);
 800365e:	b2d9      	uxtb	r1, r3
 8003660:	f7ff fd92 	bl	8003188 <USBD_ClrClassConfig>
        pdev->dev_config = cfgidx;
 8003664:	4b0f      	ldr	r3, [pc, #60]	; (80036a4 <USBD_SetConfig+0xac>)
 8003666:	7819      	ldrb	r1, [r3, #0]
 8003668:	6061      	str	r1, [r4, #4]
        if(USBD_SetClassConfig(pdev , cfgidx) == USBD_FAIL)
 800366a:	0020      	movs	r0, r4
 800366c:	f7ff fd7c 	bl	8003168 <USBD_SetClassConfig>
 8003670:	2802      	cmp	r0, #2
 8003672:	d00e      	beq.n	8003692 <USBD_SetConfig+0x9a>
        USBD_CtlSendStatus(pdev);
 8003674:	0020      	movs	r0, r4
 8003676:	f000 f995 	bl	80039a4 <USBD_CtlSendStatus>
 800367a:	e7d3      	b.n	8003624 <USBD_SetConfig+0x2c>
        pdev->dev_state = USBD_STATE_ADDRESSED;
 800367c:	2202      	movs	r2, #2
 800367e:	23fe      	movs	r3, #254	; 0xfe
 8003680:	005b      	lsls	r3, r3, #1
 8003682:	54c2      	strb	r2, [r0, r3]
        pdev->dev_config = cfgidx;          
 8003684:	6041      	str	r1, [r0, #4]
        USBD_ClrClassConfig(pdev , cfgidx);
 8003686:	f7ff fd7f 	bl	8003188 <USBD_ClrClassConfig>
        USBD_CtlSendStatus(pdev);
 800368a:	0020      	movs	r0, r4
 800368c:	f000 f98a 	bl	80039a4 <USBD_CtlSendStatus>
 8003690:	e7c8      	b.n	8003624 <USBD_SetConfig+0x2c>
          USBD_CtlError(pdev , req);  
 8003692:	0029      	movs	r1, r5
 8003694:	0020      	movs	r0, r4
 8003696:	f7ff feca 	bl	800342e <USBD_CtlError>
          return;
 800369a:	e7c3      	b.n	8003624 <USBD_SetConfig+0x2c>
        USBD_CtlSendStatus(pdev);
 800369c:	f000 f982 	bl	80039a4 <USBD_CtlSendStatus>
 80036a0:	e7c0      	b.n	8003624 <USBD_SetConfig+0x2c>
 80036a2:	46c0      	nop			; (mov r8, r8)
 80036a4:	2000017d 	.word	0x2000017d

080036a8 <USBD_GetConfig>:
{
 80036a8:	b510      	push	{r4, lr}
  if (req->wLength != 1) 
 80036aa:	88cb      	ldrh	r3, [r1, #6]
 80036ac:	2b01      	cmp	r3, #1
 80036ae:	d109      	bne.n	80036c4 <USBD_GetConfig+0x1c>
    switch (pdev->dev_state )  
 80036b0:	23fe      	movs	r3, #254	; 0xfe
 80036b2:	005b      	lsls	r3, r3, #1
 80036b4:	5cc3      	ldrb	r3, [r0, r3]
 80036b6:	2b02      	cmp	r3, #2
 80036b8:	d007      	beq.n	80036ca <USBD_GetConfig+0x22>
 80036ba:	2b03      	cmp	r3, #3
 80036bc:	d00d      	beq.n	80036da <USBD_GetConfig+0x32>
       USBD_CtlError(pdev , req);
 80036be:	f7ff feb6 	bl	800342e <USBD_CtlError>
}
 80036c2:	e001      	b.n	80036c8 <USBD_GetConfig+0x20>
     USBD_CtlError(pdev , req);
 80036c4:	f7ff feb3 	bl	800342e <USBD_CtlError>
}
 80036c8:	bd10      	pop	{r4, pc}
      pdev->dev_default_config = 0;
 80036ca:	2300      	movs	r3, #0
 80036cc:	6083      	str	r3, [r0, #8]
                        (uint8_t *)&pdev->dev_default_config,
 80036ce:	0001      	movs	r1, r0
 80036d0:	3108      	adds	r1, #8
      USBD_CtlSendData (pdev, 
 80036d2:	2201      	movs	r2, #1
 80036d4:	f000 f938 	bl	8003948 <USBD_CtlSendData>
      break;
 80036d8:	e7f6      	b.n	80036c8 <USBD_GetConfig+0x20>
                        (uint8_t *)&pdev->dev_config,
 80036da:	1d01      	adds	r1, r0, #4
      USBD_CtlSendData (pdev, 
 80036dc:	2201      	movs	r2, #1
 80036de:	f000 f933 	bl	8003948 <USBD_CtlSendData>
      break;
 80036e2:	e7f1      	b.n	80036c8 <USBD_GetConfig+0x20>

080036e4 <USBD_GetStatus>:
{
 80036e4:	b510      	push	{r4, lr}
  switch (pdev->dev_state) 
 80036e6:	23fe      	movs	r3, #254	; 0xfe
 80036e8:	005b      	lsls	r3, r3, #1
 80036ea:	5cc3      	ldrb	r3, [r0, r3]
 80036ec:	3b02      	subs	r3, #2
 80036ee:	b2db      	uxtb	r3, r3
 80036f0:	2b01      	cmp	r3, #1
 80036f2:	d80e      	bhi.n	8003712 <USBD_GetStatus+0x2e>
    pdev->dev_config_status = USB_CONFIG_SELF_POWERED;                                  
 80036f4:	2301      	movs	r3, #1
 80036f6:	60c3      	str	r3, [r0, #12]
    if (pdev->dev_remote_wakeup) 
 80036f8:	2381      	movs	r3, #129	; 0x81
 80036fa:	009b      	lsls	r3, r3, #2
 80036fc:	58c3      	ldr	r3, [r0, r3]
 80036fe:	2b00      	cmp	r3, #0
 8003700:	d001      	beq.n	8003706 <USBD_GetStatus+0x22>
       pdev->dev_config_status |= USB_CONFIG_REMOTE_WAKEUP;                                
 8003702:	2303      	movs	r3, #3
 8003704:	60c3      	str	r3, [r0, #12]
                      (uint8_t *)& pdev->dev_config_status,
 8003706:	0001      	movs	r1, r0
 8003708:	310c      	adds	r1, #12
    USBD_CtlSendData (pdev, 
 800370a:	2202      	movs	r2, #2
 800370c:	f000 f91c 	bl	8003948 <USBD_CtlSendData>
}
 8003710:	bd10      	pop	{r4, pc}
    USBD_CtlError(pdev , req);                        
 8003712:	f7ff fe8c 	bl	800342e <USBD_CtlError>
}
 8003716:	e7fb      	b.n	8003710 <USBD_GetStatus+0x2c>

08003718 <USBD_ClrFeature>:
{
 8003718:	b510      	push	{r4, lr}
 800371a:	0004      	movs	r4, r0
  switch (pdev->dev_state)
 800371c:	23fe      	movs	r3, #254	; 0xfe
 800371e:	005b      	lsls	r3, r3, #1
 8003720:	5cc3      	ldrb	r3, [r0, r3]
 8003722:	3b02      	subs	r3, #2
 8003724:	b2db      	uxtb	r3, r3
 8003726:	2b01      	cmp	r3, #1
 8003728:	d80f      	bhi.n	800374a <USBD_ClrFeature+0x32>
    if (req->wValue == USB_FEATURE_REMOTE_WAKEUP) 
 800372a:	884b      	ldrh	r3, [r1, #2]
 800372c:	2b01      	cmp	r3, #1
 800372e:	d000      	beq.n	8003732 <USBD_ClrFeature+0x1a>
}
 8003730:	bd10      	pop	{r4, pc}
      pdev->dev_remote_wakeup = 0; 
 8003732:	2200      	movs	r2, #0
 8003734:	2381      	movs	r3, #129	; 0x81
 8003736:	009b      	lsls	r3, r3, #2
 8003738:	50c2      	str	r2, [r0, r3]
      pdev->pClass->Setup (pdev, req);   
 800373a:	3310      	adds	r3, #16
 800373c:	58c3      	ldr	r3, [r0, r3]
 800373e:	689b      	ldr	r3, [r3, #8]
 8003740:	4798      	blx	r3
      USBD_CtlSendStatus(pdev);
 8003742:	0020      	movs	r0, r4
 8003744:	f000 f92e 	bl	80039a4 <USBD_CtlSendStatus>
 8003748:	e7f2      	b.n	8003730 <USBD_ClrFeature+0x18>
     USBD_CtlError(pdev , req);
 800374a:	f7ff fe70 	bl	800342e <USBD_CtlError>
}
 800374e:	e7ef      	b.n	8003730 <USBD_ClrFeature+0x18>

08003750 <USBD_StdDevReq>:
{
 8003750:	b510      	push	{r4, lr}
  switch (req->bRequest) 
 8003752:	784b      	ldrb	r3, [r1, #1]
 8003754:	2b09      	cmp	r3, #9
 8003756:	d819      	bhi.n	800378c <USBD_StdDevReq+0x3c>
 8003758:	009b      	lsls	r3, r3, #2
 800375a:	4a0e      	ldr	r2, [pc, #56]	; (8003794 <USBD_StdDevReq+0x44>)
 800375c:	58d3      	ldr	r3, [r2, r3]
 800375e:	469f      	mov	pc, r3
    USBD_GetDescriptor (pdev, req) ;
 8003760:	f7ff fe70 	bl	8003444 <USBD_GetDescriptor>
}
 8003764:	2000      	movs	r0, #0
 8003766:	bd10      	pop	{r4, pc}
    USBD_SetAddress(pdev, req);
 8003768:	f7ff ff1a 	bl	80035a0 <USBD_SetAddress>
    break;
 800376c:	e7fa      	b.n	8003764 <USBD_StdDevReq+0x14>
    USBD_SetConfig (pdev , req);
 800376e:	f7ff ff43 	bl	80035f8 <USBD_SetConfig>
    break;
 8003772:	e7f7      	b.n	8003764 <USBD_StdDevReq+0x14>
    USBD_GetConfig (pdev , req);
 8003774:	f7ff ff98 	bl	80036a8 <USBD_GetConfig>
    break;
 8003778:	e7f4      	b.n	8003764 <USBD_StdDevReq+0x14>
    USBD_GetStatus (pdev , req);
 800377a:	f7ff ffb3 	bl	80036e4 <USBD_GetStatus>
    break;
 800377e:	e7f1      	b.n	8003764 <USBD_StdDevReq+0x14>
    USBD_SetFeature (pdev , req);    
 8003780:	f7ff fe2f 	bl	80033e2 <USBD_SetFeature>
    break;
 8003784:	e7ee      	b.n	8003764 <USBD_StdDevReq+0x14>
    USBD_ClrFeature (pdev , req);
 8003786:	f7ff ffc7 	bl	8003718 <USBD_ClrFeature>
    break;
 800378a:	e7eb      	b.n	8003764 <USBD_StdDevReq+0x14>
    USBD_CtlError(pdev , req);
 800378c:	f7ff fe4f 	bl	800342e <USBD_CtlError>
    break;
 8003790:	e7e8      	b.n	8003764 <USBD_StdDevReq+0x14>
 8003792:	46c0      	nop			; (mov r8, r8)
 8003794:	08004d48 	.word	0x08004d48

08003798 <USBD_StdItfReq>:
{
 8003798:	b570      	push	{r4, r5, r6, lr}
 800379a:	0004      	movs	r4, r0
 800379c:	000d      	movs	r5, r1
  switch (pdev->dev_state) 
 800379e:	23fe      	movs	r3, #254	; 0xfe
 80037a0:	005b      	lsls	r3, r3, #1
 80037a2:	5cc3      	ldrb	r3, [r0, r3]
 80037a4:	2b03      	cmp	r3, #3
 80037a6:	d112      	bne.n	80037ce <USBD_StdItfReq+0x36>
    if (LOBYTE(req->wIndex) <= USBD_MAX_NUM_INTERFACES) 
 80037a8:	790b      	ldrb	r3, [r1, #4]
 80037aa:	2b01      	cmp	r3, #1
 80037ac:	d903      	bls.n	80037b6 <USBD_StdItfReq+0x1e>
       USBD_CtlError(pdev , req);
 80037ae:	f7ff fe3e 	bl	800342e <USBD_CtlError>
}
 80037b2:	2000      	movs	r0, #0
 80037b4:	bd70      	pop	{r4, r5, r6, pc}
      pdev->pClass->Setup (pdev, req); 
 80037b6:	2385      	movs	r3, #133	; 0x85
 80037b8:	009b      	lsls	r3, r3, #2
 80037ba:	58c3      	ldr	r3, [r0, r3]
 80037bc:	689b      	ldr	r3, [r3, #8]
 80037be:	4798      	blx	r3
      if((req->wLength == 0)&& (ret == USBD_OK))
 80037c0:	88eb      	ldrh	r3, [r5, #6]
 80037c2:	2b00      	cmp	r3, #0
 80037c4:	d1f5      	bne.n	80037b2 <USBD_StdItfReq+0x1a>
         USBD_CtlSendStatus(pdev);
 80037c6:	0020      	movs	r0, r4
 80037c8:	f000 f8ec 	bl	80039a4 <USBD_CtlSendStatus>
 80037cc:	e7f1      	b.n	80037b2 <USBD_StdItfReq+0x1a>
     USBD_CtlError(pdev , req);
 80037ce:	f7ff fe2e 	bl	800342e <USBD_CtlError>
    break;
 80037d2:	e7ee      	b.n	80037b2 <USBD_StdItfReq+0x1a>

080037d4 <USBD_StdEPReq>:
{
 80037d4:	b570      	push	{r4, r5, r6, lr}
 80037d6:	0005      	movs	r5, r0
 80037d8:	000c      	movs	r4, r1
  ep_addr  = LOBYTE(req->wIndex);   
 80037da:	888a      	ldrh	r2, [r1, #4]
 80037dc:	b2d1      	uxtb	r1, r2
  if ((req->bmRequest & 0x60) == 0x20)
 80037de:	7820      	ldrb	r0, [r4, #0]
 80037e0:	2360      	movs	r3, #96	; 0x60
 80037e2:	4003      	ands	r3, r0
 80037e4:	2b20      	cmp	r3, #32
 80037e6:	d012      	beq.n	800380e <USBD_StdEPReq+0x3a>
  switch (req->bRequest) 
 80037e8:	7863      	ldrb	r3, [r4, #1]
 80037ea:	2b01      	cmp	r3, #1
 80037ec:	d035      	beq.n	800385a <USBD_StdEPReq+0x86>
 80037ee:	2b00      	cmp	r3, #0
 80037f0:	d05b      	beq.n	80038aa <USBD_StdEPReq+0xd6>
 80037f2:	2b03      	cmp	r3, #3
 80037f4:	d112      	bne.n	800381c <USBD_StdEPReq+0x48>
    switch (pdev->dev_state) 
 80037f6:	33fa      	adds	r3, #250	; 0xfa
 80037f8:	33ff      	adds	r3, #255	; 0xff
 80037fa:	5ceb      	ldrb	r3, [r5, r3]
 80037fc:	2b02      	cmp	r3, #2
 80037fe:	d00f      	beq.n	8003820 <USBD_StdEPReq+0x4c>
 8003800:	2b03      	cmp	r3, #3
 8003802:	d015      	beq.n	8003830 <USBD_StdEPReq+0x5c>
      USBD_CtlError(pdev , req);
 8003804:	0021      	movs	r1, r4
 8003806:	0028      	movs	r0, r5
 8003808:	f7ff fe11 	bl	800342e <USBD_CtlError>
      break;    
 800380c:	e006      	b.n	800381c <USBD_StdEPReq+0x48>
    pdev->pClass->Setup (pdev, req);
 800380e:	33f5      	adds	r3, #245	; 0xf5
 8003810:	33ff      	adds	r3, #255	; 0xff
 8003812:	58eb      	ldr	r3, [r5, r3]
 8003814:	689b      	ldr	r3, [r3, #8]
 8003816:	0021      	movs	r1, r4
 8003818:	0028      	movs	r0, r5
 800381a:	4798      	blx	r3
}
 800381c:	2000      	movs	r0, #0
 800381e:	bd70      	pop	{r4, r5, r6, pc}
      if ((ep_addr != 0x00) && (ep_addr != 0x80)) 
 8003820:	2900      	cmp	r1, #0
 8003822:	d0fb      	beq.n	800381c <USBD_StdEPReq+0x48>
 8003824:	2980      	cmp	r1, #128	; 0x80
 8003826:	d0f9      	beq.n	800381c <USBD_StdEPReq+0x48>
        USBD_LL_StallEP(pdev , ep_addr);
 8003828:	0028      	movs	r0, r5
 800382a:	f001 f90c 	bl	8004a46 <USBD_LL_StallEP>
 800382e:	e7f5      	b.n	800381c <USBD_StdEPReq+0x48>
      if (req->wValue == USB_FEATURE_EP_HALT)
 8003830:	8863      	ldrh	r3, [r4, #2]
 8003832:	2b00      	cmp	r3, #0
 8003834:	d106      	bne.n	8003844 <USBD_StdEPReq+0x70>
        if ((ep_addr != 0x00) && (ep_addr != 0x80)) 
 8003836:	2900      	cmp	r1, #0
 8003838:	d004      	beq.n	8003844 <USBD_StdEPReq+0x70>
 800383a:	2980      	cmp	r1, #128	; 0x80
 800383c:	d002      	beq.n	8003844 <USBD_StdEPReq+0x70>
          USBD_LL_StallEP(pdev , ep_addr);
 800383e:	0028      	movs	r0, r5
 8003840:	f001 f901 	bl	8004a46 <USBD_LL_StallEP>
      pdev->pClass->Setup (pdev, req);   
 8003844:	2385      	movs	r3, #133	; 0x85
 8003846:	009b      	lsls	r3, r3, #2
 8003848:	58eb      	ldr	r3, [r5, r3]
 800384a:	689b      	ldr	r3, [r3, #8]
 800384c:	0021      	movs	r1, r4
 800384e:	0028      	movs	r0, r5
 8003850:	4798      	blx	r3
      USBD_CtlSendStatus(pdev);
 8003852:	0028      	movs	r0, r5
 8003854:	f000 f8a6 	bl	80039a4 <USBD_CtlSendStatus>
      break;
 8003858:	e7e0      	b.n	800381c <USBD_StdEPReq+0x48>
    switch (pdev->dev_state) 
 800385a:	23fe      	movs	r3, #254	; 0xfe
 800385c:	005b      	lsls	r3, r3, #1
 800385e:	5ceb      	ldrb	r3, [r5, r3]
 8003860:	2b02      	cmp	r3, #2
 8003862:	d006      	beq.n	8003872 <USBD_StdEPReq+0x9e>
 8003864:	2b03      	cmp	r3, #3
 8003866:	d00c      	beq.n	8003882 <USBD_StdEPReq+0xae>
      USBD_CtlError(pdev , req);
 8003868:	0021      	movs	r1, r4
 800386a:	0028      	movs	r0, r5
 800386c:	f7ff fddf 	bl	800342e <USBD_CtlError>
      break;    
 8003870:	e7d4      	b.n	800381c <USBD_StdEPReq+0x48>
      if ((ep_addr != 0x00) && (ep_addr != 0x80)) 
 8003872:	2900      	cmp	r1, #0
 8003874:	d0d2      	beq.n	800381c <USBD_StdEPReq+0x48>
 8003876:	2980      	cmp	r1, #128	; 0x80
 8003878:	d0d0      	beq.n	800381c <USBD_StdEPReq+0x48>
        USBD_LL_StallEP(pdev , ep_addr);
 800387a:	0028      	movs	r0, r5
 800387c:	f001 f8e3 	bl	8004a46 <USBD_LL_StallEP>
 8003880:	e7cc      	b.n	800381c <USBD_StdEPReq+0x48>
      if (req->wValue == USB_FEATURE_EP_HALT)
 8003882:	8863      	ldrh	r3, [r4, #2]
 8003884:	2b00      	cmp	r3, #0
 8003886:	d1c9      	bne.n	800381c <USBD_StdEPReq+0x48>
        if ((ep_addr & 0x7F) != 0x00) 
 8003888:	064b      	lsls	r3, r1, #25
 800388a:	d103      	bne.n	8003894 <USBD_StdEPReq+0xc0>
        USBD_CtlSendStatus(pdev);
 800388c:	0028      	movs	r0, r5
 800388e:	f000 f889 	bl	80039a4 <USBD_CtlSendStatus>
 8003892:	e7c3      	b.n	800381c <USBD_StdEPReq+0x48>
          USBD_LL_ClearStallEP(pdev , ep_addr);
 8003894:	0028      	movs	r0, r5
 8003896:	f001 f8e6 	bl	8004a66 <USBD_LL_ClearStallEP>
          pdev->pClass->Setup (pdev, req);
 800389a:	2385      	movs	r3, #133	; 0x85
 800389c:	009b      	lsls	r3, r3, #2
 800389e:	58eb      	ldr	r3, [r5, r3]
 80038a0:	689b      	ldr	r3, [r3, #8]
 80038a2:	0021      	movs	r1, r4
 80038a4:	0028      	movs	r0, r5
 80038a6:	4798      	blx	r3
 80038a8:	e7f0      	b.n	800388c <USBD_StdEPReq+0xb8>
    switch (pdev->dev_state) 
 80038aa:	23fe      	movs	r3, #254	; 0xfe
 80038ac:	005b      	lsls	r3, r3, #1
 80038ae:	5ceb      	ldrb	r3, [r5, r3]
 80038b0:	2b02      	cmp	r3, #2
 80038b2:	d006      	beq.n	80038c2 <USBD_StdEPReq+0xee>
 80038b4:	2b03      	cmp	r3, #3
 80038b6:	d00a      	beq.n	80038ce <USBD_StdEPReq+0xfa>
      USBD_CtlError(pdev , req);
 80038b8:	0021      	movs	r1, r4
 80038ba:	0028      	movs	r0, r5
 80038bc:	f7ff fdb7 	bl	800342e <USBD_CtlError>
      break;
 80038c0:	e7ac      	b.n	800381c <USBD_StdEPReq+0x48>
      if ((ep_addr & 0x7F) != 0x00) 
 80038c2:	064b      	lsls	r3, r1, #25
 80038c4:	d0aa      	beq.n	800381c <USBD_StdEPReq+0x48>
        USBD_LL_StallEP(pdev , ep_addr);
 80038c6:	0028      	movs	r0, r5
 80038c8:	f001 f8bd 	bl	8004a46 <USBD_LL_StallEP>
 80038cc:	e7a6      	b.n	800381c <USBD_StdEPReq+0x48>
      pep = ((ep_addr & 0x80) == 0x80) ? &pdev->ep_in[ep_addr & 0x7F]:\
 80038ce:	0613      	lsls	r3, r2, #24
 80038d0:	d412      	bmi.n	80038f8 <USBD_StdEPReq+0x124>
                                         &pdev->ep_out[ep_addr & 0x7F];
 80038d2:	247f      	movs	r4, #127	; 0x7f
 80038d4:	400c      	ands	r4, r1
      pep = ((ep_addr & 0x80) == 0x80) ? &pdev->ep_in[ep_addr & 0x7F]:\
 80038d6:	3410      	adds	r4, #16
 80038d8:	0124      	lsls	r4, r4, #4
 80038da:	192c      	adds	r4, r5, r4
 80038dc:	3404      	adds	r4, #4
      if(USBD_LL_IsStallEP(pdev, ep_addr))
 80038de:	0028      	movs	r0, r5
 80038e0:	f001 f8d1 	bl	8004a86 <USBD_LL_IsStallEP>
 80038e4:	2800      	cmp	r0, #0
 80038e6:	d00e      	beq.n	8003906 <USBD_StdEPReq+0x132>
        pep->status = 0x0001;     
 80038e8:	2301      	movs	r3, #1
 80038ea:	6023      	str	r3, [r4, #0]
      USBD_CtlSendData (pdev,
 80038ec:	2202      	movs	r2, #2
 80038ee:	0021      	movs	r1, r4
 80038f0:	0028      	movs	r0, r5
 80038f2:	f000 f829 	bl	8003948 <USBD_CtlSendData>
      break;
 80038f6:	e791      	b.n	800381c <USBD_StdEPReq+0x48>
      pep = ((ep_addr & 0x80) == 0x80) ? &pdev->ep_in[ep_addr & 0x7F]:\
 80038f8:	247f      	movs	r4, #127	; 0x7f
 80038fa:	400c      	ands	r4, r1
 80038fc:	3401      	adds	r4, #1
 80038fe:	0124      	lsls	r4, r4, #4
 8003900:	192c      	adds	r4, r5, r4
 8003902:	3404      	adds	r4, #4
 8003904:	e7eb      	b.n	80038de <USBD_StdEPReq+0x10a>
        pep->status = 0x0000;  
 8003906:	2300      	movs	r3, #0
 8003908:	6023      	str	r3, [r4, #0]
 800390a:	e7ef      	b.n	80038ec <USBD_StdEPReq+0x118>

0800390c <USBD_GetString>:
{
 800390c:	b570      	push	{r4, r5, r6, lr}
 800390e:	0004      	movs	r4, r0
 8003910:	000d      	movs	r5, r1
 8003912:	0016      	movs	r6, r2
  if (desc != NULL) 
 8003914:	2800      	cmp	r0, #0
 8003916:	d016      	beq.n	8003946 <USBD_GetString+0x3a>
    *len =  USBD_GetLen(desc) * 2 + 2;    
 8003918:	f7ff fd59 	bl	80033ce <USBD_GetLen>
 800391c:	1c43      	adds	r3, r0, #1
 800391e:	005b      	lsls	r3, r3, #1
 8003920:	b29b      	uxth	r3, r3
 8003922:	8033      	strh	r3, [r6, #0]
    unicode[idx++] = *len;
 8003924:	702b      	strb	r3, [r5, #0]
    unicode[idx++] =  USB_DESC_TYPE_STRING;
 8003926:	2303      	movs	r3, #3
 8003928:	706b      	strb	r3, [r5, #1]
 800392a:	3b01      	subs	r3, #1
    while (*desc != '\0') 
 800392c:	e008      	b.n	8003940 <USBD_GetString+0x34>
      unicode[idx++] = *desc++;
 800392e:	1c5a      	adds	r2, r3, #1
 8003930:	b2d2      	uxtb	r2, r2
 8003932:	3401      	adds	r4, #1
 8003934:	54e9      	strb	r1, [r5, r3]
      unicode[idx++] =  0x00;
 8003936:	3302      	adds	r3, #2
 8003938:	b2db      	uxtb	r3, r3
 800393a:	18aa      	adds	r2, r5, r2
 800393c:	2100      	movs	r1, #0
 800393e:	7011      	strb	r1, [r2, #0]
    while (*desc != '\0') 
 8003940:	7821      	ldrb	r1, [r4, #0]
 8003942:	2900      	cmp	r1, #0
 8003944:	d1f3      	bne.n	800392e <USBD_GetString+0x22>
}
 8003946:	bd70      	pop	{r4, r5, r6, pc}

08003948 <USBD_CtlSendData>:
* @retval status
*/
USBD_StatusTypeDef  USBD_CtlSendData (USBD_HandleTypeDef  *pdev, 
                               uint8_t *pbuf,
                               uint16_t len)
{
 8003948:	b510      	push	{r4, lr}
 800394a:	0013      	movs	r3, r2
  /* Set EP0 State */
  pdev->ep0_state          = USBD_EP0_DATA_IN;                                      
 800394c:	2402      	movs	r4, #2
 800394e:	22fa      	movs	r2, #250	; 0xfa
 8003950:	0052      	lsls	r2, r2, #1
 8003952:	5084      	str	r4, [r0, r2]
  pdev->ep_in[0].total_length = len;
 8003954:	6183      	str	r3, [r0, #24]
  pdev->ep_in[0].rem_length   = len;
 8003956:	61c3      	str	r3, [r0, #28]
 /* Start the transfer */
  USBD_LL_Transmit (pdev, 0x00, pbuf, len);  
 8003958:	000a      	movs	r2, r1
 800395a:	2100      	movs	r1, #0
 800395c:	f001 f8bd 	bl	8004ada <USBD_LL_Transmit>
  
  return USBD_OK;
}
 8003960:	2000      	movs	r0, #0
 8003962:	bd10      	pop	{r4, pc}

08003964 <USBD_CtlContinueSendData>:
* @retval status
*/
USBD_StatusTypeDef  USBD_CtlContinueSendData (USBD_HandleTypeDef  *pdev, 
                                       uint8_t *pbuf,
                                       uint16_t len)
{
 8003964:	b510      	push	{r4, lr}
 8003966:	0013      	movs	r3, r2
 /* Start the next transfer */
  USBD_LL_Transmit (pdev, 0x00, pbuf, len);   
 8003968:	000a      	movs	r2, r1
 800396a:	2100      	movs	r1, #0
 800396c:	f001 f8b5 	bl	8004ada <USBD_LL_Transmit>
  
  return USBD_OK;
}
 8003970:	2000      	movs	r0, #0
 8003972:	bd10      	pop	{r4, pc}

08003974 <USBD_CtlPrepareRx>:
* @retval status
*/
USBD_StatusTypeDef  USBD_CtlPrepareRx (USBD_HandleTypeDef  *pdev,
                                  uint8_t *pbuf,                                  
                                  uint16_t len)
{
 8003974:	b510      	push	{r4, lr}
 8003976:	0013      	movs	r3, r2
  /* Set EP0 State */
  pdev->ep0_state = USBD_EP0_DATA_OUT; 
 8003978:	2403      	movs	r4, #3
 800397a:	22fa      	movs	r2, #250	; 0xfa
 800397c:	0052      	lsls	r2, r2, #1
 800397e:	5084      	str	r4, [r0, r2]
  pdev->ep_out[0].total_length = len;
 8003980:	3aec      	subs	r2, #236	; 0xec
 8003982:	5083      	str	r3, [r0, r2]
  pdev->ep_out[0].rem_length   = len;
 8003984:	3204      	adds	r2, #4
 8003986:	5083      	str	r3, [r0, r2]
  /* Start the transfer */
  USBD_LL_PrepareReceive (pdev,
 8003988:	000a      	movs	r2, r1
 800398a:	2100      	movs	r1, #0
 800398c:	f001 f8b5 	bl	8004afa <USBD_LL_PrepareReceive>
                          0,
                          pbuf,
                         len);
  
  return USBD_OK;
}
 8003990:	2000      	movs	r0, #0
 8003992:	bd10      	pop	{r4, pc}

08003994 <USBD_CtlContinueRx>:
* @retval status
*/
USBD_StatusTypeDef  USBD_CtlContinueRx (USBD_HandleTypeDef  *pdev, 
                                          uint8_t *pbuf,                                          
                                          uint16_t len)
{
 8003994:	b510      	push	{r4, lr}
 8003996:	0013      	movs	r3, r2

  USBD_LL_PrepareReceive (pdev,
 8003998:	000a      	movs	r2, r1
 800399a:	2100      	movs	r1, #0
 800399c:	f001 f8ad 	bl	8004afa <USBD_LL_PrepareReceive>
                          0,                     
                          pbuf,                         
                          len);
  return USBD_OK;
}
 80039a0:	2000      	movs	r0, #0
 80039a2:	bd10      	pop	{r4, pc}

080039a4 <USBD_CtlSendStatus>:
*         send zero lzngth packet on the ctl pipe
* @param  pdev: device instance
* @retval status
*/
USBD_StatusTypeDef  USBD_CtlSendStatus (USBD_HandleTypeDef  *pdev)
{
 80039a4:	b510      	push	{r4, lr}

  /* Set EP0 State */
  pdev->ep0_state = USBD_EP0_STATUS_IN;
 80039a6:	2204      	movs	r2, #4
 80039a8:	23fa      	movs	r3, #250	; 0xfa
 80039aa:	005b      	lsls	r3, r3, #1
 80039ac:	50c2      	str	r2, [r0, r3]
  
 /* Start the transfer */
  USBD_LL_Transmit (pdev, 0x00, NULL, 0);   
 80039ae:	2300      	movs	r3, #0
 80039b0:	2200      	movs	r2, #0
 80039b2:	2100      	movs	r1, #0
 80039b4:	f001 f891 	bl	8004ada <USBD_LL_Transmit>
  
  return USBD_OK;
}
 80039b8:	2000      	movs	r0, #0
 80039ba:	bd10      	pop	{r4, pc}

080039bc <USBD_CtlReceiveStatus>:
*         receive zero lzngth packet on the ctl pipe
* @param  pdev: device instance
* @retval status
*/
USBD_StatusTypeDef  USBD_CtlReceiveStatus (USBD_HandleTypeDef  *pdev)
{
 80039bc:	b510      	push	{r4, lr}
  /* Set EP0 State */
  pdev->ep0_state = USBD_EP0_STATUS_OUT; 
 80039be:	2205      	movs	r2, #5
 80039c0:	23fa      	movs	r3, #250	; 0xfa
 80039c2:	005b      	lsls	r3, r3, #1
 80039c4:	50c2      	str	r2, [r0, r3]
  
 /* Start the transfer */  
  USBD_LL_PrepareReceive ( pdev,
 80039c6:	2300      	movs	r3, #0
 80039c8:	2200      	movs	r2, #0
 80039ca:	2100      	movs	r1, #0
 80039cc:	f001 f895 	bl	8004afa <USBD_LL_PrepareReceive>
                    0,
                    NULL,
                    0);  

  return USBD_OK;
}
 80039d0:	2000      	movs	r0, #0
 80039d2:	bd10      	pop	{r4, pc}

080039d4 <RebootToBootloader>:

#include "stm32f0xx_hal.h"
#include "usb_device.h"

//call this at any time to initiate a reboot into bootloader
void RebootToBootloader(){
 80039d4:	b500      	push	{lr}
 80039d6:	b087      	sub	sp, #28


    FLASH_OBProgramInitTypeDef OBParam;

    HAL_FLASHEx_OBGetConfig(&OBParam);
 80039d8:	4668      	mov	r0, sp
 80039da:	f7fd fb19 	bl	8001010 <HAL_FLASHEx_OBGetConfig>

    OBParam.OptionType = OPTIONBYTE_USER;
 80039de:	2304      	movs	r3, #4
 80039e0:	9300      	str	r3, [sp, #0]
    /*Reset NBOOT0 and BOOT_SEL,  see: RM 2.5 Boot configuration*/
    OBParam.USERConfig = 0x77; //Sorry for magic number :)
 80039e2:	3373      	adds	r3, #115	; 0x73
 80039e4:	466a      	mov	r2, sp
 80039e6:	7353      	strb	r3, [r2, #13]

    HAL_FLASH_Unlock();
 80039e8:	f7fd f9a8 	bl	8000d3c <HAL_FLASH_Unlock>
    HAL_FLASH_OB_Unlock();
 80039ec:	f7fd f9c2 	bl	8000d74 <HAL_FLASH_OB_Unlock>

    HAL_FLASHEx_OBErase();
 80039f0:	f7fd fa4a 	bl	8000e88 <HAL_FLASHEx_OBErase>

    HAL_FLASHEx_OBProgram(&OBParam);
 80039f4:	4668      	mov	r0, sp
 80039f6:	f7fd fa75 	bl	8000ee4 <HAL_FLASHEx_OBProgram>

    HAL_FLASH_OB_Lock();
 80039fa:	f7fd f9cf 	bl	8000d9c <HAL_FLASH_OB_Lock>
    HAL_FLASH_Lock();
 80039fe:	f7fd f9af 	bl	8000d60 <HAL_FLASH_Lock>

    HAL_FLASH_OB_Launch();
 8003a02:	f7fd fa01 	bl	8000e08 <HAL_FLASH_OB_Launch>
}
 8003a06:	b007      	add	sp, #28
 8003a08:	bd00      	pop	{pc}

08003a0a <bootloaderSwitcher>:

//turns off BOOT0 pin
void bootloaderSwitcher(){
 8003a0a:	b500      	push	{lr}
 8003a0c:	b087      	sub	sp, #28
    FLASH_OBProgramInitTypeDef OBParam;

    HAL_FLASHEx_OBGetConfig(&OBParam);
 8003a0e:	4668      	mov	r0, sp
 8003a10:	f7fd fafe 	bl	8001010 <HAL_FLASHEx_OBGetConfig>

    if(OBParam.USERConfig != 0x7F)
 8003a14:	466b      	mov	r3, sp
 8003a16:	7b5b      	ldrb	r3, [r3, #13]
 8003a18:	2b7f      	cmp	r3, #127	; 0x7f
 8003a1a:	d011      	beq.n	8003a40 <bootloaderSwitcher+0x36>
    {

        OBParam.OptionType = OPTIONBYTE_USER;
 8003a1c:	2304      	movs	r3, #4
 8003a1e:	9300      	str	r3, [sp, #0]
        OBParam.USERConfig = 0x7F;
 8003a20:	337b      	adds	r3, #123	; 0x7b
 8003a22:	466a      	mov	r2, sp
 8003a24:	7353      	strb	r3, [r2, #13]

        HAL_FLASH_Unlock();
 8003a26:	f7fd f989 	bl	8000d3c <HAL_FLASH_Unlock>
        HAL_FLASH_OB_Unlock();
 8003a2a:	f7fd f9a3 	bl	8000d74 <HAL_FLASH_OB_Unlock>
        HAL_FLASHEx_OBErase();
 8003a2e:	f7fd fa2b 	bl	8000e88 <HAL_FLASHEx_OBErase>
        HAL_FLASHEx_OBProgram(&OBParam);
 8003a32:	4668      	mov	r0, sp
 8003a34:	f7fd fa56 	bl	8000ee4 <HAL_FLASHEx_OBProgram>
        HAL_FLASH_OB_Lock();
 8003a38:	f7fd f9b0 	bl	8000d9c <HAL_FLASH_OB_Lock>
        HAL_FLASH_OB_Launch();
 8003a3c:	f7fd f9e4 	bl	8000e08 <HAL_FLASH_OB_Launch>
    }
}
 8003a40:	b007      	add	sp, #28
 8003a42:	bd00      	pop	{pc}

08003a44 <SystemClock_Config>:
  RCC_ClkInitTypeDef RCC_ClkInitStruct;
  RCC_PeriphCLKInitTypeDef PeriphClkInit;

    /**Initializes the CPU, AHB and APB busses clocks
    */
  RCC_OscInitStruct.OscillatorType = RCC_OSCILLATORTYPE_HSI48|RCC_OSCILLATORTYPE_LSI|RCC_OSCILLATORTYPE_HSE;
 8003a44:	2329      	movs	r3, #41	; 0x29
{
 8003a46:	b530      	push	{r4, r5, lr}
 8003a48:	b099      	sub	sp, #100	; 0x64
  RCC_OscInitStruct.OscillatorType = RCC_OSCILLATORTYPE_HSI48|RCC_OSCILLATORTYPE_LSI|RCC_OSCILLATORTYPE_HSE;
 8003a4a:	930b      	str	r3, [sp, #44]	; 0x2c
  RCC_OscInitStruct.HSI48State = RCC_HSI48_ON;
  RCC_OscInitStruct.HSEState = RCC_HSE_ON;
  RCC_OscInitStruct.LSIState = RCC_LSI_ON;
  RCC_OscInitStruct.PLL.PLLState = RCC_PLL_ON;
  RCC_OscInitStruct.PLL.PLLMUL = RCC_PLL_MUL6;
 8003a4c:	2380      	movs	r3, #128	; 0x80
 8003a4e:	035b      	lsls	r3, r3, #13
 8003a50:	9316      	str	r3, [sp, #88]	; 0x58
  RCC_OscInitStruct.PLL.PLLSource = RCC_PLLSOURCE_HSE;
 8003a52:	2380      	movs	r3, #128	; 0x80
 8003a54:	025b      	lsls	r3, r3, #9
  RCC_OscInitStruct.HSI48State = RCC_HSI48_ON;
 8003a56:	2401      	movs	r4, #1
  RCC_OscInitStruct.PLL.PLLState = RCC_PLL_ON;
 8003a58:	2502      	movs	r5, #2
  RCC_OscInitStruct.PLL.PLLSource = RCC_PLLSOURCE_HSE;
 8003a5a:	9315      	str	r3, [sp, #84]	; 0x54
  RCC_OscInitStruct.PLL.PREDIV = RCC_PREDIV_DIV1;
 8003a5c:	2300      	movs	r3, #0

  if (HAL_RCC_OscConfig(&RCC_OscInitStruct) != HAL_OK)
 8003a5e:	a80b      	add	r0, sp, #44	; 0x2c
  RCC_OscInitStruct.HSI48State = RCC_HSI48_ON;
 8003a60:	9413      	str	r4, [sp, #76]	; 0x4c
  RCC_OscInitStruct.HSEState = RCC_HSE_ON;
 8003a62:	940c      	str	r4, [sp, #48]	; 0x30
  RCC_OscInitStruct.LSIState = RCC_LSI_ON;
 8003a64:	9412      	str	r4, [sp, #72]	; 0x48
  RCC_OscInitStruct.PLL.PLLState = RCC_PLL_ON;
 8003a66:	9514      	str	r5, [sp, #80]	; 0x50
  RCC_OscInitStruct.PLL.PREDIV = RCC_PREDIV_DIV1;
 8003a68:	9317      	str	r3, [sp, #92]	; 0x5c
  if (HAL_RCC_OscConfig(&RCC_OscInitStruct) != HAL_OK)
 8003a6a:	f7fe fd23 	bl	80024b4 <HAL_RCC_OscConfig>
 8003a6e:	2800      	cmp	r0, #0
 8003a70:	d000      	beq.n	8003a74 <SystemClock_Config+0x30>
 8003a72:	e7fe      	b.n	8003a72 <SystemClock_Config+0x2e>
    _Error_Handler(__FILE__, __LINE__);
  }

    /**Initializes the CPU, AHB and APB busses clocks
    */
  RCC_ClkInitStruct.ClockType = RCC_CLOCKTYPE_HCLK|RCC_CLOCKTYPE_SYSCLK
 8003a74:	2307      	movs	r3, #7
                              |RCC_CLOCKTYPE_PCLK1;
  RCC_ClkInitStruct.SYSCLKSource = RCC_SYSCLKSOURCE_PLLCLK;
  RCC_ClkInitStruct.AHBCLKDivider = RCC_SYSCLK_DIV1;
 8003a76:	9003      	str	r0, [sp, #12]
  RCC_ClkInitStruct.APB1CLKDivider = RCC_HCLK_DIV1;
 8003a78:	9004      	str	r0, [sp, #16]


  if (HAL_RCC_ClockConfig(&RCC_ClkInitStruct, FLASH_LATENCY_1) != HAL_OK)
 8003a7a:	0021      	movs	r1, r4
 8003a7c:	a801      	add	r0, sp, #4
  RCC_ClkInitStruct.ClockType = RCC_CLOCKTYPE_HCLK|RCC_CLOCKTYPE_SYSCLK
 8003a7e:	9301      	str	r3, [sp, #4]
  RCC_ClkInitStruct.SYSCLKSource = RCC_SYSCLKSOURCE_PLLCLK;
 8003a80:	9502      	str	r5, [sp, #8]
  if (HAL_RCC_ClockConfig(&RCC_ClkInitStruct, FLASH_LATENCY_1) != HAL_OK)
 8003a82:	f7fe fe7f 	bl	8002784 <HAL_RCC_ClockConfig>
 8003a86:	2800      	cmp	r0, #0
 8003a88:	d000      	beq.n	8003a8c <SystemClock_Config+0x48>
 8003a8a:	e7fe      	b.n	8003a8a <SystemClock_Config+0x46>
  {
    _Error_Handler(__FILE__, __LINE__);
  }

  PeriphClkInit.PeriphClockSelection = RCC_PERIPHCLK_USB;
 8003a8c:	2380      	movs	r3, #128	; 0x80
  PeriphClkInit.UsbClockSelection = RCC_USBCLKSOURCE_HSI48;
 8003a8e:	900a      	str	r0, [sp, #40]	; 0x28
  PeriphClkInit.PeriphClockSelection = RCC_PERIPHCLK_USB;
 8003a90:	029b      	lsls	r3, r3, #10

  if (HAL_RCCEx_PeriphCLKConfig(&PeriphClkInit) != HAL_OK)
 8003a92:	a805      	add	r0, sp, #20
  PeriphClkInit.PeriphClockSelection = RCC_PERIPHCLK_USB;
 8003a94:	9305      	str	r3, [sp, #20]
  if (HAL_RCCEx_PeriphCLKConfig(&PeriphClkInit) != HAL_OK)
 8003a96:	f7fe ff3d 	bl	8002914 <HAL_RCCEx_PeriphCLKConfig>
 8003a9a:	1e04      	subs	r4, r0, #0
 8003a9c:	d000      	beq.n	8003aa0 <SystemClock_Config+0x5c>
 8003a9e:	e7fe      	b.n	8003a9e <SystemClock_Config+0x5a>
    _Error_Handler(__FILE__, __LINE__);
  }

    /**Configure the Systick interrupt time
    */
  HAL_SYSTICK_Config(HAL_RCC_GetHCLKFreq()/1000);
 8003aa0:	f7fe ff32 	bl	8002908 <HAL_RCC_GetHCLKFreq>
 8003aa4:	21fa      	movs	r1, #250	; 0xfa
 8003aa6:	0089      	lsls	r1, r1, #2
 8003aa8:	f7fc fb2e 	bl	8000108 <__udivsi3>
 8003aac:	f7fd f83a 	bl	8000b24 <HAL_SYSTICK_Config>

    /**Configure the Systick
    */
  HAL_SYSTICK_CLKSourceConfig(SYSTICK_CLKSOURCE_HCLK);
 8003ab0:	2004      	movs	r0, #4
 8003ab2:	f7fd f853 	bl	8000b5c <HAL_SYSTICK_CLKSourceConfig>

  /* SysTick_IRQn interrupt configuration */
  HAL_NVIC_SetPriority(SysTick_IRQn, 0, 0);
 8003ab6:	2001      	movs	r0, #1
 8003ab8:	0022      	movs	r2, r4
 8003aba:	0021      	movs	r1, r4
 8003abc:	4240      	negs	r0, r0
 8003abe:	f7fc ffeb 	bl	8000a98 <HAL_NVIC_SetPriority>
}
 8003ac2:	b019      	add	sp, #100	; 0x64
 8003ac4:	bd30      	pop	{r4, r5, pc}
	...

08003ac8 <main>:
	serialNumber = TYPE_ID | (((*uid) << 8) & 0xFFFFFF00);
 8003ac8:	4b5a      	ldr	r3, [pc, #360]	; (8003c34 <main+0x16c>)
{
 8003aca:	b5f0      	push	{r4, r5, r6, r7, lr}
	serialNumber = TYPE_ID | (((*uid) << 8) & 0xFFFFFF00);
 8003acc:	681b      	ldr	r3, [r3, #0]
{
 8003ace:	b089      	sub	sp, #36	; 0x24
	serialNumber = TYPE_ID | (((*uid) << 8) & 0xFFFFFF00);
 8003ad0:	681a      	ldr	r2, [r3, #0]
 8003ad2:	2316      	movs	r3, #22
 8003ad4:	0212      	lsls	r2, r2, #8
 8003ad6:	4313      	orrs	r3, r2
 8003ad8:	4a57      	ldr	r2, [pc, #348]	; (8003c38 <main+0x170>)
{

  GPIO_InitTypeDef GPIO_InitStruct;

  /* GPIO Ports Clock Enable */
  __HAL_RCC_GPIOA_CLK_ENABLE();
 8003ada:	4d58      	ldr	r5, [pc, #352]	; (8003c3c <main+0x174>)
	serialNumber = TYPE_ID | (((*uid) << 8) & 0xFFFFFF00);
 8003adc:	6013      	str	r3, [r2, #0]
  bootloaderSwitcher();
 8003ade:	f7ff ff94 	bl	8003a0a <bootloaderSwitcher>
  HAL_Init();
 8003ae2:	f7fc fbaf 	bl	8000244 <HAL_Init>
  SystemClock_Config();
 8003ae6:	f7ff ffad 	bl	8003a44 <SystemClock_Config>
  __HAL_RCC_GPIOA_CLK_ENABLE();
 8003aea:	2180      	movs	r1, #128	; 0x80
 8003aec:	696a      	ldr	r2, [r5, #20]
 8003aee:	0289      	lsls	r1, r1, #10
 8003af0:	430a      	orrs	r2, r1
 8003af2:	616a      	str	r2, [r5, #20]
 8003af4:	696b      	ldr	r3, [r5, #20]
  __HAL_RCC_GPIOB_CLK_ENABLE();

  /*Configure GPIO pin Output Level */
  HAL_GPIO_WritePin(CAN_MOD_GPIO_Port, CAN_MOD_Pin|LED_Pin, GPIO_PIN_RESET);
 8003af6:	2482      	movs	r4, #130	; 0x82
  __HAL_RCC_GPIOA_CLK_ENABLE();
 8003af8:	400b      	ands	r3, r1
  __HAL_RCC_GPIOB_CLK_ENABLE();
 8003afa:	2180      	movs	r1, #128	; 0x80

  /*Configure GPIO pin : CAN_MOD_Pin */
  GPIO_InitStruct.Pin = CAN_MOD_Pin | LED_Pin;
  GPIO_InitStruct.Mode = GPIO_MODE_OUTPUT_PP;
  GPIO_InitStruct.Pull = GPIO_NOPULL;
 8003afc:	2700      	movs	r7, #0
  GPIO_InitStruct.Mode = GPIO_MODE_OUTPUT_PP;
 8003afe:	2601      	movs	r6, #1
  __HAL_RCC_GPIOA_CLK_ENABLE();
 8003b00:	9301      	str	r3, [sp, #4]
 8003b02:	9b01      	ldr	r3, [sp, #4]
  __HAL_RCC_GPIOB_CLK_ENABLE();
 8003b04:	696a      	ldr	r2, [r5, #20]
 8003b06:	02c9      	lsls	r1, r1, #11
 8003b08:	430a      	orrs	r2, r1
 8003b0a:	616a      	str	r2, [r5, #20]
 8003b0c:	696b      	ldr	r3, [r5, #20]
  HAL_GPIO_WritePin(CAN_MOD_GPIO_Port, CAN_MOD_Pin|LED_Pin, GPIO_PIN_RESET);
 8003b0e:	00e4      	lsls	r4, r4, #3
  __HAL_RCC_GPIOB_CLK_ENABLE();
 8003b10:	400b      	ands	r3, r1
  HAL_GPIO_WritePin(CAN_MOD_GPIO_Port, CAN_MOD_Pin|LED_Pin, GPIO_PIN_RESET);
 8003b12:	2200      	movs	r2, #0
 8003b14:	0021      	movs	r1, r4
  __HAL_RCC_GPIOB_CLK_ENABLE();
 8003b16:	9302      	str	r3, [sp, #8]
  HAL_GPIO_WritePin(CAN_MOD_GPIO_Port, CAN_MOD_Pin|LED_Pin, GPIO_PIN_RESET);
 8003b18:	4849      	ldr	r0, [pc, #292]	; (8003c40 <main+0x178>)
  __HAL_RCC_GPIOB_CLK_ENABLE();
 8003b1a:	9b02      	ldr	r3, [sp, #8]
  HAL_GPIO_WritePin(CAN_MOD_GPIO_Port, CAN_MOD_Pin|LED_Pin, GPIO_PIN_RESET);
 8003b1c:	f7fd fb4e 	bl	80011bc <HAL_GPIO_WritePin>
  GPIO_InitStruct.Speed = GPIO_SPEED_FREQ_LOW;
  HAL_GPIO_Init(CAN_MOD_GPIO_Port, &GPIO_InitStruct);
 8003b20:	a903      	add	r1, sp, #12
 8003b22:	4847      	ldr	r0, [pc, #284]	; (8003c40 <main+0x178>)
  GPIO_InitStruct.Pin = CAN_MOD_Pin | LED_Pin;
 8003b24:	9403      	str	r4, [sp, #12]
  GPIO_InitStruct.Mode = GPIO_MODE_OUTPUT_PP;
 8003b26:	9604      	str	r6, [sp, #16]
  GPIO_InitStruct.Pull = GPIO_NOPULL;
 8003b28:	9705      	str	r7, [sp, #20]
  GPIO_InitStruct.Speed = GPIO_SPEED_FREQ_LOW;
 8003b2a:	9706      	str	r7, [sp, #24]
  HAL_GPIO_Init(CAN_MOD_GPIO_Port, &GPIO_InitStruct);
 8003b2c:	f7fd fa86 	bl	800103c <HAL_GPIO_Init>
  hcan.Instance = CAN;
 8003b30:	4c44      	ldr	r4, [pc, #272]	; (8003c44 <main+0x17c>)
 8003b32:	4b45      	ldr	r3, [pc, #276]	; (8003c48 <main+0x180>)
  if (HAL_CAN_Init(&hcan) != HAL_OK)
 8003b34:	0020      	movs	r0, r4
  hcan.Instance = CAN;
 8003b36:	6023      	str	r3, [r4, #0]
  hcan.Init.Prescaler = 3;
 8003b38:	2303      	movs	r3, #3
 8003b3a:	6063      	str	r3, [r4, #4]
  hcan.Init.SJW = CAN_SJW_2TQ;
 8003b3c:	2380      	movs	r3, #128	; 0x80
 8003b3e:	045b      	lsls	r3, r3, #17
 8003b40:	60e3      	str	r3, [r4, #12]
  hcan.Init.BS1 = CAN_BS1_11TQ;
 8003b42:	23a0      	movs	r3, #160	; 0xa0
 8003b44:	031b      	lsls	r3, r3, #12
 8003b46:	6123      	str	r3, [r4, #16]
  hcan.Init.BS2 = CAN_BS2_4TQ;
 8003b48:	23c0      	movs	r3, #192	; 0xc0
 8003b4a:	039b      	lsls	r3, r3, #14
  hcan.Init.Mode = CAN_MODE_NORMAL;
 8003b4c:	60a7      	str	r7, [r4, #8]
  hcan.Init.BS2 = CAN_BS2_4TQ;
 8003b4e:	6163      	str	r3, [r4, #20]
  hcan.Init.TTCM = DISABLE;
 8003b50:	61a7      	str	r7, [r4, #24]
  hcan.Init.ABOM = ENABLE;
 8003b52:	61e6      	str	r6, [r4, #28]
  hcan.Init.AWUM = DISABLE;
 8003b54:	6227      	str	r7, [r4, #32]
  hcan.Init.NART = DISABLE;
 8003b56:	6267      	str	r7, [r4, #36]	; 0x24
  hcan.Init.RFLM = DISABLE;
 8003b58:	62a7      	str	r7, [r4, #40]	; 0x28
  hcan.Init.TXFP = DISABLE;
 8003b5a:	62e7      	str	r7, [r4, #44]	; 0x2c
  if (HAL_CAN_Init(&hcan) != HAL_OK)
 8003b5c:	f7fc fc06 	bl	800036c <HAL_CAN_Init>
 8003b60:	0001      	movs	r1, r0
 8003b62:	42b8      	cmp	r0, r7
 8003b64:	d000      	beq.n	8003b68 <main+0xa0>
 8003b66:	e7fe      	b.n	8003b66 <main+0x9e>
  __HAL_RCC_DMA1_CLK_ENABLE();
 8003b68:	696b      	ldr	r3, [r5, #20]
  HAL_NVIC_SetPriority(DMA1_Channel4_5_IRQn, 0, 0);
 8003b6a:	0002      	movs	r2, r0
  __HAL_RCC_DMA1_CLK_ENABLE();
 8003b6c:	4333      	orrs	r3, r6
 8003b6e:	616b      	str	r3, [r5, #20]
 8003b70:	696b      	ldr	r3, [r5, #20]
  HAL_NVIC_SetPriority(DMA1_Channel4_5_IRQn, 0, 0);
 8003b72:	200b      	movs	r0, #11
  __HAL_RCC_DMA1_CLK_ENABLE();
 8003b74:	4033      	ands	r3, r6
 8003b76:	9303      	str	r3, [sp, #12]
 8003b78:	9b03      	ldr	r3, [sp, #12]
  HAL_NVIC_SetPriority(DMA1_Channel4_5_IRQn, 0, 0);
 8003b7a:	f7fc ff8d 	bl	8000a98 <HAL_NVIC_SetPriority>
  HAL_NVIC_EnableIRQ(DMA1_Channel4_5_IRQn);
 8003b7e:	200b      	movs	r0, #11
 8003b80:	f7fc ffbc 	bl	8000afc <HAL_NVIC_EnableIRQ>
  MX_USB_DEVICE_Init();
 8003b84:	f000 fddc 	bl	8004740 <MX_USB_DEVICE_Init>
  hiwdg.Instance = IWDG;
 8003b88:	4d30      	ldr	r5, [pc, #192]	; (8003c4c <main+0x184>)
 8003b8a:	4b31      	ldr	r3, [pc, #196]	; (8003c50 <main+0x188>)
  if (HAL_IWDG_Init(&hiwdg) != HAL_OK)
 8003b8c:	0028      	movs	r0, r5
  hiwdg.Instance = IWDG;
 8003b8e:	602b      	str	r3, [r5, #0]
  hiwdg.Init.Prescaler = IWDG_PRESCALER_64;
 8003b90:	2304      	movs	r3, #4
 8003b92:	606b      	str	r3, [r5, #4]
  hiwdg.Init.Window = 4095;
 8003b94:	4b2f      	ldr	r3, [pc, #188]	; (8003c54 <main+0x18c>)
 8003b96:	60eb      	str	r3, [r5, #12]
  hiwdg.Init.Reload = 4095;
 8003b98:	60ab      	str	r3, [r5, #8]
  if (HAL_IWDG_Init(&hiwdg) != HAL_OK)
 8003b9a:	f7fd fb19 	bl	80011d0 <HAL_IWDG_Init>
 8003b9e:	1e07      	subs	r7, r0, #0
 8003ba0:	d000      	beq.n	8003ba4 <main+0xdc>
 8003ba2:	e7fe      	b.n	8003ba2 <main+0xda>
  hcan.pTxMsg = &CanTxBuffer;
 8003ba4:	4b2c      	ldr	r3, [pc, #176]	; (8003c58 <main+0x190>)
 8003ba6:	6323      	str	r3, [r4, #48]	; 0x30
  hcan.pRxMsg = &CanRxBuffer;
 8003ba8:	4b2c      	ldr	r3, [pc, #176]	; (8003c5c <main+0x194>)
 8003baa:	6363      	str	r3, [r4, #52]	; 0x34
  canRxFlags.flags.byte = 0;
 8003bac:	4b2c      	ldr	r3, [pc, #176]	; (8003c60 <main+0x198>)
 8003bae:	7018      	strb	r0, [r3, #0]
  slcanClearAllFilters();
 8003bb0:	f000 fc16 	bl	80043e0 <slcanClearAllFilters>
  HAL_NVIC_SetPriority(CEC_CAN_IRQn, 2, 2);
 8003bb4:	2202      	movs	r2, #2
 8003bb6:	201e      	movs	r0, #30
 8003bb8:	0011      	movs	r1, r2
 8003bba:	f7fc ff6d 	bl	8000a98 <HAL_NVIC_SetPriority>
  HAL_CAN_Receive_IT(&hcan, CAN_FIFO0);
 8003bbe:	0039      	movs	r1, r7
 8003bc0:	0020      	movs	r0, r4
 8003bc2:	f7fc fd17 	bl	80005f4 <HAL_CAN_Receive_IT>
		canRxFlags.flags.fifo1 = 0;
 8003bc6:	0037      	movs	r7, r6
	slCanCheckCommand(command);
 8003bc8:	4826      	ldr	r0, [pc, #152]	; (8003c64 <main+0x19c>)
 8003bca:	f000 f99d 	bl	8003f08 <slCanCheckCommand>
	slcanOutputFlush();
 8003bce:	f000 f947 	bl	8003e60 <slcanOutputFlush>
	if (canRxFlags.flags.byte != 0) {
 8003bd2:	4b23      	ldr	r3, [pc, #140]	; (8003c60 <main+0x198>)
 8003bd4:	781b      	ldrb	r3, [r3, #0]
 8003bd6:	2b00      	cmp	r3, #0
 8003bd8:	d00b      	beq.n	8003bf2 <main+0x12a>
		slcanReciveCanFrame(hcan.pRxMsg);
 8003bda:	6b60      	ldr	r0, [r4, #52]	; 0x34
 8003bdc:	f000 fba6 	bl	800432c <slcanReciveCanFrame>
		canRxFlags.flags.fifo1 = 0;
 8003be0:	4b1f      	ldr	r3, [pc, #124]	; (8003c60 <main+0x198>)
 8003be2:	4a1f      	ldr	r2, [pc, #124]	; (8003c60 <main+0x198>)
 8003be4:	781b      	ldrb	r3, [r3, #0]
		HAL_CAN_Receive_IT(&hcan, CAN_FIFO0);
 8003be6:	2100      	movs	r1, #0
		canRxFlags.flags.fifo1 = 0;
 8003be8:	43bb      	bics	r3, r7
		HAL_CAN_Receive_IT(&hcan, CAN_FIFO0);
 8003bea:	0020      	movs	r0, r4
		canRxFlags.flags.fifo1 = 0;
 8003bec:	7013      	strb	r3, [r2, #0]
		HAL_CAN_Receive_IT(&hcan, CAN_FIFO0);
 8003bee:	f7fc fd01 	bl	80005f4 <HAL_CAN_Receive_IT>
	if(HAL_GetTick() - lastLEDTick >= 250)
 8003bf2:	f7fc fb3f 	bl	8000274 <HAL_GetTick>
 8003bf6:	4e1c      	ldr	r6, [pc, #112]	; (8003c68 <main+0x1a0>)
 8003bf8:	6833      	ldr	r3, [r6, #0]
 8003bfa:	1ac0      	subs	r0, r0, r3
 8003bfc:	28f9      	cmp	r0, #249	; 0xf9
 8003bfe:	d90d      	bls.n	8003c1c <main+0x154>
		lastLEDTick = HAL_GetTick();
 8003c00:	f7fc fb38 	bl	8000274 <HAL_GetTick>
 8003c04:	6030      	str	r0, [r6, #0]
		switch(slcan_getState())
 8003c06:	f000 fb8b 	bl	8004320 <slcan_getState>
 8003c0a:	2801      	cmp	r0, #1
 8003c0c:	d001      	beq.n	8003c12 <main+0x14a>
 8003c0e:	2802      	cmp	r0, #2
 8003c10:	d108      	bne.n	8003c24 <main+0x15c>
			HAL_GPIO_TogglePin(LED_GPIO_Port, LED_Pin);
 8003c12:	2180      	movs	r1, #128	; 0x80
 8003c14:	480a      	ldr	r0, [pc, #40]	; (8003c40 <main+0x178>)
 8003c16:	00c9      	lsls	r1, r1, #3
 8003c18:	f7fd fad6 	bl	80011c8 <HAL_GPIO_TogglePin>
	HAL_IWDG_Refresh(&hiwdg);
 8003c1c:	0028      	movs	r0, r5
 8003c1e:	f7fd fb07 	bl	8001230 <HAL_IWDG_Refresh>
	slCanCheckCommand(command);
 8003c22:	e7d1      	b.n	8003bc8 <main+0x100>
			HAL_GPIO_WritePin(LED_GPIO_Port, LED_Pin, GPIO_PIN_SET);
 8003c24:	2180      	movs	r1, #128	; 0x80
 8003c26:	003a      	movs	r2, r7
 8003c28:	00c9      	lsls	r1, r1, #3
 8003c2a:	4805      	ldr	r0, [pc, #20]	; (8003c40 <main+0x178>)
 8003c2c:	f7fd fac6 	bl	80011bc <HAL_GPIO_WritePin>
			break;
 8003c30:	e7f4      	b.n	8003c1c <main+0x154>
 8003c32:	46c0      	nop			; (mov r8, r8)
 8003c34:	20000110 	.word	0x20000110
 8003c38:	20000514 	.word	0x20000514
 8003c3c:	40021000 	.word	0x40021000
 8003c40:	48000400 	.word	0x48000400
 8003c44:	20000468 	.word	0x20000468
 8003c48:	40006400 	.word	0x40006400
 8003c4c:	20000458 	.word	0x20000458
 8003c50:	40003000 	.word	0x40003000
 8003c54:	00000fff 	.word	0x00000fff
 8003c58:	20000518 	.word	0x20000518
 8003c5c:	200004f0 	.word	0x200004f0
 8003c60:	20000454 	.word	0x20000454
 8003c64:	20000188 	.word	0x20000188
 8003c68:	20000180 	.word	0x20000180

08003c6c <HAL_UART_TxCpltCallback>:
}

/* USER CODE BEGIN 4 */
void HAL_UART_TxCpltCallback(UART_HandleTypeDef *huart)
{
	uint32_t err = huart->ErrorCode;
 8003c6c:	6ec3      	ldr	r3, [r0, #108]	; 0x6c
	UNUSED(err);
}
 8003c6e:	4770      	bx	lr

08003c70 <HAL_UART_ErrorCallback>:
void HAL_UART_ErrorCallback(UART_HandleTypeDef *huart)
{
	uint32_t err = huart->ErrorCode;
 8003c70:	6ec3      	ldr	r3, [r0, #108]	; 0x6c
  \details Acts as a special kind of Data Memory Barrier.
           It completes when all explicit memory accesses before this instruction complete.
 */
__attribute__((always_inline)) __STATIC_INLINE void __DSB(void)
{
  __ASM volatile ("dsb 0xF":::"memory");
 8003c72:	f3bf 8f4f 	dsb	sy
  SCB->AIRCR  = ((0x5FAUL << SCB_AIRCR_VECTKEY_Pos) |
 8003c76:	4a03      	ldr	r2, [pc, #12]	; (8003c84 <HAL_UART_ErrorCallback+0x14>)
 8003c78:	4b03      	ldr	r3, [pc, #12]	; (8003c88 <HAL_UART_ErrorCallback+0x18>)
 8003c7a:	60da      	str	r2, [r3, #12]
 8003c7c:	f3bf 8f4f 	dsb	sy
  __ASM volatile ("nop");
 8003c80:	46c0      	nop			; (mov r8, r8)
 8003c82:	e7fd      	b.n	8003c80 <HAL_UART_ErrorCallback+0x10>
 8003c84:	05fa0004 	.word	0x05fa0004
 8003c88:	e000ed00 	.word	0xe000ed00

08003c8c <HAL_CAN_ErrorCallback>:
	NVIC_SystemReset();
	HAL_UART_Receive_DMA(huart, uart_buffers[activeBuffer].data, UART_RX_BUFFER_SIZE); //resume DMA
	UNUSED(err);
}
void HAL_CAN_ErrorCallback(CAN_HandleTypeDef *hcan)
{
 8003c8c:	b510      	push	{r4, lr}
	HAL_CAN_Receive_IT(hcan, CAN_FIFO0);
 8003c8e:	2100      	movs	r1, #0
 8003c90:	f7fc fcb0 	bl	80005f4 <HAL_CAN_Receive_IT>
}
 8003c94:	bd10      	pop	{r4, pc}
	...

08003c98 <HAL_CAN_RxCpltCallback>:

void HAL_CAN_RxCpltCallback(CAN_HandleTypeDef* hcan)
{
	canRxFlags.flags.fifo1 = 1;
 8003c98:	2301      	movs	r3, #1
 8003c9a:	4a02      	ldr	r2, [pc, #8]	; (8003ca4 <HAL_CAN_RxCpltCallback+0xc>)
 8003c9c:	7811      	ldrb	r1, [r2, #0]
 8003c9e:	430b      	orrs	r3, r1
 8003ca0:	7013      	strb	r3, [r2, #0]
//    HAL_CAN_Receive_IT(hcan,CAN_FIFO0);
}
 8003ca2:	4770      	bx	lr
 8003ca4:	20000454 	.word	0x20000454

08003ca8 <HAL_UART_RxCpltCallback>:

void HAL_UART_RxCpltCallback(UART_HandleTypeDef * huart)
{
	rxFullFlag = 1;
	activeBuffer = !activeBuffer;
 8003ca8:	4a02      	ldr	r2, [pc, #8]	; (8003cb4 <HAL_UART_RxCpltCallback+0xc>)
 8003caa:	7813      	ldrb	r3, [r2, #0]
 8003cac:	4259      	negs	r1, r3
 8003cae:	414b      	adcs	r3, r1
 8003cb0:	7013      	strb	r3, [r2, #0]
//	memset(uart_rxBuffer, 0 , UART_RX_BUFFER_SIZE); //clear the buffer
//	HAL_UART_Receive_DMA(huart, uart_rxBuffer, UART_RX_BUFFER_SIZE); //resume DMA
//	__HAL_UART_FLUSH_DRREGISTER(huart); //clear the register
}
 8003cb2:	4770      	bx	lr
 8003cb4:	2000017e 	.word	0x2000017e

08003cb8 <_Error_Handler>:
  * @param  file: The file name as string.
  * @param  line: The line in file as a number.
  * @retval None
  */
void _Error_Handler(char *file, int line)
{
 8003cb8:	e7fe      	b.n	8003cb8 <_Error_Handler>
	...

08003cbc <slcanSetOutputChar>:
  * @param  c - data to add
  * @retval None
  */
static void slcanSetOutputChar(uint8_t c)
{
	if (sl_frame_len < sizeof(sl_frame))
 8003cbc:	4b07      	ldr	r3, [pc, #28]	; (8003cdc <slcanSetOutputChar+0x20>)
 8003cbe:	781b      	ldrb	r3, [r3, #0]
 8003cc0:	b2db      	uxtb	r3, r3
 8003cc2:	2b1f      	cmp	r3, #31
 8003cc4:	d808      	bhi.n	8003cd8 <slcanSetOutputChar+0x1c>
	{
		sl_frame[sl_frame_len] = c;
 8003cc6:	4a05      	ldr	r2, [pc, #20]	; (8003cdc <slcanSetOutputChar+0x20>)
 8003cc8:	7813      	ldrb	r3, [r2, #0]
 8003cca:	b2db      	uxtb	r3, r3
 8003ccc:	4904      	ldr	r1, [pc, #16]	; (8003ce0 <slcanSetOutputChar+0x24>)
 8003cce:	54c8      	strb	r0, [r1, r3]
		sl_frame_len ++;
 8003cd0:	7813      	ldrb	r3, [r2, #0]
 8003cd2:	3301      	adds	r3, #1
 8003cd4:	b2db      	uxtb	r3, r3
 8003cd6:	7013      	strb	r3, [r2, #0]
	}
}
 8003cd8:	4770      	bx	lr
 8003cda:	46c0      	nop			; (mov r8, r8)
 8003cdc:	200001c7 	.word	0x200001c7
 8003ce0:	200005e4 	.word	0x200005e4

08003ce4 <slCanSendNibble>:
  * @brief  Add given nible value as hexadecimal string to buffer
  * @param  c - data to add
  * @retval None
  */
static void slCanSendNibble(uint8_t ch)
{
 8003ce4:	b510      	push	{r4, lr}
	ch = ch > 9 ? ch - 10 + 'A' : ch + '0';
 8003ce6:	2809      	cmp	r0, #9
 8003ce8:	d804      	bhi.n	8003cf4 <slCanSendNibble+0x10>
 8003cea:	3030      	adds	r0, #48	; 0x30
 8003cec:	b2c0      	uxtb	r0, r0
	slcanSetOutputChar(ch);
 8003cee:	f7ff ffe5 	bl	8003cbc <slcanSetOutputChar>
}
 8003cf2:	bd10      	pop	{r4, pc}
	ch = ch > 9 ? ch - 10 + 'A' : ch + '0';
 8003cf4:	3037      	adds	r0, #55	; 0x37
 8003cf6:	b2c0      	uxtb	r0, r0
 8003cf8:	e7f9      	b.n	8003cee <slCanSendNibble+0xa>

08003cfa <slcanSetOutputAsHex>:
  * @brief  Add given byte value as hexadecimal string to buffer
  * @param  value - data to add
  * @retval None
  */
static void slcanSetOutputAsHex(uint8_t ch)
{
 8003cfa:	b510      	push	{r4, lr}
 8003cfc:	0004      	movs	r4, r0
	slCanSendNibble(ch >> 4);
 8003cfe:	0900      	lsrs	r0, r0, #4
 8003d00:	f7ff fff0 	bl	8003ce4 <slCanSendNibble>
	slCanSendNibble(ch & 0x0F);
 8003d04:	200f      	movs	r0, #15
 8003d06:	4020      	ands	r0, r4
 8003d08:	f7ff ffec 	bl	8003ce4 <slCanSendNibble>
}
 8003d0c:	bd10      	pop	{r4, pc}

08003d0e <parseHex>:
  * @param  canmsg - line Input string
  * 		len    - of characters to interpret
  * 		value  - Pointer to variable for the resulting decoded value
  * @retval 0 on error, 1 on success
  */
static uint8_t parseHex(uint8_t* line, uint8_t len, uint32_t* value) {
 8003d0e:	b530      	push	{r4, r5, lr}
    *value = 0;
 8003d10:	2300      	movs	r3, #0
 8003d12:	6013      	str	r3, [r2, #0]
    while (len--) {
 8003d14:	e009      	b.n	8003d2a <parseHex+0x1c>
        if (*line == 0) return 0;
        *value <<= 4;
        if ((*line >= '0') && (*line <= '9')) {
           *value += *line - '0';
        } else if ((*line >= 'A') && (*line <= 'F')) {
 8003d16:	001d      	movs	r5, r3
 8003d18:	3d41      	subs	r5, #65	; 0x41
 8003d1a:	b2ed      	uxtb	r5, r5
 8003d1c:	2d05      	cmp	r5, #5
 8003d1e:	d818      	bhi.n	8003d52 <parseHex+0x44>
           *value += *line - 'A' + 10;
 8003d20:	185b      	adds	r3, r3, r1
 8003d22:	3b37      	subs	r3, #55	; 0x37
 8003d24:	6013      	str	r3, [r2, #0]
        } else if ((*line >= 'a') && (*line <= 'f')) {
           *value += *line - 'a' + 10;
        } else return 0;
        line++;
 8003d26:	3001      	adds	r0, #1
    while (len--) {
 8003d28:	0021      	movs	r1, r4
 8003d2a:	1e4c      	subs	r4, r1, #1
 8003d2c:	b2e4      	uxtb	r4, r4
 8003d2e:	2900      	cmp	r1, #0
 8003d30:	d018      	beq.n	8003d64 <parseHex+0x56>
        if (*line == 0) return 0;
 8003d32:	7803      	ldrb	r3, [r0, #0]
 8003d34:	2b00      	cmp	r3, #0
 8003d36:	d016      	beq.n	8003d66 <parseHex+0x58>
        *value <<= 4;
 8003d38:	6813      	ldr	r3, [r2, #0]
 8003d3a:	0119      	lsls	r1, r3, #4
 8003d3c:	6011      	str	r1, [r2, #0]
        if ((*line >= '0') && (*line <= '9')) {
 8003d3e:	7803      	ldrb	r3, [r0, #0]
 8003d40:	001d      	movs	r5, r3
 8003d42:	3d30      	subs	r5, #48	; 0x30
 8003d44:	b2ed      	uxtb	r5, r5
 8003d46:	2d09      	cmp	r5, #9
 8003d48:	d8e5      	bhi.n	8003d16 <parseHex+0x8>
           *value += *line - '0';
 8003d4a:	185b      	adds	r3, r3, r1
 8003d4c:	3b30      	subs	r3, #48	; 0x30
 8003d4e:	6013      	str	r3, [r2, #0]
 8003d50:	e7e9      	b.n	8003d26 <parseHex+0x18>
        } else if ((*line >= 'a') && (*line <= 'f')) {
 8003d52:	001d      	movs	r5, r3
 8003d54:	3d61      	subs	r5, #97	; 0x61
 8003d56:	b2ed      	uxtb	r5, r5
 8003d58:	2d05      	cmp	r5, #5
 8003d5a:	d806      	bhi.n	8003d6a <parseHex+0x5c>
           *value += *line - 'a' + 10;
 8003d5c:	185b      	adds	r3, r3, r1
 8003d5e:	3b57      	subs	r3, #87	; 0x57
 8003d60:	6013      	str	r3, [r2, #0]
 8003d62:	e7e0      	b.n	8003d26 <parseHex+0x18>
    }
    return 1;
 8003d64:	2301      	movs	r3, #1
}
 8003d66:	0018      	movs	r0, r3
 8003d68:	bd30      	pop	{r4, r5, pc}
        } else return 0;
 8003d6a:	2300      	movs	r3, #0
 8003d6c:	e7fb      	b.n	8003d66 <parseHex+0x58>
	...

08003d70 <transmitStd>:
/**
 * @brief  Interprets given line and transmit can message
 * @param  line Line string which contains the transmit command
 * @retval HAL status
 */
static uint8_t transmitStd(uint8_t* line) {
 8003d70:	b5f0      	push	{r4, r5, r6, r7, lr}
 8003d72:	b083      	sub	sp, #12
 8003d74:	0005      	movs	r5, r0
    uint32_t temp;
    uint8_t idlen;
    HAL_StatusTypeDef tr;

    if ((line[0] == 'r') || (line[0] == 'R'))
 8003d76:	7803      	ldrb	r3, [r0, #0]
 8003d78:	2b72      	cmp	r3, #114	; 0x72
 8003d7a:	d042      	beq.n	8003e02 <transmitStd+0x92>
 8003d7c:	2b52      	cmp	r3, #82	; 0x52
 8003d7e:	d040      	beq.n	8003e02 <transmitStd+0x92>
    {
    	hcan.pTxMsg->RTR = CAN_RTR_REMOTE;
    } else
    {
    	hcan.pTxMsg->RTR = CAN_RTR_DATA;
 8003d80:	4b31      	ldr	r3, [pc, #196]	; (8003e48 <transmitStd+0xd8>)
 8003d82:	6b1b      	ldr	r3, [r3, #48]	; 0x30
 8003d84:	2200      	movs	r2, #0
 8003d86:	60da      	str	r2, [r3, #12]
    }

    // upper case -> extended identifier
    if (line[0] < 'Z') {
 8003d88:	782b      	ldrb	r3, [r5, #0]
 8003d8a:	2b59      	cmp	r3, #89	; 0x59
 8003d8c:	d83e      	bhi.n	8003e0c <transmitStd+0x9c>
    	idlen = 8;
        if (!parseHex(&line[1], idlen, &temp)) return 0;
 8003d8e:	1c68      	adds	r0, r5, #1
 8003d90:	aa01      	add	r2, sp, #4
 8003d92:	2108      	movs	r1, #8
 8003d94:	f7ff ffbb 	bl	8003d0e <parseHex>
 8003d98:	2800      	cmp	r0, #0
 8003d9a:	d053      	beq.n	8003e44 <transmitStd+0xd4>
        hcan.pTxMsg->IDE = CAN_ID_EXT;
 8003d9c:	4b2a      	ldr	r3, [pc, #168]	; (8003e48 <transmitStd+0xd8>)
 8003d9e:	6b1a      	ldr	r2, [r3, #48]	; 0x30
 8003da0:	2104      	movs	r1, #4
 8003da2:	6091      	str	r1, [r2, #8]
        hcan.pTxMsg->ExtId = temp;
 8003da4:	6b1b      	ldr	r3, [r3, #48]	; 0x30
 8003da6:	9a01      	ldr	r2, [sp, #4]
 8003da8:	605a      	str	r2, [r3, #4]
    	idlen = 8;
 8003daa:	2008      	movs	r0, #8
		hcan.pTxMsg->IDE = CAN_ID_STD;
		hcan.pTxMsg->StdId = temp;
    }


    if (!parseHex(&line[1 + idlen], 1, &temp)) return 0;
 8003dac:	0007      	movs	r7, r0
 8003dae:	3001      	adds	r0, #1
 8003db0:	1828      	adds	r0, r5, r0
 8003db2:	aa01      	add	r2, sp, #4
 8003db4:	2101      	movs	r1, #1
 8003db6:	f7ff ffaa 	bl	8003d0e <parseHex>
 8003dba:	2800      	cmp	r0, #0
 8003dbc:	d042      	beq.n	8003e44 <transmitStd+0xd4>
    hcan.pTxMsg->DLC = temp;
 8003dbe:	4b22      	ldr	r3, [pc, #136]	; (8003e48 <transmitStd+0xd8>)
 8003dc0:	6b1a      	ldr	r2, [r3, #48]	; 0x30
 8003dc2:	9901      	ldr	r1, [sp, #4]
 8003dc4:	6111      	str	r1, [r2, #16]

    if (hcan.pTxMsg->RTR == CAN_RTR_DATA) {
 8003dc6:	6b1b      	ldr	r3, [r3, #48]	; 0x30
 8003dc8:	68da      	ldr	r2, [r3, #12]
 8003dca:	2a00      	cmp	r2, #0
 8003dcc:	d12e      	bne.n	8003e2c <transmitStd+0xbc>
    	uint8_t i;
        uint8_t length = hcan.pTxMsg->DLC;
 8003dce:	7c1e      	ldrb	r6, [r3, #16]
        if (length > 8) length = 8;
 8003dd0:	2e08      	cmp	r6, #8
 8003dd2:	d900      	bls.n	8003dd6 <transmitStd+0x66>
 8003dd4:	2608      	movs	r6, #8
        for (i = 0; i < length; i++) {
 8003dd6:	2400      	movs	r4, #0
 8003dd8:	42b4      	cmp	r4, r6
 8003dda:	d227      	bcs.n	8003e2c <transmitStd+0xbc>
            if (!parseHex(&line[idlen + 2 + i*2], 2, &temp)) return 0;
 8003ddc:	1cbb      	adds	r3, r7, #2
 8003dde:	0062      	lsls	r2, r4, #1
 8003de0:	1898      	adds	r0, r3, r2
 8003de2:	1828      	adds	r0, r5, r0
 8003de4:	aa01      	add	r2, sp, #4
 8003de6:	2102      	movs	r1, #2
 8003de8:	f7ff ff91 	bl	8003d0e <parseHex>
 8003dec:	2800      	cmp	r0, #0
 8003dee:	d029      	beq.n	8003e44 <transmitStd+0xd4>
            hcan.pTxMsg->Data[i] = temp;
 8003df0:	4b15      	ldr	r3, [pc, #84]	; (8003e48 <transmitStd+0xd8>)
 8003df2:	6b1b      	ldr	r3, [r3, #48]	; 0x30
 8003df4:	191b      	adds	r3, r3, r4
 8003df6:	466a      	mov	r2, sp
 8003df8:	7912      	ldrb	r2, [r2, #4]
 8003dfa:	751a      	strb	r2, [r3, #20]
        for (i = 0; i < length; i++) {
 8003dfc:	3401      	adds	r4, #1
 8003dfe:	b2e4      	uxtb	r4, r4
 8003e00:	e7ea      	b.n	8003dd8 <transmitStd+0x68>
    	hcan.pTxMsg->RTR = CAN_RTR_REMOTE;
 8003e02:	4b11      	ldr	r3, [pc, #68]	; (8003e48 <transmitStd+0xd8>)
 8003e04:	6b1b      	ldr	r3, [r3, #48]	; 0x30
 8003e06:	2202      	movs	r2, #2
 8003e08:	60da      	str	r2, [r3, #12]
 8003e0a:	e7bd      	b.n	8003d88 <transmitStd+0x18>
    	if (!parseHex(&line[1], idlen, &temp)) return 0;
 8003e0c:	1c68      	adds	r0, r5, #1
 8003e0e:	aa01      	add	r2, sp, #4
 8003e10:	2103      	movs	r1, #3
 8003e12:	f7ff ff7c 	bl	8003d0e <parseHex>
 8003e16:	2800      	cmp	r0, #0
 8003e18:	d014      	beq.n	8003e44 <transmitStd+0xd4>
		hcan.pTxMsg->IDE = CAN_ID_STD;
 8003e1a:	4b0b      	ldr	r3, [pc, #44]	; (8003e48 <transmitStd+0xd8>)
 8003e1c:	6b1a      	ldr	r2, [r3, #48]	; 0x30
 8003e1e:	2100      	movs	r1, #0
 8003e20:	6091      	str	r1, [r2, #8]
		hcan.pTxMsg->StdId = temp;
 8003e22:	6b1b      	ldr	r3, [r3, #48]	; 0x30
 8003e24:	9a01      	ldr	r2, [sp, #4]
 8003e26:	601a      	str	r2, [r3, #0]
    	idlen = 3;
 8003e28:	2003      	movs	r0, #3
 8003e2a:	e7bf      	b.n	8003dac <transmitStd+0x3c>
        }
    }

    HAL_NVIC_DisableIRQ(CEC_CAN_IRQn);
 8003e2c:	201e      	movs	r0, #30
 8003e2e:	f7fc fe6f 	bl	8000b10 <HAL_NVIC_DisableIRQ>
    tr = HAL_CAN_Transmit(&hcan, 0);
 8003e32:	2100      	movs	r1, #0
 8003e34:	4804      	ldr	r0, [pc, #16]	; (8003e48 <transmitStd+0xd8>)
 8003e36:	f7fc fb47 	bl	80004c8 <HAL_CAN_Transmit>
 8003e3a:	0004      	movs	r4, r0
    HAL_NVIC_EnableIRQ(CEC_CAN_IRQn);
 8003e3c:	201e      	movs	r0, #30
 8003e3e:	f7fc fe5d 	bl	8000afc <HAL_NVIC_EnableIRQ>
    return tr;
 8003e42:	0020      	movs	r0, r4
}
 8003e44:	b003      	add	sp, #12
 8003e46:	bdf0      	pop	{r4, r5, r6, r7, pc}
 8003e48:	20000468 	.word	0x20000468

08003e4c <slcanClose>:
{
 8003e4c:	b510      	push	{r4, lr}
	HAL_NVIC_DisableIRQ(CEC_CAN_IRQn);
 8003e4e:	201e      	movs	r0, #30
 8003e50:	f7fc fe5e 	bl	8000b10 <HAL_NVIC_DisableIRQ>
	state = STATE_CONFIG;
 8003e54:	2200      	movs	r2, #0
 8003e56:	4b01      	ldr	r3, [pc, #4]	; (8003e5c <slcanClose+0x10>)
 8003e58:	701a      	strb	r2, [r3, #0]
}
 8003e5a:	bd10      	pop	{r4, pc}
 8003e5c:	200001c8 	.word	0x200001c8

08003e60 <slcanOutputFlush>:
{
 8003e60:	b510      	push	{r4, lr}
	if (sl_frame_len > 0)
 8003e62:	4b12      	ldr	r3, [pc, #72]	; (8003eac <slcanOutputFlush+0x4c>)
 8003e64:	781b      	ldrb	r3, [r3, #0]
 8003e66:	2b00      	cmp	r3, #0
 8003e68:	d00e      	beq.n	8003e88 <slcanOutputFlush+0x28>
		if (hUsbDeviceFS.dev_state != USBD_STATE_CONFIGURED) // use auxiliary uart only if usb not connected
 8003e6a:	23fe      	movs	r3, #254	; 0xfe
 8003e6c:	005b      	lsls	r3, r3, #1
 8003e6e:	4a10      	ldr	r2, [pc, #64]	; (8003eb0 <slcanOutputFlush+0x50>)
 8003e70:	5cd3      	ldrb	r3, [r2, r3]
 8003e72:	2b03      	cmp	r3, #3
 8003e74:	d009      	beq.n	8003e8a <slcanOutputFlush+0x2a>
			HAL_UART_Transmit_DMA(&huart2,sl_frame,sl_frame_len);
 8003e76:	4b0d      	ldr	r3, [pc, #52]	; (8003eac <slcanOutputFlush+0x4c>)
 8003e78:	781a      	ldrb	r2, [r3, #0]
 8003e7a:	490e      	ldr	r1, [pc, #56]	; (8003eb4 <slcanOutputFlush+0x54>)
 8003e7c:	480e      	ldr	r0, [pc, #56]	; (8003eb8 <slcanOutputFlush+0x58>)
 8003e7e:	f7fe fdf9 	bl	8002a74 <HAL_UART_Transmit_DMA>
		sl_frame_len = 0;
 8003e82:	2200      	movs	r2, #0
 8003e84:	4b09      	ldr	r3, [pc, #36]	; (8003eac <slcanOutputFlush+0x4c>)
 8003e86:	701a      	strb	r2, [r3, #0]
}
 8003e88:	bd10      	pop	{r4, pc}
			while (((USBD_CDC_HandleTypeDef*)hUsbDeviceFS.pClassData)->TxState){;} //should change by hardware
 8003e8a:	2386      	movs	r3, #134	; 0x86
 8003e8c:	009b      	lsls	r3, r3, #2
 8003e8e:	4a08      	ldr	r2, [pc, #32]	; (8003eb0 <slcanOutputFlush+0x50>)
 8003e90:	58d2      	ldr	r2, [r2, r3]
 8003e92:	3b04      	subs	r3, #4
 8003e94:	58d3      	ldr	r3, [r2, r3]
 8003e96:	2b00      	cmp	r3, #0
 8003e98:	d1f7      	bne.n	8003e8a <slcanOutputFlush+0x2a>
			while (CDC_Transmit_FS(sl_frame, sl_frame_len) != USBD_OK);
 8003e9a:	4b04      	ldr	r3, [pc, #16]	; (8003eac <slcanOutputFlush+0x4c>)
 8003e9c:	7819      	ldrb	r1, [r3, #0]
 8003e9e:	4805      	ldr	r0, [pc, #20]	; (8003eb4 <slcanOutputFlush+0x54>)
 8003ea0:	f000 fcb0 	bl	8004804 <CDC_Transmit_FS>
 8003ea4:	2800      	cmp	r0, #0
 8003ea6:	d1f8      	bne.n	8003e9a <slcanOutputFlush+0x3a>
 8003ea8:	e7eb      	b.n	8003e82 <slcanOutputFlush+0x22>
 8003eaa:	46c0      	nop			; (mov r8, r8)
 8003eac:	200001c7 	.word	0x200001c7
 8003eb0:	20000604 	.word	0x20000604
 8003eb4:	200005e4 	.word	0x200005e4
 8003eb8:	20000534 	.word	0x20000534

08003ebc <slCanProccesInput>:
{
 8003ebc:	b570      	push	{r4, r5, r6, lr}
    if (ch == SLCAN_CR) {
 8003ebe:	280d      	cmp	r0, #13
 8003ec0:	d00c      	beq.n	8003edc <slCanProccesInput+0x20>
    } else if (ch != SLCAN_LR) {
 8003ec2:	280a      	cmp	r0, #10
 8003ec4:	d015      	beq.n	8003ef2 <slCanProccesInput+0x36>
        line[linepos] = ch;
 8003ec6:	4b0d      	ldr	r3, [pc, #52]	; (8003efc <slCanProccesInput+0x40>)
 8003ec8:	781b      	ldrb	r3, [r3, #0]
 8003eca:	4a0d      	ldr	r2, [pc, #52]	; (8003f00 <slCanProccesInput+0x44>)
 8003ecc:	54d0      	strb	r0, [r2, r3]
        if (linepos < LINE_MAXLEN - 1) linepos++;
 8003ece:	2b1c      	cmp	r3, #28
 8003ed0:	d811      	bhi.n	8003ef6 <slCanProccesInput+0x3a>
 8003ed2:	3301      	adds	r3, #1
 8003ed4:	4a09      	ldr	r2, [pc, #36]	; (8003efc <slCanProccesInput+0x40>)
 8003ed6:	7013      	strb	r3, [r2, #0]
    return 0;
 8003ed8:	2000      	movs	r0, #0
}
 8003eda:	bd70      	pop	{r4, r5, r6, pc}
        line[linepos] = 0;
 8003edc:	4c07      	ldr	r4, [pc, #28]	; (8003efc <slCanProccesInput+0x40>)
 8003ede:	7822      	ldrb	r2, [r4, #0]
 8003ee0:	4907      	ldr	r1, [pc, #28]	; (8003f00 <slCanProccesInput+0x44>)
 8003ee2:	2500      	movs	r5, #0
 8003ee4:	548d      	strb	r5, [r1, r2]
        memcpy(command,line,linepos);
 8003ee6:	4807      	ldr	r0, [pc, #28]	; (8003f04 <slCanProccesInput+0x48>)
 8003ee8:	f000 feec 	bl	8004cc4 <memcpy>
        linepos = 0;
 8003eec:	7025      	strb	r5, [r4, #0]
        return 1;
 8003eee:	2001      	movs	r0, #1
 8003ef0:	e7f3      	b.n	8003eda <slCanProccesInput+0x1e>
    return 0;
 8003ef2:	2000      	movs	r0, #0
 8003ef4:	e7f1      	b.n	8003eda <slCanProccesInput+0x1e>
 8003ef6:	2000      	movs	r0, #0
 8003ef8:	e7ef      	b.n	8003eda <slCanProccesInput+0x1e>
 8003efa:	46c0      	nop			; (mov r8, r8)
 8003efc:	200001c6 	.word	0x200001c6
 8003f00:	200001a8 	.word	0x200001a8
 8003f04:	20000188 	.word	0x20000188

08003f08 <slCanCheckCommand>:
 * @brief  Parse given command line
 * @param  line Line string to parse
 * @retval None
 */
uint8_t slCanCheckCommand(uint8_t *line)
{
 8003f08:	b530      	push	{r4, r5, lr}
 8003f0a:	b095      	sub	sp, #84	; 0x54
 8003f0c:	0004      	movs	r4, r0
	uint8_t result = SLCAN_BELL;
	if (line[0] == 0)
 8003f0e:	7800      	ldrb	r0, [r0, #0]
 8003f10:	2800      	cmp	r0, #0
 8003f12:	d017      	beq.n	8003f44 <slCanCheckCommand+0x3c>
	{
		return 0;
	}
    switch (line[0]) {
 8003f14:	3843      	subs	r0, #67	; 0x43
 8003f16:	b2c3      	uxtb	r3, r0
 8003f18:	2b33      	cmp	r3, #51	; 0x33
 8003f1a:	d900      	bls.n	8003f1e <slCanCheckCommand+0x16>
 8003f1c:	e1f4      	b.n	8004308 <slCanCheckCommand+0x400>
 8003f1e:	0098      	lsls	r0, r3, #2
 8003f20:	4bae      	ldr	r3, [pc, #696]	; (80041dc <slCanCheckCommand+0x2d4>)
 8003f22:	581b      	ldr	r3, [r3, r0]
 8003f24:	469f      	mov	pc, r3
    	case 'a':
    	{
    		if (terminator == SLCAN_CR)
 8003f26:	4bae      	ldr	r3, [pc, #696]	; (80041e0 <slCanCheckCommand+0x2d8>)
 8003f28:	781b      	ldrb	r3, [r3, #0]
 8003f2a:	2b0d      	cmp	r3, #13
 8003f2c:	d00c      	beq.n	8003f48 <slCanCheckCommand+0x40>
    			terminator = SLCAN_LR;
    		else
    			terminator = SLCAN_CR;
 8003f2e:	220d      	movs	r2, #13
 8003f30:	4bab      	ldr	r3, [pc, #684]	; (80041e0 <slCanCheckCommand+0x2d8>)
 8003f32:	701a      	strb	r2, [r3, #0]
    		result = terminator;
 8003f34:	4baa      	ldr	r3, [pc, #680]	; (80041e0 <slCanCheckCommand+0x2d8>)
 8003f36:	781d      	ldrb	r5, [r3, #0]
        	 }
        	 break;

    }

   line[0] = 0;
 8003f38:	2300      	movs	r3, #0
 8003f3a:	7023      	strb	r3, [r4, #0]
   slcanSetOutputChar(result);
 8003f3c:	0028      	movs	r0, r5
 8003f3e:	f7ff febd 	bl	8003cbc <slcanSetOutputChar>
   return 1;
 8003f42:	2001      	movs	r0, #1
}
 8003f44:	b015      	add	sp, #84	; 0x54
 8003f46:	bd30      	pop	{r4, r5, pc}
    			terminator = SLCAN_LR;
 8003f48:	220a      	movs	r2, #10
 8003f4a:	4ba5      	ldr	r3, [pc, #660]	; (80041e0 <slCanCheckCommand+0x2d8>)
 8003f4c:	701a      	strb	r2, [r3, #0]
 8003f4e:	e7f1      	b.n	8003f34 <slCanCheckCommand+0x2c>
            if (state == STATE_CONFIG)
 8003f50:	4ba4      	ldr	r3, [pc, #656]	; (80041e4 <slCanCheckCommand+0x2dc>)
 8003f52:	781b      	ldrb	r3, [r3, #0]
 8003f54:	2b00      	cmp	r3, #0
 8003f56:	d000      	beq.n	8003f5a <slCanCheckCommand+0x52>
 8003f58:	e1d8      	b.n	800430c <slCanCheckCommand+0x404>
                switch (line[1]) {
 8003f5a:	7863      	ldrb	r3, [r4, #1]
 8003f5c:	3b30      	subs	r3, #48	; 0x30
 8003f5e:	b2da      	uxtb	r2, r3
 8003f60:	2a09      	cmp	r2, #9
 8003f62:	d900      	bls.n	8003f66 <slCanCheckCommand+0x5e>
 8003f64:	e1d4      	b.n	8004310 <slCanCheckCommand+0x408>
 8003f66:	0093      	lsls	r3, r2, #2
 8003f68:	4a9f      	ldr	r2, [pc, #636]	; (80041e8 <slCanCheckCommand+0x2e0>)
 8003f6a:	58d3      	ldr	r3, [r2, r3]
 8003f6c:	469f      	mov	pc, r3
                    case '0': slcanSetCANBaudRate(CAN_BR_10K);  result = terminator; break;
 8003f6e:	2000      	movs	r0, #0
 8003f70:	f000 fae2 	bl	8004538 <slcanSetCANBaudRate>
 8003f74:	4b9a      	ldr	r3, [pc, #616]	; (80041e0 <slCanCheckCommand+0x2d8>)
 8003f76:	781d      	ldrb	r5, [r3, #0]
 8003f78:	e7de      	b.n	8003f38 <slCanCheckCommand+0x30>
                    case '1': slcanSetCANBaudRate(CAN_BR_20K);  result = terminator; break;
 8003f7a:	2001      	movs	r0, #1
 8003f7c:	f000 fadc 	bl	8004538 <slcanSetCANBaudRate>
 8003f80:	4b97      	ldr	r3, [pc, #604]	; (80041e0 <slCanCheckCommand+0x2d8>)
 8003f82:	781d      	ldrb	r5, [r3, #0]
 8003f84:	e7d8      	b.n	8003f38 <slCanCheckCommand+0x30>
                    case '2': slcanSetCANBaudRate(CAN_BR_50K);  result = terminator; break;
 8003f86:	2002      	movs	r0, #2
 8003f88:	f000 fad6 	bl	8004538 <slcanSetCANBaudRate>
 8003f8c:	4b94      	ldr	r3, [pc, #592]	; (80041e0 <slCanCheckCommand+0x2d8>)
 8003f8e:	781d      	ldrb	r5, [r3, #0]
 8003f90:	e7d2      	b.n	8003f38 <slCanCheckCommand+0x30>
                    case '3': slcanSetCANBaudRate(CAN_BR_100K); result = terminator; break;
 8003f92:	2003      	movs	r0, #3
 8003f94:	f000 fad0 	bl	8004538 <slcanSetCANBaudRate>
 8003f98:	4b91      	ldr	r3, [pc, #580]	; (80041e0 <slCanCheckCommand+0x2d8>)
 8003f9a:	781d      	ldrb	r5, [r3, #0]
 8003f9c:	e7cc      	b.n	8003f38 <slCanCheckCommand+0x30>
                    case '4': slcanSetCANBaudRate(CAN_BR_125K); result = terminator; break;
 8003f9e:	2004      	movs	r0, #4
 8003fa0:	f000 faca 	bl	8004538 <slcanSetCANBaudRate>
 8003fa4:	4b8e      	ldr	r3, [pc, #568]	; (80041e0 <slCanCheckCommand+0x2d8>)
 8003fa6:	781d      	ldrb	r5, [r3, #0]
 8003fa8:	e7c6      	b.n	8003f38 <slCanCheckCommand+0x30>
                    case '5': slcanSetCANBaudRate(CAN_BR_250K); result = terminator; break;
 8003faa:	2005      	movs	r0, #5
 8003fac:	f000 fac4 	bl	8004538 <slcanSetCANBaudRate>
 8003fb0:	4b8b      	ldr	r3, [pc, #556]	; (80041e0 <slCanCheckCommand+0x2d8>)
 8003fb2:	781d      	ldrb	r5, [r3, #0]
 8003fb4:	e7c0      	b.n	8003f38 <slCanCheckCommand+0x30>
                    case '6': slcanSetCANBaudRate(CAN_BR_500K); result = terminator; break;
 8003fb6:	2006      	movs	r0, #6
 8003fb8:	f000 fabe 	bl	8004538 <slcanSetCANBaudRate>
 8003fbc:	4b88      	ldr	r3, [pc, #544]	; (80041e0 <slCanCheckCommand+0x2d8>)
 8003fbe:	781d      	ldrb	r5, [r3, #0]
 8003fc0:	e7ba      	b.n	8003f38 <slCanCheckCommand+0x30>
                    case '7': slcanSetCANBaudRate(CAN_BR_800K); result = terminator; break;
 8003fc2:	2007      	movs	r0, #7
 8003fc4:	f000 fab8 	bl	8004538 <slcanSetCANBaudRate>
 8003fc8:	4b85      	ldr	r3, [pc, #532]	; (80041e0 <slCanCheckCommand+0x2d8>)
 8003fca:	781d      	ldrb	r5, [r3, #0]
 8003fcc:	e7b4      	b.n	8003f38 <slCanCheckCommand+0x30>
                    case '8': slcanSetCANBaudRate(CAN_BR_1M);   result = terminator; break;
 8003fce:	2008      	movs	r0, #8
 8003fd0:	f000 fab2 	bl	8004538 <slcanSetCANBaudRate>
 8003fd4:	4b82      	ldr	r3, [pc, #520]	; (80041e0 <slCanCheckCommand+0x2d8>)
 8003fd6:	781d      	ldrb	r5, [r3, #0]
 8003fd8:	e7ae      	b.n	8003f38 <slCanCheckCommand+0x30>
                    case '9': slcanSetCANBaudRate(CAN_BR_83K);  result = terminator; break;
 8003fda:	2024      	movs	r0, #36	; 0x24
 8003fdc:	f000 faac 	bl	8004538 <slcanSetCANBaudRate>
 8003fe0:	4b7f      	ldr	r3, [pc, #508]	; (80041e0 <slCanCheckCommand+0x2d8>)
 8003fe2:	781d      	ldrb	r5, [r3, #0]
 8003fe4:	e7a8      	b.n	8003f38 <slCanCheckCommand+0x30>
			result = terminator;
 8003fe6:	4b7e      	ldr	r3, [pc, #504]	; (80041e0 <slCanCheckCommand+0x2d8>)
 8003fe8:	781d      	ldrb	r5, [r3, #0]
			break;
 8003fea:	e7a5      	b.n	8003f38 <slCanCheckCommand+0x30>
            if (state == STATE_CONFIG)
 8003fec:	4b7d      	ldr	r3, [pc, #500]	; (80041e4 <slCanCheckCommand+0x2dc>)
 8003fee:	781b      	ldrb	r3, [r3, #0]
 8003ff0:	2b00      	cmp	r3, #0
 8003ff2:	d001      	beq.n	8003ff8 <slCanCheckCommand+0xf0>
	uint8_t result = SLCAN_BELL;
 8003ff4:	2507      	movs	r5, #7
 8003ff6:	e79f      	b.n	8003f38 <slCanCheckCommand+0x30>
                if (parseHex(&line[1], 2, &sjw) && parseHex(&line[3], 2, &bs1) &&
 8003ff8:	1c60      	adds	r0, r4, #1
 8003ffa:	aa07      	add	r2, sp, #28
 8003ffc:	2102      	movs	r1, #2
 8003ffe:	f7ff fe86 	bl	8003d0e <parseHex>
 8004002:	2800      	cmp	r0, #0
 8004004:	d101      	bne.n	800400a <slCanCheckCommand+0x102>
	uint8_t result = SLCAN_BELL;
 8004006:	2507      	movs	r5, #7
 8004008:	e796      	b.n	8003f38 <slCanCheckCommand+0x30>
                if (parseHex(&line[1], 2, &sjw) && parseHex(&line[3], 2, &bs1) &&
 800400a:	1ce0      	adds	r0, r4, #3
 800400c:	aa08      	add	r2, sp, #32
 800400e:	2102      	movs	r1, #2
 8004010:	f7ff fe7d 	bl	8003d0e <parseHex>
 8004014:	2800      	cmp	r0, #0
 8004016:	d101      	bne.n	800401c <slCanCheckCommand+0x114>
	uint8_t result = SLCAN_BELL;
 8004018:	2507      	movs	r5, #7
 800401a:	e78d      	b.n	8003f38 <slCanCheckCommand+0x30>
                		parseHex(&line[5], 2, &bs2) && parseHex(&line[7], 4, &pre) ) {
 800401c:	1d60      	adds	r0, r4, #5
 800401e:	aa09      	add	r2, sp, #36	; 0x24
 8004020:	2102      	movs	r1, #2
 8004022:	f7ff fe74 	bl	8003d0e <parseHex>
                if (parseHex(&line[1], 2, &sjw) && parseHex(&line[3], 2, &bs1) &&
 8004026:	2800      	cmp	r0, #0
 8004028:	d101      	bne.n	800402e <slCanCheckCommand+0x126>
	uint8_t result = SLCAN_BELL;
 800402a:	2507      	movs	r5, #7
 800402c:	e784      	b.n	8003f38 <slCanCheckCommand+0x30>
                		parseHex(&line[5], 2, &bs2) && parseHex(&line[7], 4, &pre) ) {
 800402e:	1de0      	adds	r0, r4, #7
 8004030:	aa0a      	add	r2, sp, #40	; 0x28
 8004032:	2104      	movs	r1, #4
 8004034:	f7ff fe6b 	bl	8003d0e <parseHex>
 8004038:	2800      	cmp	r0, #0
 800403a:	d101      	bne.n	8004040 <slCanCheckCommand+0x138>
	uint8_t result = SLCAN_BELL;
 800403c:	2507      	movs	r5, #7
 800403e:	e77b      	b.n	8003f38 <slCanCheckCommand+0x30>
                	hcan.Init.SJW = sjw;
 8004040:	4b6a      	ldr	r3, [pc, #424]	; (80041ec <slCanCheckCommand+0x2e4>)
 8004042:	9a07      	ldr	r2, [sp, #28]
 8004044:	60da      	str	r2, [r3, #12]
                	hcan.Init.BS1 = bs1;
 8004046:	9a08      	ldr	r2, [sp, #32]
 8004048:	611a      	str	r2, [r3, #16]
                	hcan.Init.BS2 = bs2;
 800404a:	9a09      	ldr	r2, [sp, #36]	; 0x24
 800404c:	615a      	str	r2, [r3, #20]
                	hcan.Init.Prescaler = pre;
 800404e:	9a0a      	ldr	r2, [sp, #40]	; 0x28
 8004050:	605a      	str	r2, [r3, #4]
                	CANInit();
 8004052:	f000 f9b5 	bl	80043c0 <CANInit>
                    result = terminator;
 8004056:	4b62      	ldr	r3, [pc, #392]	; (80041e0 <slCanCheckCommand+0x2d8>)
 8004058:	781d      	ldrb	r5, [r3, #0]
 800405a:	e76d      	b.n	8003f38 <slCanCheckCommand+0x30>
                slcanSetOutputChar('V');
 800405c:	2056      	movs	r0, #86	; 0x56
 800405e:	f7ff fe2d 	bl	8003cbc <slcanSetOutputChar>
                slcanSetOutputAsHex(VERSION_HARDWARE_MAJOR);
 8004062:	2000      	movs	r0, #0
 8004064:	f7ff fe49 	bl	8003cfa <slcanSetOutputAsHex>
                slcanSetOutputAsHex(VERSION_HARDWARE_MINOR);
 8004068:	2003      	movs	r0, #3
 800406a:	f7ff fe46 	bl	8003cfa <slcanSetOutputAsHex>
                result = terminator;
 800406e:	4b5c      	ldr	r3, [pc, #368]	; (80041e0 <slCanCheckCommand+0x2d8>)
 8004070:	781d      	ldrb	r5, [r3, #0]
            break;
 8004072:	e761      	b.n	8003f38 <slCanCheckCommand+0x30>
                slcanSetOutputChar('v');
 8004074:	2076      	movs	r0, #118	; 0x76
 8004076:	f7ff fe21 	bl	8003cbc <slcanSetOutputChar>
                slcanSetOutputAsHex(VERSION_FIRMWARE_MAJOR);
 800407a:	2005      	movs	r0, #5
 800407c:	f7ff fe3d 	bl	8003cfa <slcanSetOutputAsHex>
                slcanSetOutputAsHex(VERSION_FIRMWARE_MINOR);
 8004080:	2002      	movs	r0, #2
 8004082:	f7ff fe3a 	bl	8003cfa <slcanSetOutputAsHex>
                slcanSetOutputChar('h');
 8004086:	2068      	movs	r0, #104	; 0x68
 8004088:	f7ff fe18 	bl	8003cbc <slcanSetOutputChar>
                result = terminator;
 800408c:	4b54      	ldr	r3, [pc, #336]	; (80041e0 <slCanCheckCommand+0x2d8>)
 800408e:	781d      	ldrb	r5, [r3, #0]
            break;
 8004090:	e752      	b.n	8003f38 <slCanCheckCommand+0x30>
                slcanSetOutputChar('N');
 8004092:	204e      	movs	r0, #78	; 0x4e
 8004094:	f7ff fe12 	bl	8003cbc <slcanSetOutputChar>
                slcanSetOutputAsHex((uint8_t)(serialNumber));
 8004098:	4d55      	ldr	r5, [pc, #340]	; (80041f0 <slCanCheckCommand+0x2e8>)
 800409a:	6828      	ldr	r0, [r5, #0]
 800409c:	b2c0      	uxtb	r0, r0
 800409e:	f7ff fe2c 	bl	8003cfa <slcanSetOutputAsHex>
                slcanSetOutputAsHex((uint8_t)(serialNumber>>8));
 80040a2:	6828      	ldr	r0, [r5, #0]
 80040a4:	1200      	asrs	r0, r0, #8
 80040a6:	b2c0      	uxtb	r0, r0
 80040a8:	f7ff fe27 	bl	8003cfa <slcanSetOutputAsHex>
                slcanSetOutputAsHex((uint8_t)(serialNumber>>16));
 80040ac:	6828      	ldr	r0, [r5, #0]
 80040ae:	1400      	asrs	r0, r0, #16
 80040b0:	b2c0      	uxtb	r0, r0
 80040b2:	f7ff fe22 	bl	8003cfa <slcanSetOutputAsHex>
                slcanSetOutputAsHex((uint8_t)(serialNumber>>24));
 80040b6:	6828      	ldr	r0, [r5, #0]
 80040b8:	0e00      	lsrs	r0, r0, #24
 80040ba:	f7ff fe1e 	bl	8003cfa <slcanSetOutputAsHex>
                result = terminator;
 80040be:	4b48      	ldr	r3, [pc, #288]	; (80041e0 <slCanCheckCommand+0x2d8>)
 80040c0:	781d      	ldrb	r5, [r3, #0]
            break;
 80040c2:	e739      	b.n	8003f38 <slCanCheckCommand+0x30>
            	hcan.Init.Mode = CAN_MODE_NORMAL;
 80040c4:	2200      	movs	r2, #0
 80040c6:	4b49      	ldr	r3, [pc, #292]	; (80041ec <slCanCheckCommand+0x2e4>)
 80040c8:	609a      	str	r2, [r3, #8]
            	if(CANInit() == HAL_OK)
 80040ca:	f000 f979 	bl	80043c0 <CANInit>
 80040ce:	2800      	cmp	r0, #0
 80040d0:	d001      	beq.n	80040d6 <slCanCheckCommand+0x1ce>
	uint8_t result = SLCAN_BELL;
 80040d2:	2507      	movs	r5, #7
 80040d4:	e730      	b.n	8003f38 <slCanCheckCommand+0x30>
					HAL_NVIC_EnableIRQ(CEC_CAN_IRQn);
 80040d6:	301e      	adds	r0, #30
 80040d8:	f7fc fd10 	bl	8000afc <HAL_NVIC_EnableIRQ>
					state = STATE_OPEN;
 80040dc:	2202      	movs	r2, #2
 80040de:	4b41      	ldr	r3, [pc, #260]	; (80041e4 <slCanCheckCommand+0x2dc>)
 80040e0:	701a      	strb	r2, [r3, #0]
					result = terminator;
 80040e2:	4b3f      	ldr	r3, [pc, #252]	; (80041e0 <slCanCheckCommand+0x2d8>)
 80040e4:	781d      	ldrb	r5, [r3, #0]
 80040e6:	e727      	b.n	8003f38 <slCanCheckCommand+0x30>
            	hcan.Init.Mode = CAN_MODE_LOOPBACK;
 80040e8:	2280      	movs	r2, #128	; 0x80
 80040ea:	05d2      	lsls	r2, r2, #23
 80040ec:	4b3f      	ldr	r3, [pc, #252]	; (80041ec <slCanCheckCommand+0x2e4>)
 80040ee:	609a      	str	r2, [r3, #8]
            	HAL_NVIC_EnableIRQ(CEC_CAN_IRQn);
 80040f0:	201e      	movs	r0, #30
 80040f2:	f7fc fd03 	bl	8000afc <HAL_NVIC_EnableIRQ>
            	CANInit();
 80040f6:	f000 f963 	bl	80043c0 <CANInit>
                state = STATE_OPEN;
 80040fa:	2202      	movs	r2, #2
 80040fc:	4b39      	ldr	r3, [pc, #228]	; (80041e4 <slCanCheckCommand+0x2dc>)
 80040fe:	701a      	strb	r2, [r3, #0]
                result = terminator;
 8004100:	4b37      	ldr	r3, [pc, #220]	; (80041e0 <slCanCheckCommand+0x2d8>)
 8004102:	781d      	ldrb	r5, [r3, #0]
            break;
 8004104:	e718      	b.n	8003f38 <slCanCheckCommand+0x30>
            if (state == STATE_CONFIG)
 8004106:	4b37      	ldr	r3, [pc, #220]	; (80041e4 <slCanCheckCommand+0x2dc>)
 8004108:	781b      	ldrb	r3, [r3, #0]
 800410a:	2b00      	cmp	r3, #0
 800410c:	d001      	beq.n	8004112 <slCanCheckCommand+0x20a>
	uint8_t result = SLCAN_BELL;
 800410e:	2507      	movs	r5, #7
 8004110:	e712      	b.n	8003f38 <slCanCheckCommand+0x30>
            	hcan.Init.Mode = CAN_MODE_SILENT;
 8004112:	2280      	movs	r2, #128	; 0x80
 8004114:	0612      	lsls	r2, r2, #24
 8004116:	4b35      	ldr	r3, [pc, #212]	; (80041ec <slCanCheckCommand+0x2e4>)
 8004118:	609a      	str	r2, [r3, #8]
            	HAL_NVIC_EnableIRQ(CEC_CAN_IRQn);
 800411a:	201e      	movs	r0, #30
 800411c:	f7fc fcee 	bl	8000afc <HAL_NVIC_EnableIRQ>
            	CANInit();
 8004120:	f000 f94e 	bl	80043c0 <CANInit>
                state = STATE_LISTEN;
 8004124:	2201      	movs	r2, #1
 8004126:	4b2f      	ldr	r3, [pc, #188]	; (80041e4 <slCanCheckCommand+0x2dc>)
 8004128:	701a      	strb	r2, [r3, #0]
                result = terminator;
 800412a:	4b2d      	ldr	r3, [pc, #180]	; (80041e0 <slCanCheckCommand+0x2d8>)
 800412c:	781d      	ldrb	r5, [r3, #0]
 800412e:	e703      	b.n	8003f38 <slCanCheckCommand+0x30>
        		if(UART_FLAG == 0)
 8004130:	4b30      	ldr	r3, [pc, #192]	; (80041f4 <slCanCheckCommand+0x2ec>)
 8004132:	781b      	ldrb	r3, [r3, #0]
 8004134:	2b00      	cmp	r3, #0
 8004136:	d001      	beq.n	800413c <slCanCheckCommand+0x234>
	uint8_t result = SLCAN_BELL;
 8004138:	2507      	movs	r5, #7
 800413a:	e6fd      	b.n	8003f38 <slCanCheckCommand+0x30>
        			HAL_NVIC_DisableIRQ(CEC_CAN_IRQn);
 800413c:	201e      	movs	r0, #30
 800413e:	f7fc fce7 	bl	8000b10 <HAL_NVIC_DisableIRQ>
					state = STATE_CONFIG;
 8004142:	2200      	movs	r2, #0
 8004144:	4b27      	ldr	r3, [pc, #156]	; (80041e4 <slCanCheckCommand+0x2dc>)
 8004146:	701a      	strb	r2, [r3, #0]
					result = terminator;
 8004148:	4b25      	ldr	r3, [pc, #148]	; (80041e0 <slCanCheckCommand+0x2d8>)
 800414a:	781d      	ldrb	r5, [r3, #0]
 800414c:	e6f4      	b.n	8003f38 <slCanCheckCommand+0x30>
            if (state == STATE_OPEN)
 800414e:	4b25      	ldr	r3, [pc, #148]	; (80041e4 <slCanCheckCommand+0x2dc>)
 8004150:	781b      	ldrb	r3, [r3, #0]
 8004152:	2b02      	cmp	r3, #2
 8004154:	d001      	beq.n	800415a <slCanCheckCommand+0x252>
	uint8_t result = SLCAN_BELL;
 8004156:	2507      	movs	r5, #7
 8004158:	e6ee      	b.n	8003f38 <slCanCheckCommand+0x30>
                if (transmitStd(line) == HAL_OK) {
 800415a:	0020      	movs	r0, r4
 800415c:	f7ff fe08 	bl	8003d70 <transmitStd>
 8004160:	2800      	cmp	r0, #0
 8004162:	d000      	beq.n	8004166 <slCanCheckCommand+0x25e>
 8004164:	e0d6      	b.n	8004314 <slCanCheckCommand+0x40c>
                    if (line[0] < 'Z') slcanSetOutputChar('Z');
 8004166:	7823      	ldrb	r3, [r4, #0]
 8004168:	2b59      	cmp	r3, #89	; 0x59
 800416a:	d805      	bhi.n	8004178 <slCanCheckCommand+0x270>
 800416c:	305a      	adds	r0, #90	; 0x5a
 800416e:	f7ff fda5 	bl	8003cbc <slcanSetOutputChar>
                    result = terminator;
 8004172:	4b1b      	ldr	r3, [pc, #108]	; (80041e0 <slCanCheckCommand+0x2d8>)
 8004174:	781d      	ldrb	r5, [r3, #0]
 8004176:	e6df      	b.n	8003f38 <slCanCheckCommand+0x30>
                    else slcanSetOutputChar('z');
 8004178:	207a      	movs	r0, #122	; 0x7a
 800417a:	f7ff fd9f 	bl	8003cbc <slcanSetOutputChar>
 800417e:	e7f8      	b.n	8004172 <slCanCheckCommand+0x26a>
                unsigned char status = HAL_CAN_GetError(&hcan);
 8004180:	481a      	ldr	r0, [pc, #104]	; (80041ec <slCanCheckCommand+0x2e4>)
 8004182:	f7fc fc87 	bl	8000a94 <HAL_CAN_GetError>
 8004186:	b2c5      	uxtb	r5, r0
                slcanSetOutputChar('F');
 8004188:	2046      	movs	r0, #70	; 0x46
 800418a:	f7ff fd97 	bl	8003cbc <slcanSetOutputChar>
                slcanSetOutputAsHex(status);
 800418e:	0028      	movs	r0, r5
 8004190:	f7ff fdb3 	bl	8003cfa <slcanSetOutputAsHex>
                result = terminator;
 8004194:	4b12      	ldr	r3, [pc, #72]	; (80041e0 <slCanCheckCommand+0x2d8>)
 8004196:	781d      	ldrb	r5, [r3, #0]
            break;
 8004198:	e6ce      	b.n	8003f38 <slCanCheckCommand+0x30>
                if (parseHex(&line[1], 1, &stamping)) {
 800419a:	1c60      	adds	r0, r4, #1
 800419c:	aa0a      	add	r2, sp, #40	; 0x28
 800419e:	2101      	movs	r1, #1
 80041a0:	f7ff fdb5 	bl	8003d0e <parseHex>
 80041a4:	2800      	cmp	r0, #0
 80041a6:	d002      	beq.n	80041ae <slCanCheckCommand+0x2a6>
                    result = terminator;
 80041a8:	4b0d      	ldr	r3, [pc, #52]	; (80041e0 <slCanCheckCommand+0x2d8>)
 80041aa:	781d      	ldrb	r5, [r3, #0]
 80041ac:	e6c4      	b.n	8003f38 <slCanCheckCommand+0x30>
	uint8_t result = SLCAN_BELL;
 80041ae:	2507      	movs	r5, #7
            break;
 80041b0:	e6c2      	b.n	8003f38 <slCanCheckCommand+0x30>
            if (line[1] == 'd') // disable all filtering
 80041b2:	7863      	ldrb	r3, [r4, #1]
 80041b4:	2b64      	cmp	r3, #100	; 0x64
 80041b6:	d008      	beq.n	80041ca <slCanCheckCommand+0x2c2>
            	if (!parseHex(&line[1], 2, &n)) break;
 80041b8:	1c60      	adds	r0, r4, #1
 80041ba:	aa03      	add	r2, sp, #12
 80041bc:	2102      	movs	r1, #2
 80041be:	f7ff fda6 	bl	8003d0e <parseHex>
 80041c2:	2800      	cmp	r0, #0
 80041c4:	d118      	bne.n	80041f8 <slCanCheckCommand+0x2f0>
	uint8_t result = SLCAN_BELL;
 80041c6:	2507      	movs	r5, #7
 80041c8:	e6b6      	b.n	8003f38 <slCanCheckCommand+0x30>
            	slcanClearAllFilters();
 80041ca:	f000 f909 	bl	80043e0 <slcanClearAllFilters>
            	result = terminator;
 80041ce:	4b04      	ldr	r3, [pc, #16]	; (80041e0 <slCanCheckCommand+0x2d8>)
 80041d0:	781d      	ldrb	r5, [r3, #0]
            	slcanSetOutputChar('M');
 80041d2:	204d      	movs	r0, #77	; 0x4d
 80041d4:	f7ff fd72 	bl	8003cbc <slcanSetOutputChar>
 80041d8:	e6ae      	b.n	8003f38 <slCanCheckCommand+0x30>
 80041da:	46c0      	nop			; (mov r8, r8)
 80041dc:	08004d70 	.word	0x08004d70
 80041e0:	20000114 	.word	0x20000114
 80041e4:	200001c8 	.word	0x200001c8
 80041e8:	08004e40 	.word	0x08004e40
 80041ec:	20000468 	.word	0x20000468
 80041f0:	20000514 	.word	0x20000514
 80041f4:	20000184 	.word	0x20000184
            	if (!parseHex(&line[3], 2, &b)) break;
 80041f8:	1ce0      	adds	r0, r4, #3
 80041fa:	aa04      	add	r2, sp, #16
 80041fc:	2102      	movs	r1, #2
 80041fe:	f7ff fd86 	bl	8003d0e <parseHex>
 8004202:	2800      	cmp	r0, #0
 8004204:	d0df      	beq.n	80041c6 <slCanCheckCommand+0x2be>
            	if (!parseHex(&line[5], 1, &fflags.reg)) break;
 8004206:	1d60      	adds	r0, r4, #5
 8004208:	aa05      	add	r2, sp, #20
 800420a:	2101      	movs	r1, #1
 800420c:	f7ff fd7f 	bl	8003d0e <parseHex>
 8004210:	2800      	cmp	r0, #0
 8004212:	d0d8      	beq.n	80041c6 <slCanCheckCommand+0x2be>
            	if (!parseHex(&line[6], 8, &id)) break;
 8004214:	1da0      	adds	r0, r4, #6
 8004216:	aa08      	add	r2, sp, #32
 8004218:	2108      	movs	r1, #8
 800421a:	f7ff fd78 	bl	8003d0e <parseHex>
 800421e:	2800      	cmp	r0, #0
 8004220:	d0d1      	beq.n	80041c6 <slCanCheckCommand+0x2be>
            	if (!parseHex(&line[14], 1, &idflags.reg)) break;
 8004222:	aa06      	add	r2, sp, #24
 8004224:	2101      	movs	r1, #1
 8004226:	0020      	movs	r0, r4
 8004228:	300e      	adds	r0, #14
 800422a:	f7ff fd70 	bl	8003d0e <parseHex>
 800422e:	2800      	cmp	r0, #0
 8004230:	d0c9      	beq.n	80041c6 <slCanCheckCommand+0x2be>
            	if (!parseHex(&line[15], 8, &mask)) break;
 8004232:	aa09      	add	r2, sp, #36	; 0x24
 8004234:	2108      	movs	r1, #8
 8004236:	0020      	movs	r0, r4
 8004238:	300f      	adds	r0, #15
 800423a:	f7ff fd68 	bl	8003d0e <parseHex>
 800423e:	2800      	cmp	r0, #0
 8004240:	d0c1      	beq.n	80041c6 <slCanCheckCommand+0x2be>
            	if (!parseHex(&line[23], 1, &maskflags.reg)) break;
 8004242:	aa07      	add	r2, sp, #28
 8004244:	2101      	movs	r1, #1
 8004246:	0020      	movs	r0, r4
 8004248:	3017      	adds	r0, #23
 800424a:	f7ff fd60 	bl	8003d0e <parseHex>
 800424e:	2800      	cmp	r0, #0
 8004250:	d0b9      	beq.n	80041c6 <slCanCheckCommand+0x2be>
            	if (fflags.bScale == CAN_FILTERSCALE_32BIT)
 8004252:	ab05      	add	r3, sp, #20
 8004254:	781b      	ldrb	r3, [r3, #0]
 8004256:	075b      	lsls	r3, r3, #29
 8004258:	d531      	bpl.n	80042be <slCanCheckCommand+0x3b6>
					freg = slcanFillIdRegister32(idflags, id);
 800425a:	9908      	ldr	r1, [sp, #32]
 800425c:	9806      	ldr	r0, [sp, #24]
 800425e:	f000 f8d9 	bl	8004414 <slcanFillIdRegister32>
 8004262:	9001      	str	r0, [sp, #4]
					mreg = slcanFillIdRegister32(maskflags, mask);
 8004264:	9909      	ldr	r1, [sp, #36]	; 0x24
 8004266:	9807      	ldr	r0, [sp, #28]
 8004268:	f000 f8d4 	bl	8004414 <slcanFillIdRegister32>
 800426c:	9002      	str	r0, [sp, #8]
            	sFilterConfig.FilterNumber = n;
 800426e:	9b03      	ldr	r3, [sp, #12]
 8004270:	930f      	str	r3, [sp, #60]	; 0x3c
            	sFilterConfig.BankNumber = b;
 8004272:	9b04      	ldr	r3, [sp, #16]
 8004274:	9313      	str	r3, [sp, #76]	; 0x4c
            	sFilterConfig.FilterActivation = fflags.bFilterActivation; // ENABLE == 1
 8004276:	ab05      	add	r3, sp, #20
 8004278:	781b      	ldrb	r3, [r3, #0]
 800427a:	07da      	lsls	r2, r3, #31
 800427c:	0fd2      	lsrs	r2, r2, #31
 800427e:	9212      	str	r2, [sp, #72]	; 0x48
				sFilterConfig.FilterMode = fflags.bMode; // CAN_FILTERMODE_IDLIST == 1
 8004280:	079a      	lsls	r2, r3, #30
 8004282:	0fd2      	lsrs	r2, r2, #31
 8004284:	9210      	str	r2, [sp, #64]	; 0x40
				sFilterConfig.FilterScale = fflags.bScale;  // CAN_FILTERSCALE_32BIT == 1
 8004286:	075a      	lsls	r2, r3, #29
 8004288:	0fd2      	lsrs	r2, r2, #31
 800428a:	9211      	str	r2, [sp, #68]	; 0x44
				sFilterConfig.FilterFIFOAssignment = fflags.bFIFO;
 800428c:	071b      	lsls	r3, r3, #28
 800428e:	0fdb      	lsrs	r3, r3, #31
 8004290:	930e      	str	r3, [sp, #56]	; 0x38
				sFilterConfig.FilterIdHigh = freg.h.reg;
 8004292:	ab01      	add	r3, sp, #4
 8004294:	881a      	ldrh	r2, [r3, #0]
 8004296:	920a      	str	r2, [sp, #40]	; 0x28
				sFilterConfig.FilterIdLow = freg.l.reg;
 8004298:	885b      	ldrh	r3, [r3, #2]
 800429a:	930b      	str	r3, [sp, #44]	; 0x2c
				sFilterConfig.FilterMaskIdHigh = mreg.h.reg;
 800429c:	ab02      	add	r3, sp, #8
 800429e:	881a      	ldrh	r2, [r3, #0]
 80042a0:	920c      	str	r2, [sp, #48]	; 0x30
				sFilterConfig.FilterMaskIdLow = mreg.l.reg;
 80042a2:	885b      	ldrh	r3, [r3, #2]
 80042a4:	930d      	str	r3, [sp, #52]	; 0x34
				slcanSetOutputChar('M');
 80042a6:	204d      	movs	r0, #77	; 0x4d
 80042a8:	f7ff fd08 	bl	8003cbc <slcanSetOutputChar>
				if (HAL_CAN_ConfigFilter(&hcan, &sFilterConfig) == HAL_OK)
 80042ac:	a90a      	add	r1, sp, #40	; 0x28
 80042ae:	481a      	ldr	r0, [pc, #104]	; (8004318 <slCanCheckCommand+0x410>)
 80042b0:	f7fb ffe6 	bl	8000280 <HAL_CAN_ConfigFilter>
 80042b4:	2800      	cmp	r0, #0
 80042b6:	d10d      	bne.n	80042d4 <slCanCheckCommand+0x3cc>
					result = terminator;
 80042b8:	4b18      	ldr	r3, [pc, #96]	; (800431c <slCanCheckCommand+0x414>)
 80042ba:	781d      	ldrb	r5, [r3, #0]
 80042bc:	e63c      	b.n	8003f38 <slCanCheckCommand+0x30>
            		freg = slcanFillIdRegister16(idflags, id);
 80042be:	9908      	ldr	r1, [sp, #32]
 80042c0:	9806      	ldr	r0, [sp, #24]
 80042c2:	f000 f8e1 	bl	8004488 <slcanFillIdRegister16>
 80042c6:	9001      	str	r0, [sp, #4]
            		mreg = slcanFillIdRegister16(maskflags, mask);
 80042c8:	9909      	ldr	r1, [sp, #36]	; 0x24
 80042ca:	9807      	ldr	r0, [sp, #28]
 80042cc:	f000 f8dc 	bl	8004488 <slcanFillIdRegister16>
 80042d0:	9002      	str	r0, [sp, #8]
 80042d2:	e7cc      	b.n	800426e <slCanCheckCommand+0x366>
	uint8_t result = SLCAN_BELL;
 80042d4:	2507      	movs	r5, #7
 80042d6:	e62f      	b.n	8003f38 <slCanCheckCommand+0x30>
        	 if ((line[1] == 'o') && (line[2] == 'o') && (line[3] == 't')){
 80042d8:	7863      	ldrb	r3, [r4, #1]
 80042da:	2b6f      	cmp	r3, #111	; 0x6f
 80042dc:	d001      	beq.n	80042e2 <slCanCheckCommand+0x3da>
	uint8_t result = SLCAN_BELL;
 80042de:	2507      	movs	r5, #7
 80042e0:	e62a      	b.n	8003f38 <slCanCheckCommand+0x30>
        	 if ((line[1] == 'o') && (line[2] == 'o') && (line[3] == 't')){
 80042e2:	78a3      	ldrb	r3, [r4, #2]
 80042e4:	2b6f      	cmp	r3, #111	; 0x6f
 80042e6:	d001      	beq.n	80042ec <slCanCheckCommand+0x3e4>
	uint8_t result = SLCAN_BELL;
 80042e8:	2507      	movs	r5, #7
 80042ea:	e625      	b.n	8003f38 <slCanCheckCommand+0x30>
        	 if ((line[1] == 'o') && (line[2] == 'o') && (line[3] == 't')){
 80042ec:	78e3      	ldrb	r3, [r4, #3]
 80042ee:	2b74      	cmp	r3, #116	; 0x74
 80042f0:	d001      	beq.n	80042f6 <slCanCheckCommand+0x3ee>
	uint8_t result = SLCAN_BELL;
 80042f2:	2507      	movs	r5, #7
 80042f4:	e620      	b.n	8003f38 <slCanCheckCommand+0x30>
        		 line[0] = 0;
 80042f6:	2300      	movs	r3, #0
 80042f8:	7023      	strb	r3, [r4, #0]
        		 line[1] = 0;
 80042fa:	7063      	strb	r3, [r4, #1]
        		 line[2] = 0;
 80042fc:	70a3      	strb	r3, [r4, #2]
        		 line[3] = 0;
 80042fe:	70e3      	strb	r3, [r4, #3]
        		 RebootToBootloader();
 8004300:	f7ff fb68 	bl	80039d4 <RebootToBootloader>
	uint8_t result = SLCAN_BELL;
 8004304:	2507      	movs	r5, #7
 8004306:	e617      	b.n	8003f38 <slCanCheckCommand+0x30>
 8004308:	2507      	movs	r5, #7
 800430a:	e615      	b.n	8003f38 <slCanCheckCommand+0x30>
 800430c:	2507      	movs	r5, #7
 800430e:	e613      	b.n	8003f38 <slCanCheckCommand+0x30>
 8004310:	2507      	movs	r5, #7
 8004312:	e611      	b.n	8003f38 <slCanCheckCommand+0x30>
 8004314:	2507      	movs	r5, #7
 8004316:	e60f      	b.n	8003f38 <slCanCheckCommand+0x30>
 8004318:	20000468 	.word	0x20000468
 800431c:	20000114 	.word	0x20000114

08004320 <slcan_getState>:
 * @param  none
 * @retval slcan state
 */
uint8_t slcan_getState()
{
	return state;
 8004320:	4b01      	ldr	r3, [pc, #4]	; (8004328 <slcan_getState+0x8>)
 8004322:	7818      	ldrb	r0, [r3, #0]
}
 8004324:	4770      	bx	lr
 8004326:	46c0      	nop			; (mov r8, r8)
 8004328:	200001c8 	.word	0x200001c8

0800432c <slcanReciveCanFrame>:
 * @param  canmsg Pointer to can message
 * 			step Current step
 * @retval Next character to print out
 */
uint8_t slcanReciveCanFrame(CanRxMsgTypeDef *pRxMsg)
{
 800432c:	b570      	push	{r4, r5, r6, lr}
 800432e:	0005      	movs	r5, r0
	uint8_t i;

	// type
	if (pRxMsg->IDE == CAN_ID_EXT) {
 8004330:	6883      	ldr	r3, [r0, #8]
 8004332:	2b04      	cmp	r3, #4
 8004334:	d018      	beq.n	8004368 <slcanReciveCanFrame+0x3c>
		{
			slcanSetOutputAsHex(((uint8_t*)&pRxMsg->ExtId)[i - 1]);
		}
	} else
	{
		if (pRxMsg->RTR == CAN_RTR_REMOTE)
 8004336:	68c3      	ldr	r3, [r0, #12]
 8004338:	2b02      	cmp	r3, #2
 800433a:	d02a      	beq.n	8004392 <slcanReciveCanFrame+0x66>
		{
			slcanSetOutputChar('r');
		}
		else
		{
			slcanSetOutputChar('t');
 800433c:	2074      	movs	r0, #116	; 0x74
 800433e:	f7ff fcbd 	bl	8003cbc <slcanSetOutputChar>
		}
		//id
		slCanSendNibble(((uint8_t*)&pRxMsg->StdId)[1] & 0x0F);
 8004342:	786b      	ldrb	r3, [r5, #1]
 8004344:	200f      	movs	r0, #15
 8004346:	4018      	ands	r0, r3
 8004348:	f7ff fccc 	bl	8003ce4 <slCanSendNibble>
		slcanSetOutputAsHex(((uint8_t*)&pRxMsg->StdId)[0]);
 800434c:	7828      	ldrb	r0, [r5, #0]
 800434e:	f7ff fcd4 	bl	8003cfa <slcanSetOutputAsHex>
	}
	// length
	slCanSendNibble(pRxMsg->DLC);
 8004352:	7c28      	ldrb	r0, [r5, #16]
 8004354:	f7ff fcc6 	bl	8003ce4 <slCanSendNibble>

	//data
	if ((pRxMsg->DLC > 0) && (pRxMsg->RTR != CAN_RTR_REMOTE))
 8004358:	692b      	ldr	r3, [r5, #16]
 800435a:	2b00      	cmp	r3, #0
 800435c:	d026      	beq.n	80043ac <slcanReciveCanFrame+0x80>
 800435e:	68eb      	ldr	r3, [r5, #12]
 8004360:	2b02      	cmp	r3, #2
 8004362:	d023      	beq.n	80043ac <slcanReciveCanFrame+0x80>
 8004364:	2400      	movs	r4, #0
 8004366:	e01e      	b.n	80043a6 <slcanReciveCanFrame+0x7a>
		if (pRxMsg->RTR == CAN_RTR_REMOTE)
 8004368:	68c3      	ldr	r3, [r0, #12]
 800436a:	2b02      	cmp	r3, #2
 800436c:	d004      	beq.n	8004378 <slcanReciveCanFrame+0x4c>
			slcanSetOutputChar('T');
 800436e:	2054      	movs	r0, #84	; 0x54
 8004370:	f7ff fca4 	bl	8003cbc <slcanSetOutputChar>
{
 8004374:	2404      	movs	r4, #4
 8004376:	e009      	b.n	800438c <slcanReciveCanFrame+0x60>
			slcanSetOutputChar('R');
 8004378:	2052      	movs	r0, #82	; 0x52
 800437a:	f7ff fc9f 	bl	8003cbc <slcanSetOutputChar>
 800437e:	e7f9      	b.n	8004374 <slcanReciveCanFrame+0x48>
			slcanSetOutputAsHex(((uint8_t*)&pRxMsg->ExtId)[i - 1]);
 8004380:	1d2a      	adds	r2, r5, #4
 8004382:	3c01      	subs	r4, #1
 8004384:	5d10      	ldrb	r0, [r2, r4]
 8004386:	f7ff fcb8 	bl	8003cfa <slcanSetOutputAsHex>
		for (i = 4; i != 0; i--)
 800438a:	b2e4      	uxtb	r4, r4
 800438c:	2c00      	cmp	r4, #0
 800438e:	d1f7      	bne.n	8004380 <slcanReciveCanFrame+0x54>
 8004390:	e7df      	b.n	8004352 <slcanReciveCanFrame+0x26>
			slcanSetOutputChar('r');
 8004392:	2072      	movs	r0, #114	; 0x72
 8004394:	f7ff fc92 	bl	8003cbc <slcanSetOutputChar>
 8004398:	e7d3      	b.n	8004342 <slcanReciveCanFrame+0x16>
	{
		for (i = 0;  i != pRxMsg->DLC; i ++)
		{
			slcanSetOutputAsHex(pRxMsg->Data[i]);
 800439a:	192b      	adds	r3, r5, r4
 800439c:	7d18      	ldrb	r0, [r3, #20]
 800439e:	f7ff fcac 	bl	8003cfa <slcanSetOutputAsHex>
		for (i = 0;  i != pRxMsg->DLC; i ++)
 80043a2:	3401      	adds	r4, #1
 80043a4:	b2e4      	uxtb	r4, r4
 80043a6:	692b      	ldr	r3, [r5, #16]
 80043a8:	429c      	cmp	r4, r3
 80043aa:	d1f6      	bne.n	800439a <slcanReciveCanFrame+0x6e>
		}
	}
	slcanSetOutputChar(terminator);
 80043ac:	4b03      	ldr	r3, [pc, #12]	; (80043bc <slcanReciveCanFrame+0x90>)
 80043ae:	7818      	ldrb	r0, [r3, #0]
 80043b0:	f7ff fc84 	bl	8003cbc <slcanSetOutputChar>
	slcanOutputFlush();
 80043b4:	f7ff fd54 	bl	8003e60 <slcanOutputFlush>
	return 0;
}
 80043b8:	2000      	movs	r0, #0
 80043ba:	bd70      	pop	{r4, r5, r6, pc}
 80043bc:	20000114 	.word	0x20000114

080043c0 <CANInit>:
#include "slcan_additional.h"

extern CAN_HandleTypeDef hcan;
extern IWDG_HandleTypeDef hiwdg;
HAL_StatusTypeDef CANInit(void)
{
 80043c0:	b510      	push	{r4, lr}
    while (HAL_CAN_Init(&hcan) == HAL_TIMEOUT)
 80043c2:	e002      	b.n	80043ca <CANInit+0xa>
    {
    	HAL_IWDG_Refresh(&hiwdg);
 80043c4:	4804      	ldr	r0, [pc, #16]	; (80043d8 <CANInit+0x18>)
 80043c6:	f7fc ff33 	bl	8001230 <HAL_IWDG_Refresh>
    while (HAL_CAN_Init(&hcan) == HAL_TIMEOUT)
 80043ca:	4804      	ldr	r0, [pc, #16]	; (80043dc <CANInit+0x1c>)
 80043cc:	f7fb ffce 	bl	800036c <HAL_CAN_Init>
 80043d0:	2803      	cmp	r0, #3
 80043d2:	d0f7      	beq.n	80043c4 <CANInit+0x4>
    }
    return HAL_OK;
}
 80043d4:	2000      	movs	r0, #0
 80043d6:	bd10      	pop	{r4, pc}
 80043d8:	20000458 	.word	0x20000458
 80043dc:	20000468 	.word	0x20000468

080043e0 <slcanClearAllFilters>:

HAL_StatusTypeDef slcanClearAllFilters(void)
{
 80043e0:	b500      	push	{lr}
 80043e2:	b08b      	sub	sp, #44	; 0x2c
	CAN_FilterConfTypeDef sFilterConfig;
	sFilterConfig.FilterNumber = 0;
 80043e4:	2300      	movs	r3, #0
 80043e6:	9305      	str	r3, [sp, #20]
	sFilterConfig.FilterMode = CAN_FILTERMODE_IDMASK;
 80043e8:	9306      	str	r3, [sp, #24]
	sFilterConfig.FilterScale = CAN_FILTERSCALE_32BIT;
 80043ea:	2201      	movs	r2, #1
 80043ec:	9207      	str	r2, [sp, #28]
	sFilterConfig.FilterIdHigh = 0x0000;
 80043ee:	9300      	str	r3, [sp, #0]
	sFilterConfig.FilterIdLow = 0;
 80043f0:	9301      	str	r3, [sp, #4]
	sFilterConfig.FilterMaskIdHigh = 0x0000;
 80043f2:	9302      	str	r3, [sp, #8]
	sFilterConfig.FilterMaskIdLow = 0;
 80043f4:	9303      	str	r3, [sp, #12]
	sFilterConfig.FilterFIFOAssignment = 0;
 80043f6:	9304      	str	r3, [sp, #16]
	sFilterConfig.FilterActivation = ENABLE;
 80043f8:	9208      	str	r2, [sp, #32]
	sFilterConfig.BankNumber = 0;
 80043fa:	9309      	str	r3, [sp, #36]	; 0x24

	if (HAL_CAN_ConfigFilter(&hcan, &sFilterConfig) != HAL_OK)
 80043fc:	4669      	mov	r1, sp
 80043fe:	4804      	ldr	r0, [pc, #16]	; (8004410 <slcanClearAllFilters+0x30>)
 8004400:	f7fb ff3e 	bl	8000280 <HAL_CAN_ConfigFilter>
 8004404:	2800      	cmp	r0, #0
 8004406:	d101      	bne.n	800440c <slcanClearAllFilters+0x2c>
		return HAL_ERROR;
	else
		return HAL_OK;
}
 8004408:	b00b      	add	sp, #44	; 0x2c
 800440a:	bd00      	pop	{pc}
		return HAL_ERROR;
 800440c:	2001      	movs	r0, #1
 800440e:	e7fb      	b.n	8004408 <slcanClearAllFilters+0x28>
 8004410:	20000468 	.word	0x20000468

08004414 <slcanFillIdRegister32>:

tCANfilter slcanFillIdRegister32(tCANFilterFlagsId fl, uint32_t id)
{
 8004414:	b510      	push	{r4, lr}
 8004416:	b082      	sub	sp, #8
	tCANfilter f;
	f.h.reg = 0;
 8004418:	2300      	movs	r3, #0
 800441a:	466a      	mov	r2, sp
 800441c:	8013      	strh	r3, [r2, #0]
	f.l.reg = 0;
 800441e:	8053      	strh	r3, [r2, #2]

	f.l.f32.RTR = fl.bRTR1;
 8004420:	07c3      	lsls	r3, r0, #31
 8004422:	0fdb      	lsrs	r3, r3, #31
 8004424:	2201      	movs	r2, #1
 8004426:	4013      	ands	r3, r2
	f.l.f32.IDE = fl.bExtedned1;
 8004428:	0784      	lsls	r4, r0, #30
 800442a:	0fe4      	lsrs	r4, r4, #31
 800442c:	4022      	ands	r2, r4
 800442e:	0092      	lsls	r2, r2, #2
 8004430:	005b      	lsls	r3, r3, #1
 8004432:	4313      	orrs	r3, r2
 8004434:	466a      	mov	r2, sp
 8004436:	7093      	strb	r3, [r2, #2]
	if (fl.bExtedned1)
 8004438:	0783      	lsls	r3, r0, #30
 800443a:	d411      	bmi.n	8004460 <slcanFillIdRegister32+0x4c>
	{
		f.l.f32.EXID4_0 = id;
		f.l.f32.EXID12_5 = id >> 5;
		f.h.f32.EXID17_13 = id >> 13;
	} else {
		f.h.f32.STID2_0 = id;
 800443c:	014a      	lsls	r2, r1, #5
 800443e:	466b      	mov	r3, sp
 8004440:	7818      	ldrb	r0, [r3, #0]
 8004442:	231f      	movs	r3, #31
 8004444:	4003      	ands	r3, r0
 8004446:	4313      	orrs	r3, r2
 8004448:	466a      	mov	r2, sp
 800444a:	7013      	strb	r3, [r2, #0]
		f.h.f32.STID10_3 = id >> 3;
 800444c:	08c9      	lsrs	r1, r1, #3
 800444e:	7051      	strb	r1, [r2, #1]
	}
	return f;
 8004450:	9b00      	ldr	r3, [sp, #0]
 8004452:	0c1a      	lsrs	r2, r3, #16
 8004454:	0412      	lsls	r2, r2, #16
 8004456:	0418      	lsls	r0, r3, #16
 8004458:	0c00      	lsrs	r0, r0, #16
 800445a:	4310      	orrs	r0, r2
}
 800445c:	b002      	add	sp, #8
 800445e:	bd10      	pop	{r4, pc}
		f.l.f32.EXID4_0 = id;
 8004460:	00ca      	lsls	r2, r1, #3
 8004462:	466b      	mov	r3, sp
 8004464:	7898      	ldrb	r0, [r3, #2]
 8004466:	2307      	movs	r3, #7
 8004468:	4003      	ands	r3, r0
 800446a:	4313      	orrs	r3, r2
 800446c:	466a      	mov	r2, sp
 800446e:	7093      	strb	r3, [r2, #2]
		f.l.f32.EXID12_5 = id >> 5;
 8004470:	094b      	lsrs	r3, r1, #5
 8004472:	70d3      	strb	r3, [r2, #3]
		f.h.f32.EXID17_13 = id >> 13;
 8004474:	0b49      	lsrs	r1, r1, #13
 8004476:	231f      	movs	r3, #31
 8004478:	400b      	ands	r3, r1
 800447a:	7811      	ldrb	r1, [r2, #0]
 800447c:	221f      	movs	r2, #31
 800447e:	4391      	bics	r1, r2
 8004480:	4319      	orrs	r1, r3
 8004482:	466b      	mov	r3, sp
 8004484:	7019      	strb	r1, [r3, #0]
 8004486:	e7e3      	b.n	8004450 <slcanFillIdRegister32+0x3c>

08004488 <slcanFillIdRegister16>:

tCANfilter slcanFillIdRegister16(tCANFilterFlagsId fl, uint32_t id)
{
 8004488:	b570      	push	{r4, r5, r6, lr}
 800448a:	b082      	sub	sp, #8
	tCANfilter f;
	f.h.reg = 0;
 800448c:	2300      	movs	r3, #0
 800448e:	466a      	mov	r2, sp
 8004490:	8013      	strh	r3, [r2, #0]
	f.l.reg = 0;
 8004492:	8053      	strh	r3, [r2, #2]

	f.l.f16.RTR = fl.bRTR1;
 8004494:	07c3      	lsls	r3, r0, #31
 8004496:	0fdb      	lsrs	r3, r3, #31
 8004498:	2201      	movs	r2, #1
 800449a:	4013      	ands	r3, r2
	f.l.f16.IDE = fl.bExtedned1;
 800449c:	0784      	lsls	r4, r0, #30
 800449e:	0fe4      	lsrs	r4, r4, #31
 80044a0:	4022      	ands	r2, r4
 80044a2:	0112      	lsls	r2, r2, #4
 80044a4:	00db      	lsls	r3, r3, #3
 80044a6:	4313      	orrs	r3, r2
 80044a8:	466a      	mov	r2, sp
 80044aa:	7093      	strb	r3, [r2, #2]
	if (fl.bExtedned1)
 80044ac:	b2c5      	uxtb	r5, r0
 80044ae:	07ab      	lsls	r3, r5, #30
 80044b0:	d511      	bpl.n	80044d6 <slcanFillIdRegister16+0x4e>
	{
		f.l.f16.STID2_0 = id;
 80044b2:	014c      	lsls	r4, r1, #5
 80044b4:	7892      	ldrb	r2, [r2, #2]
 80044b6:	231f      	movs	r3, #31
 80044b8:	4013      	ands	r3, r2
 80044ba:	0022      	movs	r2, r4
 80044bc:	431a      	orrs	r2, r3
		f.l.f16.STID10_3 = id >> 3;
 80044be:	08cb      	lsrs	r3, r1, #3
 80044c0:	466c      	mov	r4, sp
 80044c2:	70e3      	strb	r3, [r4, #3]
		f.l.f16.EXID17_15 = id >> 8;
 80044c4:	0a0c      	lsrs	r4, r1, #8
 80044c6:	2307      	movs	r3, #7
 80044c8:	401c      	ands	r4, r3
 80044ca:	b2d3      	uxtb	r3, r2
 80044cc:	2207      	movs	r2, #7
 80044ce:	4393      	bics	r3, r2
 80044d0:	4323      	orrs	r3, r4
 80044d2:	466a      	mov	r2, sp
 80044d4:	7093      	strb	r3, [r2, #2]
	}

	f.l.f16.RTR = fl.bRTR2;
 80044d6:	0744      	lsls	r4, r0, #29
 80044d8:	0fe4      	lsrs	r4, r4, #31
 80044da:	2601      	movs	r6, #1
 80044dc:	4034      	ands	r4, r6
 80044de:	00e4      	lsls	r4, r4, #3
 80044e0:	466b      	mov	r3, sp
 80044e2:	789b      	ldrb	r3, [r3, #2]
 80044e4:	2208      	movs	r2, #8
 80044e6:	4393      	bics	r3, r2
	f.l.f16.IDE = fl.bExtedned2;
 80044e8:	0702      	lsls	r2, r0, #28
 80044ea:	0fd2      	lsrs	r2, r2, #31
 80044ec:	4032      	ands	r2, r6
 80044ee:	0112      	lsls	r2, r2, #4
 80044f0:	4323      	orrs	r3, r4
 80044f2:	0018      	movs	r0, r3
 80044f4:	2310      	movs	r3, #16
 80044f6:	4398      	bics	r0, r3
 80044f8:	4310      	orrs	r0, r2
 80044fa:	466b      	mov	r3, sp
 80044fc:	7098      	strb	r0, [r3, #2]
	if (fl.bExtedned2)
 80044fe:	072b      	lsls	r3, r5, #28
 8004500:	d512      	bpl.n	8004528 <slcanFillIdRegister16+0xa0>
	{
		f.h.f16.STID2_0 = id >> 16;
 8004502:	0c0a      	lsrs	r2, r1, #16
 8004504:	2007      	movs	r0, #7
 8004506:	4002      	ands	r2, r0
 8004508:	0152      	lsls	r2, r2, #5
 800450a:	466b      	mov	r3, sp
 800450c:	781c      	ldrb	r4, [r3, #0]
 800450e:	231f      	movs	r3, #31
 8004510:	4023      	ands	r3, r4
		f.h.f16.STID10_3 = id >> (3 + 16);
 8004512:	0ccc      	lsrs	r4, r1, #19
 8004514:	466d      	mov	r5, sp
 8004516:	706c      	strb	r4, [r5, #1]
		f.h.f16.EXID17_15 = id >> (8 + 16);
 8004518:	0e09      	lsrs	r1, r1, #24
 800451a:	4008      	ands	r0, r1
 800451c:	4313      	orrs	r3, r2
 800451e:	0019      	movs	r1, r3
 8004520:	2307      	movs	r3, #7
 8004522:	4399      	bics	r1, r3
 8004524:	4301      	orrs	r1, r0
 8004526:	7029      	strb	r1, [r5, #0]
	}

	return f;
 8004528:	9b00      	ldr	r3, [sp, #0]
 800452a:	0c1a      	lsrs	r2, r3, #16
 800452c:	0412      	lsls	r2, r2, #16
 800452e:	0418      	lsls	r0, r3, #16
 8004530:	0c00      	lsrs	r0, r0, #16
 8004532:	4310      	orrs	r0, r2
}
 8004534:	b002      	add	sp, #8
 8004536:	bd70      	pop	{r4, r5, r6, pc}

08004538 <slcanSetCANBaudRate>:

void slcanSetCANBaudRate(uint8_t br)
{ //todo it is for 75% sampling point
 8004538:	b510      	push	{r4, lr}

	hcan.Init.SJW = CAN_SJW_2TQ;
 800453a:	4b1b      	ldr	r3, [pc, #108]	; (80045a8 <slcanSetCANBaudRate+0x70>)
 800453c:	2280      	movs	r2, #128	; 0x80
 800453e:	0452      	lsls	r2, r2, #17
 8004540:	60da      	str	r2, [r3, #12]
	hcan.Init.BS1 = CAN_BS1_11TQ;
 8004542:	22a0      	movs	r2, #160	; 0xa0
 8004544:	0312      	lsls	r2, r2, #12
 8004546:	611a      	str	r2, [r3, #16]
	hcan.Init.BS2 = CAN_BS2_4TQ;
 8004548:	22c0      	movs	r2, #192	; 0xc0
 800454a:	0392      	lsls	r2, r2, #14
 800454c:	615a      	str	r2, [r3, #20]

	switch (br)
 800454e:	2824      	cmp	r0, #36	; 0x24
 8004550:	d806      	bhi.n	8004560 <slcanSetCANBaudRate+0x28>
 8004552:	0080      	lsls	r0, r0, #2
 8004554:	4b15      	ldr	r3, [pc, #84]	; (80045ac <slcanSetCANBaudRate+0x74>)
 8004556:	581b      	ldr	r3, [r3, r0]
 8004558:	469f      	mov	pc, r3
	{
		case CAN_BR_1M:
			hcan.Init.Prescaler = 3;
 800455a:	2203      	movs	r2, #3
 800455c:	4b12      	ldr	r3, [pc, #72]	; (80045a8 <slcanSetCANBaudRate+0x70>)
 800455e:	605a      	str	r2, [r3, #4]

		default:
			break;
	}

	CANInit();
 8004560:	f7ff ff2e 	bl	80043c0 <CANInit>
}
 8004564:	bd10      	pop	{r4, pc}
			hcan.Init.Prescaler = 6;
 8004566:	2206      	movs	r2, #6
 8004568:	4b0f      	ldr	r3, [pc, #60]	; (80045a8 <slcanSetCANBaudRate+0x70>)
 800456a:	605a      	str	r2, [r3, #4]
		break;
 800456c:	e7f8      	b.n	8004560 <slcanSetCANBaudRate+0x28>
			hcan.Init.Prescaler = 12;
 800456e:	220c      	movs	r2, #12
 8004570:	4b0d      	ldr	r3, [pc, #52]	; (80045a8 <slcanSetCANBaudRate+0x70>)
 8004572:	605a      	str	r2, [r3, #4]
		break;
 8004574:	e7f4      	b.n	8004560 <slcanSetCANBaudRate+0x28>
			hcan.Init.Prescaler = 24;
 8004576:	2218      	movs	r2, #24
 8004578:	4b0b      	ldr	r3, [pc, #44]	; (80045a8 <slcanSetCANBaudRate+0x70>)
 800457a:	605a      	str	r2, [r3, #4]
		break;
 800457c:	e7f0      	b.n	8004560 <slcanSetCANBaudRate+0x28>
			hcan.Init.Prescaler = 30;
 800457e:	221e      	movs	r2, #30
 8004580:	4b09      	ldr	r3, [pc, #36]	; (80045a8 <slcanSetCANBaudRate+0x70>)
 8004582:	605a      	str	r2, [r3, #4]
		break;
 8004584:	e7ec      	b.n	8004560 <slcanSetCANBaudRate+0x28>
			hcan.Init.Prescaler = 60;
 8004586:	223c      	movs	r2, #60	; 0x3c
 8004588:	4b07      	ldr	r3, [pc, #28]	; (80045a8 <slcanSetCANBaudRate+0x70>)
 800458a:	605a      	str	r2, [r3, #4]
		break;
 800458c:	e7e8      	b.n	8004560 <slcanSetCANBaudRate+0x28>
			hcan.Init.Prescaler = 150;
 800458e:	2296      	movs	r2, #150	; 0x96
 8004590:	4b05      	ldr	r3, [pc, #20]	; (80045a8 <slcanSetCANBaudRate+0x70>)
 8004592:	605a      	str	r2, [r3, #4]
		break;
 8004594:	e7e4      	b.n	8004560 <slcanSetCANBaudRate+0x28>
			hcan.Init.Prescaler = 300;
 8004596:	2296      	movs	r2, #150	; 0x96
 8004598:	0052      	lsls	r2, r2, #1
 800459a:	4b03      	ldr	r3, [pc, #12]	; (80045a8 <slcanSetCANBaudRate+0x70>)
 800459c:	605a      	str	r2, [r3, #4]
		break;
 800459e:	e7df      	b.n	8004560 <slcanSetCANBaudRate+0x28>
			hcan.Init.Prescaler = 36;
 80045a0:	2224      	movs	r2, #36	; 0x24
 80045a2:	4b01      	ldr	r3, [pc, #4]	; (80045a8 <slcanSetCANBaudRate+0x70>)
 80045a4:	605a      	str	r2, [r3, #4]
		break;
 80045a6:	e7db      	b.n	8004560 <slcanSetCANBaudRate+0x28>
 80045a8:	20000468 	.word	0x20000468
 80045ac:	08004e68 	.word	0x08004e68

080045b0 <HAL_MspInit>:
/* USER CODE END 0 */
/**
  * Initializes the Global MSP.
  */
void HAL_MspInit(void)
{
 80045b0:	b500      	push	{lr}
 80045b2:	b083      	sub	sp, #12
  /* USER CODE BEGIN MspInit 0 */

  /* USER CODE END MspInit 0 */

  __HAL_RCC_SYSCFG_CLK_ENABLE();
 80045b4:	4b12      	ldr	r3, [pc, #72]	; (8004600 <HAL_MspInit+0x50>)
 80045b6:	6999      	ldr	r1, [r3, #24]
 80045b8:	2201      	movs	r2, #1
 80045ba:	4311      	orrs	r1, r2
 80045bc:	6199      	str	r1, [r3, #24]
 80045be:	6999      	ldr	r1, [r3, #24]
 80045c0:	400a      	ands	r2, r1
 80045c2:	9200      	str	r2, [sp, #0]
 80045c4:	9a00      	ldr	r2, [sp, #0]
  __HAL_RCC_PWR_CLK_ENABLE();
 80045c6:	69da      	ldr	r2, [r3, #28]
 80045c8:	2180      	movs	r1, #128	; 0x80
 80045ca:	0549      	lsls	r1, r1, #21
 80045cc:	430a      	orrs	r2, r1
 80045ce:	61da      	str	r2, [r3, #28]
 80045d0:	69db      	ldr	r3, [r3, #28]
 80045d2:	400b      	ands	r3, r1
 80045d4:	9301      	str	r3, [sp, #4]
 80045d6:	9b01      	ldr	r3, [sp, #4]

  /* System interrupt init*/
  /* SVC_IRQn interrupt configuration */
  HAL_NVIC_SetPriority(SVC_IRQn, 0, 0);
 80045d8:	2200      	movs	r2, #0
 80045da:	2100      	movs	r1, #0
 80045dc:	2005      	movs	r0, #5
 80045de:	4240      	negs	r0, r0
 80045e0:	f7fc fa5a 	bl	8000a98 <HAL_NVIC_SetPriority>
  /* PendSV_IRQn interrupt configuration */
  HAL_NVIC_SetPriority(PendSV_IRQn, 0, 0);
 80045e4:	2200      	movs	r2, #0
 80045e6:	2100      	movs	r1, #0
 80045e8:	2002      	movs	r0, #2
 80045ea:	4240      	negs	r0, r0
 80045ec:	f7fc fa54 	bl	8000a98 <HAL_NVIC_SetPriority>
  /* SysTick_IRQn interrupt configuration */
  HAL_NVIC_SetPriority(SysTick_IRQn, 0, 0);
 80045f0:	2200      	movs	r2, #0
 80045f2:	2100      	movs	r1, #0
 80045f4:	2001      	movs	r0, #1
 80045f6:	4240      	negs	r0, r0
 80045f8:	f7fc fa4e 	bl	8000a98 <HAL_NVIC_SetPriority>

  /* USER CODE BEGIN MspInit 1 */

  /* USER CODE END MspInit 1 */
}
 80045fc:	b003      	add	sp, #12
 80045fe:	bd00      	pop	{pc}
 8004600:	40021000 	.word	0x40021000

08004604 <HAL_CAN_MspInit>:

void HAL_CAN_MspInit(CAN_HandleTypeDef* hcan)
{
 8004604:	b500      	push	{lr}
 8004606:	b087      	sub	sp, #28

  GPIO_InitTypeDef GPIO_InitStruct;
  if(hcan->Instance==CAN)
 8004608:	6802      	ldr	r2, [r0, #0]
 800460a:	4b0f      	ldr	r3, [pc, #60]	; (8004648 <HAL_CAN_MspInit+0x44>)
 800460c:	429a      	cmp	r2, r3
 800460e:	d001      	beq.n	8004614 <HAL_CAN_MspInit+0x10>
  /* USER CODE BEGIN CAN_MspInit 1 */

  /* USER CODE END CAN_MspInit 1 */
  }

}
 8004610:	b007      	add	sp, #28
 8004612:	bd00      	pop	{pc}
    __HAL_RCC_CAN1_CLK_ENABLE();
 8004614:	4a0d      	ldr	r2, [pc, #52]	; (800464c <HAL_CAN_MspInit+0x48>)
 8004616:	69d1      	ldr	r1, [r2, #28]
 8004618:	2080      	movs	r0, #128	; 0x80
 800461a:	0480      	lsls	r0, r0, #18
 800461c:	4301      	orrs	r1, r0
 800461e:	61d1      	str	r1, [r2, #28]
 8004620:	69d3      	ldr	r3, [r2, #28]
 8004622:	4003      	ands	r3, r0
 8004624:	9300      	str	r3, [sp, #0]
 8004626:	9b00      	ldr	r3, [sp, #0]
    GPIO_InitStruct.Pin = GPIO_PIN_8|GPIO_PIN_9;
 8004628:	23c0      	movs	r3, #192	; 0xc0
 800462a:	009b      	lsls	r3, r3, #2
 800462c:	9301      	str	r3, [sp, #4]
    GPIO_InitStruct.Mode = GPIO_MODE_AF_PP;
 800462e:	2302      	movs	r3, #2
 8004630:	9302      	str	r3, [sp, #8]
    GPIO_InitStruct.Pull = GPIO_NOPULL;
 8004632:	2300      	movs	r3, #0
 8004634:	9303      	str	r3, [sp, #12]
    GPIO_InitStruct.Speed = GPIO_SPEED_FREQ_HIGH;
 8004636:	3303      	adds	r3, #3
 8004638:	9304      	str	r3, [sp, #16]
    GPIO_InitStruct.Alternate = GPIO_AF4_CAN;
 800463a:	3301      	adds	r3, #1
 800463c:	9305      	str	r3, [sp, #20]
    HAL_GPIO_Init(GPIOB, &GPIO_InitStruct);
 800463e:	a901      	add	r1, sp, #4
 8004640:	4803      	ldr	r0, [pc, #12]	; (8004650 <HAL_CAN_MspInit+0x4c>)
 8004642:	f7fc fcfb 	bl	800103c <HAL_GPIO_Init>
}
 8004646:	e7e3      	b.n	8004610 <HAL_CAN_MspInit+0xc>
 8004648:	40006400 	.word	0x40006400
 800464c:	40021000 	.word	0x40021000
 8004650:	48000400 	.word	0x48000400

08004654 <NMI_Handler>:

  /* USER CODE END NonMaskableInt_IRQn 0 */
  /* USER CODE BEGIN NonMaskableInt_IRQn 1 */

  /* USER CODE END NonMaskableInt_IRQn 1 */
}
 8004654:	4770      	bx	lr

08004656 <HardFault_Handler>:

/**
* @brief This function handles Hard fault interrupt.
*/
void HardFault_Handler(void)
{
 8004656:	e7fe      	b.n	8004656 <HardFault_Handler>

08004658 <SVC_Handler>:

  /* USER CODE END SVC_IRQn 0 */
  /* USER CODE BEGIN SVC_IRQn 1 */

  /* USER CODE END SVC_IRQn 1 */
}
 8004658:	4770      	bx	lr

0800465a <PendSV_Handler>:

  /* USER CODE END PendSV_IRQn 0 */
  /* USER CODE BEGIN PendSV_IRQn 1 */

  /* USER CODE END PendSV_IRQn 1 */
}
 800465a:	4770      	bx	lr

0800465c <SysTick_Handler>:

/**
* @brief This function handles System tick timer.
*/
void SysTick_Handler(void)
{
 800465c:	b510      	push	{r4, lr}
  /* USER CODE BEGIN SysTick_IRQn 0 */

  /* USER CODE END SysTick_IRQn 0 */
  HAL_IncTick();
 800465e:	f7fb fe01 	bl	8000264 <HAL_IncTick>
  HAL_SYSTICK_IRQHandler();
 8004662:	f7fc fa8c 	bl	8000b7e <HAL_SYSTICK_IRQHandler>
  /* USER CODE BEGIN SysTick_IRQn 1 */

  /* USER CODE END SysTick_IRQn 1 */
}
 8004666:	bd10      	pop	{r4, pc}

08004668 <DMA1_Channel4_5_IRQHandler>:

/**
* @brief This function handles DMA1 channel 4 and 5 interrupts.
*/
void DMA1_Channel4_5_IRQHandler(void)
{
 8004668:	b510      	push	{r4, lr}
  /* USER CODE BEGIN DMA1_Channel4_5_IRQn 0 */

  /* USER CODE END DMA1_Channel4_5_IRQn 0 */
  HAL_DMA_IRQHandler(&hdma_usart2_tx);
 800466a:	4803      	ldr	r0, [pc, #12]	; (8004678 <DMA1_Channel4_5_IRQHandler+0x10>)
 800466c:	f7fc fafe 	bl	8000c6c <HAL_DMA_IRQHandler>
  HAL_DMA_IRQHandler(&hdma_usart2_rx);
 8004670:	4802      	ldr	r0, [pc, #8]	; (800467c <DMA1_Channel4_5_IRQHandler+0x14>)
 8004672:	f7fc fafb 	bl	8000c6c <HAL_DMA_IRQHandler>
  /* USER CODE BEGIN DMA1_Channel4_5_IRQn 1 */

  /* USER CODE END DMA1_Channel4_5_IRQn 1 */
}
 8004676:	bd10      	pop	{r4, pc}
 8004678:	200004ac 	.word	0x200004ac
 800467c:	20000410 	.word	0x20000410

08004680 <USB_IRQHandler>:

/**
* @brief This function handles USB global Interrupt / USB wake-up interrupt through EXTI line 18.
*/
void USB_IRQHandler(void)
{
 8004680:	b510      	push	{r4, lr}
  /* USER CODE BEGIN USB_IRQn 0 */

  /* USER CODE END USB_IRQn 0 */
  HAL_PCD_IRQHandler(&hpcd_USB_FS);
 8004682:	4802      	ldr	r0, [pc, #8]	; (800468c <USB_IRQHandler+0xc>)
 8004684:	f7fd fe68 	bl	8002358 <HAL_PCD_IRQHandler>
  /* USER CODE BEGIN USB_IRQn 1 */

  /* USER CODE END USB_IRQn 1 */
}
 8004688:	bd10      	pop	{r4, pc}
 800468a:	46c0      	nop			; (mov r8, r8)
 800468c:	20000928 	.word	0x20000928

08004690 <CEC_CAN_IRQHandler>:

/* USER CODE BEGIN 1 */
extern CAN_HandleTypeDef hcan;
void CEC_CAN_IRQHandler(void)
{
 8004690:	b510      	push	{r4, lr}
	HAL_CAN_IRQHandler(&hcan);
 8004692:	4802      	ldr	r0, [pc, #8]	; (800469c <CEC_CAN_IRQHandler+0xc>)
 8004694:	f7fc f822 	bl	80006dc <HAL_CAN_IRQHandler>
}
 8004698:	bd10      	pop	{r4, pc}
 800469a:	46c0      	nop			; (mov r8, r8)
 800469c:	20000468 	.word	0x20000468

080046a0 <USART2_IRQHandler>:

extern UART_HandleTypeDef huart2;
void USART2_IRQHandler(void)
{
 80046a0:	b510      	push	{r4, lr}
	UART_HandleTypeDef * huart = &huart2;
	HAL_IWDG_Refresh(&hiwdg);
 80046a2:	480c      	ldr	r0, [pc, #48]	; (80046d4 <USART2_IRQHandler+0x34>)
 80046a4:	f7fc fdc4 	bl	8001230 <HAL_IWDG_Refresh>
	if((USART2->ISR & USART_ISR_CMF) == USART_ISR_CMF) //character match interrupt
 80046a8:	4b0b      	ldr	r3, [pc, #44]	; (80046d8 <USART2_IRQHandler+0x38>)
 80046aa:	69db      	ldr	r3, [r3, #28]
 80046ac:	039b      	lsls	r3, r3, #14
 80046ae:	d403      	bmi.n	80046b8 <USART2_IRQHandler+0x18>
	{
		USART2->ICR |= USART_ICR_CMCF;
		HAL_UART_DMAStop(&huart2);
		HAL_UART_RxCpltCallback(&huart2);
	}
	HAL_UART_IRQHandler(&huart2);
 80046b0:	480a      	ldr	r0, [pc, #40]	; (80046dc <USART2_IRQHandler+0x3c>)
 80046b2:	f7fe fb2b 	bl	8002d0c <HAL_UART_IRQHandler>
}
 80046b6:	bd10      	pop	{r4, pc}
		USART2->ICR |= USART_ICR_CMCF;
 80046b8:	4a07      	ldr	r2, [pc, #28]	; (80046d8 <USART2_IRQHandler+0x38>)
 80046ba:	6a11      	ldr	r1, [r2, #32]
 80046bc:	2380      	movs	r3, #128	; 0x80
 80046be:	029b      	lsls	r3, r3, #10
 80046c0:	430b      	orrs	r3, r1
 80046c2:	6213      	str	r3, [r2, #32]
		HAL_UART_DMAStop(&huart2);
 80046c4:	4c05      	ldr	r4, [pc, #20]	; (80046dc <USART2_IRQHandler+0x3c>)
 80046c6:	0020      	movs	r0, r4
 80046c8:	f7fe fa1a 	bl	8002b00 <HAL_UART_DMAStop>
		HAL_UART_RxCpltCallback(&huart2);
 80046cc:	0020      	movs	r0, r4
 80046ce:	f7ff faeb 	bl	8003ca8 <HAL_UART_RxCpltCallback>
 80046d2:	e7ed      	b.n	80046b0 <USART2_IRQHandler+0x10>
 80046d4:	20000458 	.word	0x20000458
 80046d8:	40004400 	.word	0x40004400
 80046dc:	20000534 	.word	0x20000534

080046e0 <SystemInit>:
  */
void SystemInit(void)
{
  /* Reset the RCC clock configuration to the default reset state ------------*/
  /* Set HSION bit */
  RCC->CR |= (uint32_t)0x00000001U;
 80046e0:	4b11      	ldr	r3, [pc, #68]	; (8004728 <SystemInit+0x48>)
 80046e2:	681a      	ldr	r2, [r3, #0]
 80046e4:	2101      	movs	r1, #1
 80046e6:	430a      	orrs	r2, r1
 80046e8:	601a      	str	r2, [r3, #0]
#if defined (STM32F051x8) || defined (STM32F058x8)
  /* Reset SW[1:0], HPRE[3:0], PPRE[2:0], ADCPRE and MCOSEL[2:0] bits */
  RCC->CFGR &= (uint32_t)0xF8FFB80CU;
#else
  /* Reset SW[1:0], HPRE[3:0], PPRE[2:0], ADCPRE, MCOSEL[2:0], MCOPRE[2:0] and PLLNODIV bits */
  RCC->CFGR &= (uint32_t)0x08FFB80CU;
 80046ea:	685a      	ldr	r2, [r3, #4]
 80046ec:	480f      	ldr	r0, [pc, #60]	; (800472c <SystemInit+0x4c>)
 80046ee:	4002      	ands	r2, r0
 80046f0:	605a      	str	r2, [r3, #4]
#endif /* STM32F051x8 or STM32F058x8 */
  
  /* Reset HSEON, CSSON and PLLON bits */
  RCC->CR &= (uint32_t)0xFEF6FFFFU;
 80046f2:	681a      	ldr	r2, [r3, #0]
 80046f4:	480e      	ldr	r0, [pc, #56]	; (8004730 <SystemInit+0x50>)
 80046f6:	4002      	ands	r2, r0
 80046f8:	601a      	str	r2, [r3, #0]

  /* Reset HSEBYP bit */
  RCC->CR &= (uint32_t)0xFFFBFFFFU;
 80046fa:	681a      	ldr	r2, [r3, #0]
 80046fc:	480d      	ldr	r0, [pc, #52]	; (8004734 <SystemInit+0x54>)
 80046fe:	4002      	ands	r2, r0
 8004700:	601a      	str	r2, [r3, #0]

  /* Reset PLLSRC, PLLXTPRE and PLLMUL[3:0] bits */
  RCC->CFGR &= (uint32_t)0xFFC0FFFFU;
 8004702:	685a      	ldr	r2, [r3, #4]
 8004704:	480c      	ldr	r0, [pc, #48]	; (8004738 <SystemInit+0x58>)
 8004706:	4002      	ands	r2, r0
 8004708:	605a      	str	r2, [r3, #4]

  /* Reset PREDIV[3:0] bits */
  RCC->CFGR2 &= (uint32_t)0xFFFFFFF0U;
 800470a:	6ada      	ldr	r2, [r3, #44]	; 0x2c
 800470c:	200f      	movs	r0, #15
 800470e:	4382      	bics	r2, r0
 8004710:	62da      	str	r2, [r3, #44]	; 0x2c
#elif defined (STM32F051x8) || defined (STM32F058xx)
  /* Reset USART1SW[1:0], I2C1SW, CECSW and ADCSW bits */
  RCC->CFGR3 &= (uint32_t)0xFFFFFEACU;
#elif defined (STM32F042x6) || defined (STM32F048xx)
  /* Reset USART1SW[1:0], I2C1SW, CECSW, USBSW and ADCSW bits */
  RCC->CFGR3 &= (uint32_t)0xFFFFFE2CU;
 8004712:	6b1a      	ldr	r2, [r3, #48]	; 0x30
 8004714:	4809      	ldr	r0, [pc, #36]	; (800473c <SystemInit+0x5c>)
 8004716:	4002      	ands	r2, r0
 8004718:	631a      	str	r2, [r3, #48]	; 0x30
#else
 #warning "No target selected"
#endif

  /* Reset HSI14 bit */
  RCC->CR2 &= (uint32_t)0xFFFFFFFEU;
 800471a:	6b5a      	ldr	r2, [r3, #52]	; 0x34
 800471c:	438a      	bics	r2, r1
 800471e:	635a      	str	r2, [r3, #52]	; 0x34

  /* Disable all interrupts */
  RCC->CIR = 0x00000000U;
 8004720:	2200      	movs	r2, #0
 8004722:	609a      	str	r2, [r3, #8]

}
 8004724:	4770      	bx	lr
 8004726:	46c0      	nop			; (mov r8, r8)
 8004728:	40021000 	.word	0x40021000
 800472c:	08ffb80c 	.word	0x08ffb80c
 8004730:	fef6ffff 	.word	0xfef6ffff
 8004734:	fffbffff 	.word	0xfffbffff
 8004738:	ffc0ffff 	.word	0xffc0ffff
 800473c:	fffffe2c 	.word	0xfffffe2c

08004740 <MX_USB_DEVICE_Init>:
/**
  * Init USB device Library, add supported class and start the library
  * @retval None
  */
void MX_USB_DEVICE_Init(void)
{
 8004740:	b510      	push	{r4, lr}
  /* USER CODE BEGIN USB_DEVICE_Init_PreTreatment */
  
  /* USER CODE END USB_DEVICE_Init_PreTreatment */

  /* Init Device Library, add supported class and start the library. */
  USBD_Init(&hUsbDeviceFS, &FS_Desc, DEVICE_FS);
 8004742:	4c09      	ldr	r4, [pc, #36]	; (8004768 <MX_USB_DEVICE_Init+0x28>)
 8004744:	2200      	movs	r2, #0
 8004746:	4909      	ldr	r1, [pc, #36]	; (800476c <MX_USB_DEVICE_Init+0x2c>)
 8004748:	0020      	movs	r0, r4
 800474a:	f7fe fce3 	bl	8003114 <USBD_Init>

  USBD_RegisterClass(&hUsbDeviceFS, &USBD_CDC);
 800474e:	4908      	ldr	r1, [pc, #32]	; (8004770 <MX_USB_DEVICE_Init+0x30>)
 8004750:	0020      	movs	r0, r4
 8004752:	f7fe fcfb 	bl	800314c <USBD_RegisterClass>

  USBD_CDC_RegisterInterface(&hUsbDeviceFS, &USBD_Interface_fops_FS);
 8004756:	4907      	ldr	r1, [pc, #28]	; (8004774 <MX_USB_DEVICE_Init+0x34>)
 8004758:	0020      	movs	r0, r4
 800475a:	f7fe fc85 	bl	8003068 <USBD_CDC_RegisterInterface>

  USBD_Start(&hUsbDeviceFS);
 800475e:	0020      	movs	r0, r4
 8004760:	f7fe fcfd 	bl	800315e <USBD_Start>

  /* USER CODE BEGIN USB_DEVICE_Init_PostTreatment */
  
  /* USER CODE END USB_DEVICE_Init_PostTreatment */
}
 8004764:	bd10      	pop	{r4, pc}
 8004766:	46c0      	nop			; (mov r8, r8)
 8004768:	20000604 	.word	0x20000604
 800476c:	2000012c 	.word	0x2000012c
 8004770:	20000000 	.word	0x20000000
 8004774:	2000011c 	.word	0x2000011c

08004778 <CDC_DeInit_FS>:
static int8_t CDC_DeInit_FS(void)
{
  /* USER CODE BEGIN 4 */
  return (USBD_OK);
  /* USER CODE END 4 */
}
 8004778:	2000      	movs	r0, #0
 800477a:	4770      	bx	lr

0800477c <CDC_Receive_FS>:
  * @param  Buf: Buffer of data to be received
  * @param  Len: Number of data received (in bytes)
  * @retval Result of the operation: USBD_OK if all operations are OK else USBD_FAIL
  */
static int8_t CDC_Receive_FS(uint8_t* Buf, uint32_t *Len)
{
 800477c:	b570      	push	{r4, r5, r6, lr}
 800477e:	0005      	movs	r5, r0
 8004780:	000e      	movs	r6, r1
  /* USER CODE BEGIN 6 */
 uint32_t i;
 for (i =0; i != *Len; i++)
 8004782:	2400      	movs	r4, #0
 8004784:	e003      	b.n	800478e <CDC_Receive_FS+0x12>
		 {
			 slCanCheckCommand(command);
		 }
	 } else  /* for open state proceed is done in interrupt */
	 {
		 slCanProccesInput(Buf[i]);
 8004786:	5d28      	ldrb	r0, [r5, r4]
 8004788:	f7ff fb98 	bl	8003ebc <slCanProccesInput>
 for (i =0; i != *Len; i++)
 800478c:	3401      	adds	r4, #1
 800478e:	6833      	ldr	r3, [r6, #0]
 8004790:	429c      	cmp	r4, r3
 8004792:	d00c      	beq.n	80047ae <CDC_Receive_FS+0x32>
	 if (slcan_getState() == STATE_CONFIG)  /* for config state proceed multiple commands in interrupt*/
 8004794:	f7ff fdc4 	bl	8004320 <slcan_getState>
 8004798:	2800      	cmp	r0, #0
 800479a:	d1f4      	bne.n	8004786 <CDC_Receive_FS+0xa>
		 if (slCanProccesInput(Buf[i]))
 800479c:	5d28      	ldrb	r0, [r5, r4]
 800479e:	f7ff fb8d 	bl	8003ebc <slCanProccesInput>
 80047a2:	2800      	cmp	r0, #0
 80047a4:	d0f2      	beq.n	800478c <CDC_Receive_FS+0x10>
			 slCanCheckCommand(command);
 80047a6:	4807      	ldr	r0, [pc, #28]	; (80047c4 <CDC_Receive_FS+0x48>)
 80047a8:	f7ff fbae 	bl	8003f08 <slCanCheckCommand>
 80047ac:	e7ee      	b.n	800478c <CDC_Receive_FS+0x10>
	 }
 }

 USBD_CDC_SetRxBuffer(&hUsbDeviceFS, &Buf[0]);
 80047ae:	4c06      	ldr	r4, [pc, #24]	; (80047c8 <CDC_Receive_FS+0x4c>)
 80047b0:	0029      	movs	r1, r5
 80047b2:	0020      	movs	r0, r4
 80047b4:	f7fe fc6c 	bl	8003090 <USBD_CDC_SetRxBuffer>
 USBD_CDC_ReceivePacket(&hUsbDeviceFS);
 80047b8:	0020      	movs	r0, r4
 80047ba:	f7fe fc8d 	bl	80030d8 <USBD_CDC_ReceivePacket>

 return (USBD_OK);
  /* USER CODE END 6 */
}
 80047be:	2000      	movs	r0, #0
 80047c0:	bd70      	pop	{r4, r5, r6, pc}
 80047c2:	46c0      	nop			; (mov r8, r8)
 80047c4:	20000188 	.word	0x20000188
 80047c8:	20000604 	.word	0x20000604

080047cc <CDC_Control_FS>:
{
 80047cc:	b510      	push	{r4, lr}
  switch (cmd)
 80047ce:	2822      	cmp	r0, #34	; 0x22
 80047d0:	d101      	bne.n	80047d6 <CDC_Control_FS+0xa>
	  slcanClose();
 80047d2:	f7ff fb3b 	bl	8003e4c <slcanClose>
}
 80047d6:	2000      	movs	r0, #0
 80047d8:	bd10      	pop	{r4, pc}
	...

080047dc <CDC_Init_FS>:
{
 80047dc:	b510      	push	{r4, lr}
  USBD_CDC_SetTxBuffer(&hUsbDeviceFS, UserTxBufferFS, 0);
 80047de:	4c06      	ldr	r4, [pc, #24]	; (80047f8 <CDC_Init_FS+0x1c>)
 80047e0:	2200      	movs	r2, #0
 80047e2:	4906      	ldr	r1, [pc, #24]	; (80047fc <CDC_Init_FS+0x20>)
 80047e4:	0020      	movs	r0, r4
 80047e6:	f7fe fc48 	bl	800307a <USBD_CDC_SetTxBuffer>
  USBD_CDC_SetRxBuffer(&hUsbDeviceFS, UserRxBufferFS);
 80047ea:	4905      	ldr	r1, [pc, #20]	; (8004800 <CDC_Init_FS+0x24>)
 80047ec:	0020      	movs	r0, r4
 80047ee:	f7fe fc4f 	bl	8003090 <USBD_CDC_SetRxBuffer>
}
 80047f2:	2000      	movs	r0, #0
 80047f4:	bd10      	pop	{r4, pc}
 80047f6:	46c0      	nop			; (mov r8, r8)
 80047f8:	20000604 	.word	0x20000604
 80047fc:	200008a8 	.word	0x200008a8
 8004800:	20000828 	.word	0x20000828

08004804 <CDC_Transmit_FS>:
  * @param  Buf: Buffer of data to be sent
  * @param  Len: Number of data to be sent (in bytes)
  * @retval USBD_OK if all operations are OK else USBD_FAIL or USBD_BUSY
  */
uint8_t CDC_Transmit_FS(uint8_t* Buf, uint16_t Len)
{
 8004804:	b570      	push	{r4, r5, r6, lr}
 8004806:	000c      	movs	r4, r1
  uint8_t result = USBD_OK;
  /* USER CODE BEGIN 7 */
  USBD_CDC_HandleTypeDef *hcdc = (USBD_CDC_HandleTypeDef*)hUsbDeviceFS.pClassData;
 8004808:	2386      	movs	r3, #134	; 0x86
 800480a:	009b      	lsls	r3, r3, #2
 800480c:	4a0b      	ldr	r2, [pc, #44]	; (800483c <CDC_Transmit_FS+0x38>)
 800480e:	58d2      	ldr	r2, [r2, r3]
  if (hcdc->TxState != 0){
 8004810:	3b04      	subs	r3, #4
 8004812:	58d3      	ldr	r3, [r2, r3]
 8004814:	2b00      	cmp	r3, #0
 8004816:	d001      	beq.n	800481c <CDC_Transmit_FS+0x18>
    return USBD_BUSY;
 8004818:	2001      	movs	r0, #1
  memcpy(UserTxBufferFS, Buf, Len);
  USBD_CDC_SetTxBuffer(&hUsbDeviceFS, UserTxBufferFS, Len);
  result = USBD_CDC_TransmitPacket(&hUsbDeviceFS);
  /* USER CODE END 7 */
  return result;
}
 800481a:	bd70      	pop	{r4, r5, r6, pc}
  memcpy(UserTxBufferFS, Buf, Len);
 800481c:	4e08      	ldr	r6, [pc, #32]	; (8004840 <CDC_Transmit_FS+0x3c>)
 800481e:	000a      	movs	r2, r1
 8004820:	0001      	movs	r1, r0
 8004822:	0030      	movs	r0, r6
 8004824:	f000 fa4e 	bl	8004cc4 <memcpy>
  USBD_CDC_SetTxBuffer(&hUsbDeviceFS, UserTxBufferFS, Len);
 8004828:	4d04      	ldr	r5, [pc, #16]	; (800483c <CDC_Transmit_FS+0x38>)
 800482a:	0022      	movs	r2, r4
 800482c:	0031      	movs	r1, r6
 800482e:	0028      	movs	r0, r5
 8004830:	f7fe fc23 	bl	800307a <USBD_CDC_SetTxBuffer>
  result = USBD_CDC_TransmitPacket(&hUsbDeviceFS);
 8004834:	0028      	movs	r0, r5
 8004836:	f7fe fc32 	bl	800309e <USBD_CDC_TransmitPacket>
  return result;
 800483a:	e7ee      	b.n	800481a <CDC_Transmit_FS+0x16>
 800483c:	20000604 	.word	0x20000604
 8004840:	200008a8 	.word	0x200008a8

08004844 <SystemClockConfig_Resume>:
  *         enable HSI, PLL and select PLL as system clock source.
  * @param  None
  * @retval None
  */
static void SystemClockConfig_Resume(void)
{
 8004844:	b510      	push	{r4, lr}
  SystemClock_Config();
 8004846:	f7ff f8fd 	bl	8003a44 <SystemClock_Config>
}
 800484a:	bd10      	pop	{r4, pc}

0800484c <HAL_PCD_MspInit>:
{
 800484c:	b500      	push	{lr}
 800484e:	b083      	sub	sp, #12
  if(pcdHandle->Instance==USB)
 8004850:	6802      	ldr	r2, [r0, #0]
 8004852:	4b0c      	ldr	r3, [pc, #48]	; (8004884 <HAL_PCD_MspInit+0x38>)
 8004854:	429a      	cmp	r2, r3
 8004856:	d001      	beq.n	800485c <HAL_PCD_MspInit+0x10>
}
 8004858:	b003      	add	sp, #12
 800485a:	bd00      	pop	{pc}
    __HAL_RCC_USB_CLK_ENABLE();
 800485c:	4a0a      	ldr	r2, [pc, #40]	; (8004888 <HAL_PCD_MspInit+0x3c>)
 800485e:	69d1      	ldr	r1, [r2, #28]
 8004860:	2080      	movs	r0, #128	; 0x80
 8004862:	0400      	lsls	r0, r0, #16
 8004864:	4301      	orrs	r1, r0
 8004866:	61d1      	str	r1, [r2, #28]
 8004868:	69d3      	ldr	r3, [r2, #28]
 800486a:	4003      	ands	r3, r0
 800486c:	9301      	str	r3, [sp, #4]
 800486e:	9b01      	ldr	r3, [sp, #4]
    HAL_NVIC_SetPriority(USB_IRQn, 0, 0);
 8004870:	2200      	movs	r2, #0
 8004872:	2100      	movs	r1, #0
 8004874:	201f      	movs	r0, #31
 8004876:	f7fc f90f 	bl	8000a98 <HAL_NVIC_SetPriority>
    HAL_NVIC_EnableIRQ(USB_IRQn);
 800487a:	201f      	movs	r0, #31
 800487c:	f7fc f93e 	bl	8000afc <HAL_NVIC_EnableIRQ>
}
 8004880:	e7ea      	b.n	8004858 <HAL_PCD_MspInit+0xc>
 8004882:	46c0      	nop			; (mov r8, r8)
 8004884:	40005c00 	.word	0x40005c00
 8004888:	40021000 	.word	0x40021000

0800488c <HAL_PCD_SetupStageCallback>:
{
 800488c:	b510      	push	{r4, lr}
 800488e:	0001      	movs	r1, r0
  USBD_LL_SetupStage((USBD_HandleTypeDef*)hpcd->pData, (uint8_t *)hpcd->Setup);
 8004890:	2387      	movs	r3, #135	; 0x87
 8004892:	009b      	lsls	r3, r3, #2
 8004894:	58c0      	ldr	r0, [r0, r3]
 8004896:	31ed      	adds	r1, #237	; 0xed
 8004898:	31ff      	adds	r1, #255	; 0xff
 800489a:	f7fe fc7d 	bl	8003198 <USBD_LL_SetupStage>
}
 800489e:	bd10      	pop	{r4, pc}

080048a0 <HAL_PCD_DataOutStageCallback>:
{
 80048a0:	b510      	push	{r4, lr}
 80048a2:	0003      	movs	r3, r0
  USBD_LL_DataOutStage((USBD_HandleTypeDef*)hpcd->pData, epnum, hpcd->OUT_ep[epnum].xfer_buff);
 80048a4:	2287      	movs	r2, #135	; 0x87
 80048a6:	0092      	lsls	r2, r2, #2
 80048a8:	5880      	ldr	r0, [r0, r2]
 80048aa:	00ca      	lsls	r2, r1, #3
 80048ac:	1a52      	subs	r2, r2, r1
 80048ae:	0094      	lsls	r4, r2, #2
 80048b0:	191b      	adds	r3, r3, r4
 80048b2:	3319      	adds	r3, #25
 80048b4:	33ff      	adds	r3, #255	; 0xff
 80048b6:	681a      	ldr	r2, [r3, #0]
 80048b8:	f7fe fca2 	bl	8003200 <USBD_LL_DataOutStage>
}
 80048bc:	bd10      	pop	{r4, pc}

080048be <HAL_PCD_DataInStageCallback>:
{
 80048be:	b510      	push	{r4, lr}
 80048c0:	0003      	movs	r3, r0
  USBD_LL_DataInStage((USBD_HandleTypeDef*)hpcd->pData, epnum, hpcd->IN_ep[epnum].xfer_buff);
 80048c2:	2287      	movs	r2, #135	; 0x87
 80048c4:	0092      	lsls	r2, r2, #2
 80048c6:	5880      	ldr	r0, [r0, r2]
 80048c8:	00ca      	lsls	r2, r1, #3
 80048ca:	1a52      	subs	r2, r2, r1
 80048cc:	0094      	lsls	r4, r2, #2
 80048ce:	191b      	adds	r3, r3, r4
 80048d0:	6b9a      	ldr	r2, [r3, #56]	; 0x38
 80048d2:	f7fe fcd2 	bl	800327a <USBD_LL_DataInStage>
}
 80048d6:	bd10      	pop	{r4, pc}

080048d8 <HAL_PCD_SOFCallback>:
{
 80048d8:	b510      	push	{r4, lr}
  USBD_LL_SOF((USBD_HandleTypeDef*)hpcd->pData);
 80048da:	2387      	movs	r3, #135	; 0x87
 80048dc:	009b      	lsls	r3, r3, #2
 80048de:	58c0      	ldr	r0, [r0, r3]
 80048e0:	f7fe fd65 	bl	80033ae <USBD_LL_SOF>
}
 80048e4:	bd10      	pop	{r4, pc}

080048e6 <HAL_PCD_ResetCallback>:
{
 80048e6:	b570      	push	{r4, r5, r6, lr}
 80048e8:	0005      	movs	r5, r0
  USBD_LL_SetSpeed((USBD_HandleTypeDef*)hpcd->pData, speed);
 80048ea:	2487      	movs	r4, #135	; 0x87
 80048ec:	00a4      	lsls	r4, r4, #2
 80048ee:	2101      	movs	r1, #1
 80048f0:	5900      	ldr	r0, [r0, r4]
 80048f2:	f7fe fd47 	bl	8003384 <USBD_LL_SetSpeed>
  USBD_LL_Reset((USBD_HandleTypeDef*)hpcd->pData);
 80048f6:	5928      	ldr	r0, [r5, r4]
 80048f8:	f7fe fd21 	bl	800333e <USBD_LL_Reset>
}
 80048fc:	bd70      	pop	{r4, r5, r6, pc}
	...

08004900 <HAL_PCD_SuspendCallback>:
{
 8004900:	b510      	push	{r4, lr}
 8004902:	0004      	movs	r4, r0
  USBD_LL_Suspend((USBD_HandleTypeDef*)hpcd->pData);
 8004904:	2387      	movs	r3, #135	; 0x87
 8004906:	009b      	lsls	r3, r3, #2
 8004908:	58c0      	ldr	r0, [r0, r3]
 800490a:	f7fe fd3e 	bl	800338a <USBD_LL_Suspend>
  if (hpcd->Init.low_power_enable)
 800490e:	69a3      	ldr	r3, [r4, #24]
 8004910:	2b00      	cmp	r3, #0
 8004912:	d004      	beq.n	800491e <HAL_PCD_SuspendCallback+0x1e>
    SCB->SCR |= (uint32_t)((uint32_t)(SCB_SCR_SLEEPDEEP_Msk | SCB_SCR_SLEEPONEXIT_Msk));
 8004914:	4a02      	ldr	r2, [pc, #8]	; (8004920 <HAL_PCD_SuspendCallback+0x20>)
 8004916:	6913      	ldr	r3, [r2, #16]
 8004918:	2106      	movs	r1, #6
 800491a:	430b      	orrs	r3, r1
 800491c:	6113      	str	r3, [r2, #16]
}
 800491e:	bd10      	pop	{r4, pc}
 8004920:	e000ed00 	.word	0xe000ed00

08004924 <HAL_PCD_ResumeCallback>:
{
 8004924:	b510      	push	{r4, lr}
 8004926:	0004      	movs	r4, r0
  if (hpcd->Init.low_power_enable)
 8004928:	6983      	ldr	r3, [r0, #24]
 800492a:	2b00      	cmp	r3, #0
 800492c:	d105      	bne.n	800493a <HAL_PCD_ResumeCallback+0x16>
  USBD_LL_Resume((USBD_HandleTypeDef*)hpcd->pData);
 800492e:	2387      	movs	r3, #135	; 0x87
 8004930:	009b      	lsls	r3, r3, #2
 8004932:	58e0      	ldr	r0, [r4, r3]
 8004934:	f7fe fd34 	bl	80033a0 <USBD_LL_Resume>
}
 8004938:	bd10      	pop	{r4, pc}
    SCB->SCR &= (uint32_t)~((uint32_t)(SCB_SCR_SLEEPDEEP_Msk | SCB_SCR_SLEEPONEXIT_Msk));   
 800493a:	4a04      	ldr	r2, [pc, #16]	; (800494c <HAL_PCD_ResumeCallback+0x28>)
 800493c:	6913      	ldr	r3, [r2, #16]
 800493e:	2106      	movs	r1, #6
 8004940:	438b      	bics	r3, r1
 8004942:	6113      	str	r3, [r2, #16]
    SystemClockConfig_Resume(); 
 8004944:	f7ff ff7e 	bl	8004844 <SystemClockConfig_Resume>
 8004948:	e7f1      	b.n	800492e <HAL_PCD_ResumeCallback+0xa>
 800494a:	46c0      	nop			; (mov r8, r8)
 800494c:	e000ed00 	.word	0xe000ed00

08004950 <USBD_LL_Init>:
{
 8004950:	b570      	push	{r4, r5, r6, lr}
 8004952:	0004      	movs	r4, r0
  hpcd_USB_FS.pData = pdev;
 8004954:	481f      	ldr	r0, [pc, #124]	; (80049d4 <USBD_LL_Init+0x84>)
 8004956:	2387      	movs	r3, #135	; 0x87
 8004958:	009b      	lsls	r3, r3, #2
 800495a:	50c4      	str	r4, [r0, r3]
  pdev->pData = &hpcd_USB_FS;
 800495c:	3304      	adds	r3, #4
 800495e:	50e0      	str	r0, [r4, r3]
  hpcd_USB_FS.Instance = USB;
 8004960:	4b1d      	ldr	r3, [pc, #116]	; (80049d8 <USBD_LL_Init+0x88>)
 8004962:	6003      	str	r3, [r0, #0]
  hpcd_USB_FS.Init.dev_endpoints = 8;
 8004964:	2308      	movs	r3, #8
 8004966:	6043      	str	r3, [r0, #4]
  hpcd_USB_FS.Init.speed = PCD_SPEED_FULL;
 8004968:	2202      	movs	r2, #2
 800496a:	6082      	str	r2, [r0, #8]
  hpcd_USB_FS.Init.ep0_mps = DEP0CTL_MPS_64;
 800496c:	2300      	movs	r3, #0
 800496e:	60c3      	str	r3, [r0, #12]
  hpcd_USB_FS.Init.phy_itface = PCD_PHY_EMBEDDED;
 8004970:	6102      	str	r2, [r0, #16]
  hpcd_USB_FS.Init.low_power_enable = DISABLE;
 8004972:	6183      	str	r3, [r0, #24]
  hpcd_USB_FS.Init.lpm_enable = DISABLE;
 8004974:	61c3      	str	r3, [r0, #28]
  hpcd_USB_FS.Init.battery_charging_enable = DISABLE;
 8004976:	6203      	str	r3, [r0, #32]
  if (HAL_PCD_Init(&hpcd_USB_FS) != HAL_OK)
 8004978:	f7fc fc62 	bl	8001240 <HAL_PCD_Init>
 800497c:	2800      	cmp	r0, #0
 800497e:	d123      	bne.n	80049c8 <USBD_LL_Init+0x78>
  HAL_PCDEx_PMAConfig((PCD_HandleTypeDef*)pdev->pData , 0x00 , PCD_SNG_BUF, 0x18);
 8004980:	2588      	movs	r5, #136	; 0x88
 8004982:	00ad      	lsls	r5, r5, #2
 8004984:	2318      	movs	r3, #24
 8004986:	2200      	movs	r2, #0
 8004988:	2100      	movs	r1, #0
 800498a:	5960      	ldr	r0, [r4, r5]
 800498c:	f7fd fd74 	bl	8002478 <HAL_PCDEx_PMAConfig>
  HAL_PCDEx_PMAConfig((PCD_HandleTypeDef*)pdev->pData , 0x80 , PCD_SNG_BUF, 0x58);
 8004990:	2358      	movs	r3, #88	; 0x58
 8004992:	2200      	movs	r2, #0
 8004994:	2180      	movs	r1, #128	; 0x80
 8004996:	5960      	ldr	r0, [r4, r5]
 8004998:	f7fd fd6e 	bl	8002478 <HAL_PCDEx_PMAConfig>
  HAL_PCDEx_PMAConfig((PCD_HandleTypeDef*)pdev->pData , 0x81 , PCD_SNG_BUF, 0xC0);
 800499c:	23c0      	movs	r3, #192	; 0xc0
 800499e:	2200      	movs	r2, #0
 80049a0:	2181      	movs	r1, #129	; 0x81
 80049a2:	5960      	ldr	r0, [r4, r5]
 80049a4:	f7fd fd68 	bl	8002478 <HAL_PCDEx_PMAConfig>
  HAL_PCDEx_PMAConfig((PCD_HandleTypeDef*)pdev->pData , 0x01 , PCD_SNG_BUF, 0x110);
 80049a8:	2388      	movs	r3, #136	; 0x88
 80049aa:	005b      	lsls	r3, r3, #1
 80049ac:	2200      	movs	r2, #0
 80049ae:	2101      	movs	r1, #1
 80049b0:	5960      	ldr	r0, [r4, r5]
 80049b2:	f7fd fd61 	bl	8002478 <HAL_PCDEx_PMAConfig>
  HAL_PCDEx_PMAConfig((PCD_HandleTypeDef*)pdev->pData , 0x82 , PCD_SNG_BUF, 0x100);
 80049b6:	5960      	ldr	r0, [r4, r5]
 80049b8:	2380      	movs	r3, #128	; 0x80
 80049ba:	005b      	lsls	r3, r3, #1
 80049bc:	2200      	movs	r2, #0
 80049be:	2182      	movs	r1, #130	; 0x82
 80049c0:	f7fd fd5a 	bl	8002478 <HAL_PCDEx_PMAConfig>
}
 80049c4:	2000      	movs	r0, #0
 80049c6:	bd70      	pop	{r4, r5, r6, pc}
    _Error_Handler(__FILE__, __LINE__);
 80049c8:	219a      	movs	r1, #154	; 0x9a
 80049ca:	0049      	lsls	r1, r1, #1
 80049cc:	4803      	ldr	r0, [pc, #12]	; (80049dc <USBD_LL_Init+0x8c>)
 80049ce:	f7ff f973 	bl	8003cb8 <_Error_Handler>
 80049d2:	e7d5      	b.n	8004980 <USBD_LL_Init+0x30>
 80049d4:	20000928 	.word	0x20000928
 80049d8:	40005c00 	.word	0x40005c00
 80049dc:	08004f0c 	.word	0x08004f0c

080049e0 <USBD_LL_Start>:
{
 80049e0:	b510      	push	{r4, lr}
  hal_status = HAL_PCD_Start(pdev->pData);
 80049e2:	2388      	movs	r3, #136	; 0x88
 80049e4:	009b      	lsls	r3, r3, #2
 80049e6:	58c0      	ldr	r0, [r0, r3]
 80049e8:	f7fc fc8a 	bl	8001300 <HAL_PCD_Start>
  switch (hal_status) {
 80049ec:	2800      	cmp	r0, #0
 80049ee:	d003      	beq.n	80049f8 <USBD_LL_Start+0x18>
 80049f0:	2802      	cmp	r0, #2
 80049f2:	d003      	beq.n	80049fc <USBD_LL_Start+0x1c>
      usb_status = USBD_FAIL;
 80049f4:	2002      	movs	r0, #2
}
 80049f6:	bd10      	pop	{r4, pc}
      usb_status = USBD_OK;
 80049f8:	2000      	movs	r0, #0
 80049fa:	e7fc      	b.n	80049f6 <USBD_LL_Start+0x16>
      usb_status = USBD_BUSY;
 80049fc:	2001      	movs	r0, #1
    break;
 80049fe:	e7fa      	b.n	80049f6 <USBD_LL_Start+0x16>

08004a00 <USBD_LL_OpenEP>:
{
 8004a00:	b510      	push	{r4, lr}
 8004a02:	0014      	movs	r4, r2
 8004a04:	001a      	movs	r2, r3
  hal_status = HAL_PCD_EP_Open(pdev->pData, ep_addr, ep_mps, ep_type);
 8004a06:	2388      	movs	r3, #136	; 0x88
 8004a08:	009b      	lsls	r3, r3, #2
 8004a0a:	58c0      	ldr	r0, [r0, r3]
 8004a0c:	0023      	movs	r3, r4
 8004a0e:	f7fc fc9f 	bl	8001350 <HAL_PCD_EP_Open>
  switch (hal_status) {
 8004a12:	2800      	cmp	r0, #0
 8004a14:	d003      	beq.n	8004a1e <USBD_LL_OpenEP+0x1e>
 8004a16:	2802      	cmp	r0, #2
 8004a18:	d003      	beq.n	8004a22 <USBD_LL_OpenEP+0x22>
      usb_status = USBD_FAIL;
 8004a1a:	2002      	movs	r0, #2
}
 8004a1c:	bd10      	pop	{r4, pc}
      usb_status = USBD_OK;
 8004a1e:	2000      	movs	r0, #0
 8004a20:	e7fc      	b.n	8004a1c <USBD_LL_OpenEP+0x1c>
      usb_status = USBD_BUSY;
 8004a22:	2001      	movs	r0, #1
    break;
 8004a24:	e7fa      	b.n	8004a1c <USBD_LL_OpenEP+0x1c>

08004a26 <USBD_LL_CloseEP>:
{
 8004a26:	b510      	push	{r4, lr}
  hal_status = HAL_PCD_EP_Close(pdev->pData, ep_addr);
 8004a28:	2388      	movs	r3, #136	; 0x88
 8004a2a:	009b      	lsls	r3, r3, #2
 8004a2c:	58c0      	ldr	r0, [r0, r3]
 8004a2e:	f7fc fe39 	bl	80016a4 <HAL_PCD_EP_Close>
  switch (hal_status) {
 8004a32:	2800      	cmp	r0, #0
 8004a34:	d003      	beq.n	8004a3e <USBD_LL_CloseEP+0x18>
 8004a36:	2802      	cmp	r0, #2
 8004a38:	d003      	beq.n	8004a42 <USBD_LL_CloseEP+0x1c>
      usb_status = USBD_FAIL;
 8004a3a:	2002      	movs	r0, #2
}
 8004a3c:	bd10      	pop	{r4, pc}
      usb_status = USBD_OK;
 8004a3e:	2000      	movs	r0, #0
 8004a40:	e7fc      	b.n	8004a3c <USBD_LL_CloseEP+0x16>
      usb_status = USBD_BUSY;
 8004a42:	2001      	movs	r0, #1
    break;
 8004a44:	e7fa      	b.n	8004a3c <USBD_LL_CloseEP+0x16>

08004a46 <USBD_LL_StallEP>:
{
 8004a46:	b510      	push	{r4, lr}
  hal_status = HAL_PCD_EP_SetStall(pdev->pData, ep_addr);
 8004a48:	2388      	movs	r3, #136	; 0x88
 8004a4a:	009b      	lsls	r3, r3, #2
 8004a4c:	58c0      	ldr	r0, [r0, r3]
 8004a4e:	f7fd f81b 	bl	8001a88 <HAL_PCD_EP_SetStall>
  switch (hal_status) {
 8004a52:	2800      	cmp	r0, #0
 8004a54:	d003      	beq.n	8004a5e <USBD_LL_StallEP+0x18>
 8004a56:	2802      	cmp	r0, #2
 8004a58:	d003      	beq.n	8004a62 <USBD_LL_StallEP+0x1c>
      usb_status = USBD_FAIL;
 8004a5a:	2002      	movs	r0, #2
}
 8004a5c:	bd10      	pop	{r4, pc}
      usb_status = USBD_OK;
 8004a5e:	2000      	movs	r0, #0
 8004a60:	e7fc      	b.n	8004a5c <USBD_LL_StallEP+0x16>
      usb_status = USBD_BUSY;
 8004a62:	2001      	movs	r0, #1
    break;
 8004a64:	e7fa      	b.n	8004a5c <USBD_LL_StallEP+0x16>

08004a66 <USBD_LL_ClearStallEP>:
{
 8004a66:	b510      	push	{r4, lr}
  hal_status = HAL_PCD_EP_ClrStall(pdev->pData, ep_addr);
 8004a68:	2388      	movs	r3, #136	; 0x88
 8004a6a:	009b      	lsls	r3, r3, #2
 8004a6c:	58c0      	ldr	r0, [r0, r3]
 8004a6e:	f7fd f86d 	bl	8001b4c <HAL_PCD_EP_ClrStall>
  switch (hal_status) {
 8004a72:	2800      	cmp	r0, #0
 8004a74:	d003      	beq.n	8004a7e <USBD_LL_ClearStallEP+0x18>
 8004a76:	2802      	cmp	r0, #2
 8004a78:	d003      	beq.n	8004a82 <USBD_LL_ClearStallEP+0x1c>
      usb_status = USBD_FAIL;
 8004a7a:	2002      	movs	r0, #2
}
 8004a7c:	bd10      	pop	{r4, pc}
      usb_status = USBD_OK;
 8004a7e:	2000      	movs	r0, #0
 8004a80:	e7fc      	b.n	8004a7c <USBD_LL_ClearStallEP+0x16>
      usb_status = USBD_BUSY;
 8004a82:	2001      	movs	r0, #1
    break;
 8004a84:	e7fa      	b.n	8004a7c <USBD_LL_ClearStallEP+0x16>

08004a86 <USBD_LL_IsStallEP>:
{
 8004a86:	000a      	movs	r2, r1
  PCD_HandleTypeDef *hpcd = (PCD_HandleTypeDef*) pdev->pData;
 8004a88:	2388      	movs	r3, #136	; 0x88
 8004a8a:	009b      	lsls	r3, r3, #2
 8004a8c:	58c3      	ldr	r3, [r0, r3]
  if((ep_addr & 0x80) == 0x80)
 8004a8e:	b249      	sxtb	r1, r1
 8004a90:	2900      	cmp	r1, #0
 8004a92:	db09      	blt.n	8004aa8 <USBD_LL_IsStallEP+0x22>
    return hpcd->OUT_ep[ep_addr & 0x7F].is_stall;
 8004a94:	217f      	movs	r1, #127	; 0x7f
 8004a96:	4011      	ands	r1, r2
 8004a98:	00ca      	lsls	r2, r1, #3
 8004a9a:	1a51      	subs	r1, r2, r1
 8004a9c:	008a      	lsls	r2, r1, #2
 8004a9e:	189b      	adds	r3, r3, r2
 8004aa0:	330b      	adds	r3, #11
 8004aa2:	33ff      	adds	r3, #255	; 0xff
 8004aa4:	7818      	ldrb	r0, [r3, #0]
}
 8004aa6:	4770      	bx	lr
    return hpcd->IN_ep[ep_addr & 0x7F].is_stall;
 8004aa8:	217f      	movs	r1, #127	; 0x7f
 8004aaa:	4011      	ands	r1, r2
 8004aac:	00c8      	lsls	r0, r1, #3
 8004aae:	1a41      	subs	r1, r0, r1
 8004ab0:	008a      	lsls	r2, r1, #2
 8004ab2:	189b      	adds	r3, r3, r2
 8004ab4:	332a      	adds	r3, #42	; 0x2a
 8004ab6:	7818      	ldrb	r0, [r3, #0]
 8004ab8:	e7f5      	b.n	8004aa6 <USBD_LL_IsStallEP+0x20>

08004aba <USBD_LL_SetUSBAddress>:
{
 8004aba:	b510      	push	{r4, lr}
  hal_status = HAL_PCD_SetAddress(pdev->pData, dev_addr);
 8004abc:	2388      	movs	r3, #136	; 0x88
 8004abe:	009b      	lsls	r3, r3, #2
 8004ac0:	58c0      	ldr	r0, [r0, r3]
 8004ac2:	f7fc fc29 	bl	8001318 <HAL_PCD_SetAddress>
  switch (hal_status) {
 8004ac6:	2800      	cmp	r0, #0
 8004ac8:	d003      	beq.n	8004ad2 <USBD_LL_SetUSBAddress+0x18>
 8004aca:	2802      	cmp	r0, #2
 8004acc:	d003      	beq.n	8004ad6 <USBD_LL_SetUSBAddress+0x1c>
      usb_status = USBD_FAIL;
 8004ace:	2002      	movs	r0, #2
}
 8004ad0:	bd10      	pop	{r4, pc}
      usb_status = USBD_OK;
 8004ad2:	2000      	movs	r0, #0
 8004ad4:	e7fc      	b.n	8004ad0 <USBD_LL_SetUSBAddress+0x16>
      usb_status = USBD_BUSY;
 8004ad6:	2001      	movs	r0, #1
    break;
 8004ad8:	e7fa      	b.n	8004ad0 <USBD_LL_SetUSBAddress+0x16>

08004ada <USBD_LL_Transmit>:
{
 8004ada:	b510      	push	{r4, lr}
  hal_status = HAL_PCD_EP_Transmit(pdev->pData, ep_addr, pbuf, size);
 8004adc:	2488      	movs	r4, #136	; 0x88
 8004ade:	00a4      	lsls	r4, r4, #2
 8004ae0:	5900      	ldr	r0, [r0, r4]
 8004ae2:	f7fd f8b7 	bl	8001c54 <HAL_PCD_EP_Transmit>
  switch (hal_status) {
 8004ae6:	2800      	cmp	r0, #0
 8004ae8:	d003      	beq.n	8004af2 <USBD_LL_Transmit+0x18>
 8004aea:	2802      	cmp	r0, #2
 8004aec:	d003      	beq.n	8004af6 <USBD_LL_Transmit+0x1c>
      usb_status = USBD_FAIL;
 8004aee:	2002      	movs	r0, #2
}
 8004af0:	bd10      	pop	{r4, pc}
      usb_status = USBD_OK;
 8004af2:	2000      	movs	r0, #0
 8004af4:	e7fc      	b.n	8004af0 <USBD_LL_Transmit+0x16>
      usb_status = USBD_BUSY;
 8004af6:	2001      	movs	r0, #1
    break;
 8004af8:	e7fa      	b.n	8004af0 <USBD_LL_Transmit+0x16>

08004afa <USBD_LL_PrepareReceive>:
{
 8004afa:	b510      	push	{r4, lr}
  hal_status = HAL_PCD_EP_Receive(pdev->pData, ep_addr, pbuf, size);
 8004afc:	2488      	movs	r4, #136	; 0x88
 8004afe:	00a4      	lsls	r4, r4, #2
 8004b00:	5900      	ldr	r0, [r0, r4]
 8004b02:	f7fc feb7 	bl	8001874 <HAL_PCD_EP_Receive>
  switch (hal_status) {
 8004b06:	2800      	cmp	r0, #0
 8004b08:	d003      	beq.n	8004b12 <USBD_LL_PrepareReceive+0x18>
 8004b0a:	2802      	cmp	r0, #2
 8004b0c:	d003      	beq.n	8004b16 <USBD_LL_PrepareReceive+0x1c>
      usb_status = USBD_FAIL;
 8004b0e:	2002      	movs	r0, #2
}
 8004b10:	bd10      	pop	{r4, pc}
      usb_status = USBD_OK;
 8004b12:	2000      	movs	r0, #0
 8004b14:	e7fc      	b.n	8004b10 <USBD_LL_PrepareReceive+0x16>
      usb_status = USBD_BUSY;
 8004b16:	2001      	movs	r0, #1
    break;
 8004b18:	e7fa      	b.n	8004b10 <USBD_LL_PrepareReceive+0x16>

08004b1a <USBD_LL_GetRxDataSize>:
{
 8004b1a:	b510      	push	{r4, lr}
  return HAL_PCD_EP_GetRxCount((PCD_HandleTypeDef*) pdev->pData, ep_addr);
 8004b1c:	2388      	movs	r3, #136	; 0x88
 8004b1e:	009b      	lsls	r3, r3, #2
 8004b20:	58c0      	ldr	r0, [r0, r3]
 8004b22:	f7fc ffa7 	bl	8001a74 <HAL_PCD_EP_GetRxCount>
}
 8004b26:	bd10      	pop	{r4, pc}

08004b28 <USBD_static_malloc>:
}
 8004b28:	4800      	ldr	r0, [pc, #0]	; (8004b2c <USBD_static_malloc+0x4>)
 8004b2a:	4770      	bx	lr
 8004b2c:	200001cc 	.word	0x200001cc

08004b30 <USBD_static_free>:
}
 8004b30:	4770      	bx	lr
	...

08004b34 <USBD_FS_DeviceDescriptor>:
  * @param  length : Pointer to data length variable
  * @retval Pointer to descriptor buffer
  */
uint8_t * USBD_FS_DeviceDescriptor(USBD_SpeedTypeDef speed, uint16_t *length)
{
  *length = sizeof(USBD_FS_DeviceDesc);
 8004b34:	2312      	movs	r3, #18
 8004b36:	800b      	strh	r3, [r1, #0]
  return USBD_FS_DeviceDesc;
}
 8004b38:	4800      	ldr	r0, [pc, #0]	; (8004b3c <USBD_FS_DeviceDescriptor+0x8>)
 8004b3a:	4770      	bx	lr
 8004b3c:	20000148 	.word	0x20000148

08004b40 <USBD_FS_LangIDStrDescriptor>:
  * @param  length : Pointer to data length variable
  * @retval Pointer to descriptor buffer
  */
uint8_t * USBD_FS_LangIDStrDescriptor(USBD_SpeedTypeDef speed, uint16_t *length)
{
  *length = sizeof(USBD_LangIDDesc);
 8004b40:	2304      	movs	r3, #4
 8004b42:	800b      	strh	r3, [r1, #0]
  return USBD_LangIDDesc;
}
 8004b44:	4800      	ldr	r0, [pc, #0]	; (8004b48 <USBD_FS_LangIDStrDescriptor+0x8>)
 8004b46:	4770      	bx	lr
 8004b48:	2000015c 	.word	0x2000015c

08004b4c <USBD_FS_ProductStrDescriptor>:
  * @param  speed : Current device speed
  * @param  length : Pointer to data length variable
  * @retval Pointer to descriptor buffer
  */
uint8_t * USBD_FS_ProductStrDescriptor(USBD_SpeedTypeDef speed, uint16_t *length)
{
 8004b4c:	b510      	push	{r4, lr}
 8004b4e:	000a      	movs	r2, r1
  if(speed == 0)
 8004b50:	2800      	cmp	r0, #0
 8004b52:	d005      	beq.n	8004b60 <USBD_FS_ProductStrDescriptor+0x14>
  {
    USBD_GetString((uint8_t *)USBD_PRODUCT_STRING_FS, USBD_StrDesc, length);
  }
  else
  {
    USBD_GetString((uint8_t *)USBD_PRODUCT_STRING_FS, USBD_StrDesc, length);
 8004b54:	4905      	ldr	r1, [pc, #20]	; (8004b6c <USBD_FS_ProductStrDescriptor+0x20>)
 8004b56:	4806      	ldr	r0, [pc, #24]	; (8004b70 <USBD_FS_ProductStrDescriptor+0x24>)
 8004b58:	f7fe fed8 	bl	800390c <USBD_GetString>
  }
  return USBD_StrDesc;
}
 8004b5c:	4803      	ldr	r0, [pc, #12]	; (8004b6c <USBD_FS_ProductStrDescriptor+0x20>)
 8004b5e:	bd10      	pop	{r4, pc}
    USBD_GetString((uint8_t *)USBD_PRODUCT_STRING_FS, USBD_StrDesc, length);
 8004b60:	4902      	ldr	r1, [pc, #8]	; (8004b6c <USBD_FS_ProductStrDescriptor+0x20>)
 8004b62:	4803      	ldr	r0, [pc, #12]	; (8004b70 <USBD_FS_ProductStrDescriptor+0x24>)
 8004b64:	f7fe fed2 	bl	800390c <USBD_GetString>
 8004b68:	e7f8      	b.n	8004b5c <USBD_FS_ProductStrDescriptor+0x10>
 8004b6a:	46c0      	nop			; (mov r8, r8)
 8004b6c:	20000b48 	.word	0x20000b48
 8004b70:	08004f48 	.word	0x08004f48

08004b74 <USBD_FS_ManufacturerStrDescriptor>:
  * @param  speed : Current device speed
  * @param  length : Pointer to data length variable
  * @retval Pointer to descriptor buffer
  */
uint8_t * USBD_FS_ManufacturerStrDescriptor(USBD_SpeedTypeDef speed, uint16_t *length)
{
 8004b74:	b510      	push	{r4, lr}
 8004b76:	000a      	movs	r2, r1
  USBD_GetString((uint8_t *)USBD_MANUFACTURER_STRING, USBD_StrDesc, length);
 8004b78:	4c03      	ldr	r4, [pc, #12]	; (8004b88 <USBD_FS_ManufacturerStrDescriptor+0x14>)
 8004b7a:	0021      	movs	r1, r4
 8004b7c:	4803      	ldr	r0, [pc, #12]	; (8004b8c <USBD_FS_ManufacturerStrDescriptor+0x18>)
 8004b7e:	f7fe fec5 	bl	800390c <USBD_GetString>
  return USBD_StrDesc;
}
 8004b82:	0020      	movs	r0, r4
 8004b84:	bd10      	pop	{r4, pc}
 8004b86:	46c0      	nop			; (mov r8, r8)
 8004b88:	20000b48 	.word	0x20000b48
 8004b8c:	08004f3c 	.word	0x08004f3c

08004b90 <USBD_FS_SerialStrDescriptor>:
  * @param  speed : Current device speed
  * @param  length : Pointer to data length variable
  * @retval Pointer to descriptor buffer
  */
uint8_t * USBD_FS_SerialStrDescriptor(USBD_SpeedTypeDef speed, uint16_t *length)
{
 8004b90:	b510      	push	{r4, lr}
 8004b92:	000a      	movs	r2, r1
  if(speed == USBD_SPEED_HIGH)
 8004b94:	2800      	cmp	r0, #0
 8004b96:	d005      	beq.n	8004ba4 <USBD_FS_SerialStrDescriptor+0x14>
  {
    USBD_GetString((uint8_t *)USBD_SERIALNUMBER_STRING_FS, USBD_StrDesc, length);
  }
  else
  {
    USBD_GetString((uint8_t *)USBD_SERIALNUMBER_STRING_FS, USBD_StrDesc, length);
 8004b98:	4905      	ldr	r1, [pc, #20]	; (8004bb0 <USBD_FS_SerialStrDescriptor+0x20>)
 8004b9a:	4806      	ldr	r0, [pc, #24]	; (8004bb4 <USBD_FS_SerialStrDescriptor+0x24>)
 8004b9c:	f7fe feb6 	bl	800390c <USBD_GetString>
  }
  return USBD_StrDesc;
}
 8004ba0:	4803      	ldr	r0, [pc, #12]	; (8004bb0 <USBD_FS_SerialStrDescriptor+0x20>)
 8004ba2:	bd10      	pop	{r4, pc}
    USBD_GetString((uint8_t *)USBD_SERIALNUMBER_STRING_FS, USBD_StrDesc, length);
 8004ba4:	4902      	ldr	r1, [pc, #8]	; (8004bb0 <USBD_FS_SerialStrDescriptor+0x20>)
 8004ba6:	4803      	ldr	r0, [pc, #12]	; (8004bb4 <USBD_FS_SerialStrDescriptor+0x24>)
 8004ba8:	f7fe feb0 	bl	800390c <USBD_GetString>
 8004bac:	e7f8      	b.n	8004ba0 <USBD_FS_SerialStrDescriptor+0x10>
 8004bae:	46c0      	nop			; (mov r8, r8)
 8004bb0:	20000b48 	.word	0x20000b48
 8004bb4:	08004f64 	.word	0x08004f64

08004bb8 <USBD_FS_ConfigStrDescriptor>:
  * @param  speed : Current device speed
  * @param  length : Pointer to data length variable
  * @retval Pointer to descriptor buffer
  */
uint8_t * USBD_FS_ConfigStrDescriptor(USBD_SpeedTypeDef speed, uint16_t *length)
{
 8004bb8:	b510      	push	{r4, lr}
 8004bba:	000a      	movs	r2, r1
  if(speed == USBD_SPEED_HIGH)
 8004bbc:	2800      	cmp	r0, #0
 8004bbe:	d005      	beq.n	8004bcc <USBD_FS_ConfigStrDescriptor+0x14>
  {
    USBD_GetString((uint8_t *)USBD_CONFIGURATION_STRING_FS, USBD_StrDesc, length);
  }
  else
  {
    USBD_GetString((uint8_t *)USBD_CONFIGURATION_STRING_FS, USBD_StrDesc, length);
 8004bc0:	4905      	ldr	r1, [pc, #20]	; (8004bd8 <USBD_FS_ConfigStrDescriptor+0x20>)
 8004bc2:	4806      	ldr	r0, [pc, #24]	; (8004bdc <USBD_FS_ConfigStrDescriptor+0x24>)
 8004bc4:	f7fe fea2 	bl	800390c <USBD_GetString>
  }
  return USBD_StrDesc;
}
 8004bc8:	4803      	ldr	r0, [pc, #12]	; (8004bd8 <USBD_FS_ConfigStrDescriptor+0x20>)
 8004bca:	bd10      	pop	{r4, pc}
    USBD_GetString((uint8_t *)USBD_CONFIGURATION_STRING_FS, USBD_StrDesc, length);
 8004bcc:	4902      	ldr	r1, [pc, #8]	; (8004bd8 <USBD_FS_ConfigStrDescriptor+0x20>)
 8004bce:	4803      	ldr	r0, [pc, #12]	; (8004bdc <USBD_FS_ConfigStrDescriptor+0x24>)
 8004bd0:	f7fe fe9c 	bl	800390c <USBD_GetString>
 8004bd4:	e7f8      	b.n	8004bc8 <USBD_FS_ConfigStrDescriptor+0x10>
 8004bd6:	46c0      	nop			; (mov r8, r8)
 8004bd8:	20000b48 	.word	0x20000b48
 8004bdc:	08004f20 	.word	0x08004f20

08004be0 <USBD_FS_InterfaceStrDescriptor>:
  * @param  speed : Current device speed
  * @param  length : Pointer to data length variable
  * @retval Pointer to descriptor buffer
  */
uint8_t * USBD_FS_InterfaceStrDescriptor(USBD_SpeedTypeDef speed, uint16_t *length)
{
 8004be0:	b510      	push	{r4, lr}
 8004be2:	000a      	movs	r2, r1
  if(speed == 0)
 8004be4:	2800      	cmp	r0, #0
 8004be6:	d005      	beq.n	8004bf4 <USBD_FS_InterfaceStrDescriptor+0x14>
  {
    USBD_GetString((uint8_t *)USBD_INTERFACE_STRING_FS, USBD_StrDesc, length);
  }
  else
  {
    USBD_GetString((uint8_t *)USBD_INTERFACE_STRING_FS, USBD_StrDesc, length);
 8004be8:	4905      	ldr	r1, [pc, #20]	; (8004c00 <USBD_FS_InterfaceStrDescriptor+0x20>)
 8004bea:	4806      	ldr	r0, [pc, #24]	; (8004c04 <USBD_FS_InterfaceStrDescriptor+0x24>)
 8004bec:	f7fe fe8e 	bl	800390c <USBD_GetString>
  }
  return USBD_StrDesc;
}
 8004bf0:	4803      	ldr	r0, [pc, #12]	; (8004c00 <USBD_FS_InterfaceStrDescriptor+0x20>)
 8004bf2:	bd10      	pop	{r4, pc}
    USBD_GetString((uint8_t *)USBD_INTERFACE_STRING_FS, USBD_StrDesc, length);
 8004bf4:	4902      	ldr	r1, [pc, #8]	; (8004c00 <USBD_FS_InterfaceStrDescriptor+0x20>)
 8004bf6:	4803      	ldr	r0, [pc, #12]	; (8004c04 <USBD_FS_InterfaceStrDescriptor+0x24>)
 8004bf8:	f7fe fe88 	bl	800390c <USBD_GetString>
 8004bfc:	e7f8      	b.n	8004bf0 <USBD_FS_InterfaceStrDescriptor+0x10>
 8004bfe:	46c0      	nop			; (mov r8, r8)
 8004c00:	20000b48 	.word	0x20000b48
 8004c04:	08004f2c 	.word	0x08004f2c

08004c08 <Reset_Handler>:

  .section .text.Reset_Handler
  .weak Reset_Handler
  .type Reset_Handler, %function
Reset_Handler:
  ldr   r0, =_estack
 8004c08:	4813      	ldr	r0, [pc, #76]	; (8004c58 <LoopForever+0x2>)
  mov   sp, r0          /* set stack pointer */
 8004c0a:	4685      	mov	sp, r0

/*Check if boot space corresponds to test memory*/
 
    LDR R0,=0x00000004
 8004c0c:	2004      	movs	r0, #4
    LDR R1, [R0]
 8004c0e:	6801      	ldr	r1, [r0, #0]
    LSRS R1, R1, #24
 8004c10:	0e09      	lsrs	r1, r1, #24
    LDR R2,=0x1F
 8004c12:	221f      	movs	r2, #31
    CMP R1, R2
 8004c14:	4291      	cmp	r1, r2
    BNE ApplicationStart
 8004c16:	d105      	bne.n	8004c24 <ApplicationStart>

 /*SYSCFG clock enable*/

    LDR R0,=0x40021018
 8004c18:	4810      	ldr	r0, [pc, #64]	; (8004c5c <LoopForever+0x6>)
    LDR R1,=0x00000001
 8004c1a:	2101      	movs	r1, #1
    STR R1, [R0]
 8004c1c:	6001      	str	r1, [r0, #0]

/*Set CFGR1 register with flash memory remap at address 0*/
    LDR R0,=0x40010000
 8004c1e:	4810      	ldr	r0, [pc, #64]	; (8004c60 <LoopForever+0xa>)
    LDR R1,=0x00000000
 8004c20:	2100      	movs	r1, #0
    STR R1, [R0]
 8004c22:	6001      	str	r1, [r0, #0]

08004c24 <ApplicationStart>:

ApplicationStart:
/* Copy the data segment initializers from flash to SRAM */
  ldr r0, =_sdata
 8004c24:	480f      	ldr	r0, [pc, #60]	; (8004c64 <LoopForever+0xe>)
  ldr r1, =_edata
 8004c26:	4910      	ldr	r1, [pc, #64]	; (8004c68 <LoopForever+0x12>)
  ldr r2, =_sidata
 8004c28:	4a10      	ldr	r2, [pc, #64]	; (8004c6c <LoopForever+0x16>)
  movs r3, #0
 8004c2a:	2300      	movs	r3, #0
  b LoopCopyDataInit
 8004c2c:	e002      	b.n	8004c34 <LoopCopyDataInit>

08004c2e <CopyDataInit>:

CopyDataInit:
  ldr r4, [r2, r3]
 8004c2e:	58d4      	ldr	r4, [r2, r3]
  str r4, [r0, r3]
 8004c30:	50c4      	str	r4, [r0, r3]
  adds r3, r3, #4
 8004c32:	3304      	adds	r3, #4

08004c34 <LoopCopyDataInit>:

LoopCopyDataInit:
  adds r4, r0, r3
 8004c34:	18c4      	adds	r4, r0, r3
  cmp r4, r1
 8004c36:	428c      	cmp	r4, r1
  bcc CopyDataInit
 8004c38:	d3f9      	bcc.n	8004c2e <CopyDataInit>
  
/* Zero fill the bss segment. */
  ldr r2, =_sbss
 8004c3a:	4a0d      	ldr	r2, [pc, #52]	; (8004c70 <LoopForever+0x1a>)
  ldr r4, =_ebss
 8004c3c:	4c0d      	ldr	r4, [pc, #52]	; (8004c74 <LoopForever+0x1e>)
  movs r3, #0
 8004c3e:	2300      	movs	r3, #0
  b LoopFillZerobss
 8004c40:	e001      	b.n	8004c46 <LoopFillZerobss>

08004c42 <FillZerobss>:

FillZerobss:
  str  r3, [r2]
 8004c42:	6013      	str	r3, [r2, #0]
  adds r2, r2, #4
 8004c44:	3204      	adds	r2, #4

08004c46 <LoopFillZerobss>:

LoopFillZerobss:
  cmp r2, r4
 8004c46:	42a2      	cmp	r2, r4
  bcc FillZerobss
 8004c48:	d3fb      	bcc.n	8004c42 <FillZerobss>

/* Call the clock system intitialization function.*/
  bl  SystemInit
 8004c4a:	f7ff fd49 	bl	80046e0 <SystemInit>
/* Call static constructors */
  bl __libc_init_array
 8004c4e:	f000 f815 	bl	8004c7c <__libc_init_array>
/* Call the application's entry point.*/
  bl main
 8004c52:	f7fe ff39 	bl	8003ac8 <main>

08004c56 <LoopForever>:

LoopForever:
    b LoopForever
 8004c56:	e7fe      	b.n	8004c56 <LoopForever>
  ldr   r0, =_estack
 8004c58:	20001800 	.word	0x20001800
    LDR R0,=0x40021018
 8004c5c:	40021018 	.word	0x40021018
    LDR R0,=0x40010000
 8004c60:	40010000 	.word	0x40010000
  ldr r0, =_sdata
 8004c64:	20000000 	.word	0x20000000
  ldr r1, =_edata
 8004c68:	20000160 	.word	0x20000160
  ldr r2, =_sidata
 8004c6c:	08004f78 	.word	0x08004f78
  ldr r2, =_sbss
 8004c70:	20000160 	.word	0x20000160
  ldr r4, =_ebss
 8004c74:	20000d48 	.word	0x20000d48

08004c78 <ADC1_IRQHandler>:
 * @retval : None
*/
    .section .text.Default_Handler,"ax",%progbits
Default_Handler:
Infinite_Loop:
  b Infinite_Loop
 8004c78:	e7fe      	b.n	8004c78 <ADC1_IRQHandler>
	...

08004c7c <__libc_init_array>:
 8004c7c:	b570      	push	{r4, r5, r6, lr}
 8004c7e:	2600      	movs	r6, #0
 8004c80:	4d0c      	ldr	r5, [pc, #48]	; (8004cb4 <__libc_init_array+0x38>)
 8004c82:	4c0d      	ldr	r4, [pc, #52]	; (8004cb8 <__libc_init_array+0x3c>)
 8004c84:	1b64      	subs	r4, r4, r5
 8004c86:	10a4      	asrs	r4, r4, #2
 8004c88:	42a6      	cmp	r6, r4
 8004c8a:	d109      	bne.n	8004ca0 <__libc_init_array+0x24>
 8004c8c:	2600      	movs	r6, #0
 8004c8e:	f000 f823 	bl	8004cd8 <_init>
 8004c92:	4d0a      	ldr	r5, [pc, #40]	; (8004cbc <__libc_init_array+0x40>)
 8004c94:	4c0a      	ldr	r4, [pc, #40]	; (8004cc0 <__libc_init_array+0x44>)
 8004c96:	1b64      	subs	r4, r4, r5
 8004c98:	10a4      	asrs	r4, r4, #2
 8004c9a:	42a6      	cmp	r6, r4
 8004c9c:	d105      	bne.n	8004caa <__libc_init_array+0x2e>
 8004c9e:	bd70      	pop	{r4, r5, r6, pc}
 8004ca0:	00b3      	lsls	r3, r6, #2
 8004ca2:	58eb      	ldr	r3, [r5, r3]
 8004ca4:	4798      	blx	r3
 8004ca6:	3601      	adds	r6, #1
 8004ca8:	e7ee      	b.n	8004c88 <__libc_init_array+0xc>
 8004caa:	00b3      	lsls	r3, r6, #2
 8004cac:	58eb      	ldr	r3, [r5, r3]
 8004cae:	4798      	blx	r3
 8004cb0:	3601      	adds	r6, #1
 8004cb2:	e7f2      	b.n	8004c9a <__libc_init_array+0x1e>
 8004cb4:	08004f70 	.word	0x08004f70
 8004cb8:	08004f70 	.word	0x08004f70
 8004cbc:	08004f70 	.word	0x08004f70
 8004cc0:	08004f74 	.word	0x08004f74

08004cc4 <memcpy>:
 8004cc4:	2300      	movs	r3, #0
 8004cc6:	b510      	push	{r4, lr}
 8004cc8:	429a      	cmp	r2, r3
 8004cca:	d100      	bne.n	8004cce <memcpy+0xa>
 8004ccc:	bd10      	pop	{r4, pc}
 8004cce:	5ccc      	ldrb	r4, [r1, r3]
 8004cd0:	54c4      	strb	r4, [r0, r3]
 8004cd2:	3301      	adds	r3, #1
 8004cd4:	e7f8      	b.n	8004cc8 <memcpy+0x4>
	...

08004cd8 <_init>:
 8004cd8:	b5f8      	push	{r3, r4, r5, r6, r7, lr}
 8004cda:	46c0      	nop			; (mov r8, r8)
 8004cdc:	bcf8      	pop	{r3, r4, r5, r6, r7}
 8004cde:	bc08      	pop	{r3}
 8004ce0:	469e      	mov	lr, r3
 8004ce2:	4770      	bx	lr

08004ce4 <_fini>:
 8004ce4:	b5f8      	push	{r3, r4, r5, r6, r7, lr}
 8004ce6:	46c0      	nop			; (mov r8, r8)
 8004ce8:	bcf8      	pop	{r3, r4, r5, r6, r7}
 8004cea:	bc08      	pop	{r3}
 8004cec:	469e      	mov	lr, r3
 8004cee:	4770      	bx	lr
